ARM GAS  /tmp/cc0CFvsY.s 			page 1


   1              		.cpu cortex-m3
   2              		.eabi_attribute 20, 1
   3              		.eabi_attribute 21, 1
   4              		.eabi_attribute 23, 3
   5              		.eabi_attribute 24, 1
   6              		.eabi_attribute 25, 1
   7              		.eabi_attribute 26, 1
   8              		.eabi_attribute 30, 1
   9              		.eabi_attribute 34, 1
  10              		.eabi_attribute 18, 4
  11              		.file	"ili9341.c"
  12              		.text
  13              	.Ltext0:
  14              		.cfi_sections	.debug_frame
  15              		.section	.text.ili9341_fill_area,"ax",%progbits
  16              		.align	1
  17              		.arch armv7-m
  18              		.syntax unified
  19              		.thumb
  20              		.thumb_func
  21              		.fpu softvfp
  23              	ili9341_fill_area:
  24              	.LVL0:
  25              	.LFB78:
  26              		.file 1 "ili9341/ili9341.c"
   1:ili9341/ili9341.c **** /********************************************************************
   2:ili9341/ili9341.c **** *                         Standard headers                          *
   3:ili9341/ili9341.c **** ********************************************************************/
   4:ili9341/ili9341.c **** 
   5:ili9341/ili9341.c **** /********************************************************************
   6:ili9341/ili9341.c **** *                           Local headers                           *
   7:ili9341/ili9341.c **** ********************************************************************/
   8:ili9341/ili9341.c **** #include "ili9341.h"
   9:ili9341/ili9341.c **** #include "stm32f1xx_hal.h"
  10:ili9341/ili9341.c **** #include "logger.h"
  11:ili9341/ili9341.c **** /********************************************************************
  12:ili9341/ili9341.c **** *                       Constant macro defines                      *
  13:ili9341/ili9341.c **** ********************************************************************/
  14:ili9341/ili9341.c **** /* | CS | WR | RD |D/C|     Function            |
  15:ili9341/ili9341.c ****             _
  16:ili9341/ili9341.c ****    | L  | _/ | H  | L | write command code      |
  17:ili9341/ili9341.c ****                  _
  18:ili9341/ili9341.c ****    | L  | H  | _/ | H | read internal status    |
  19:ili9341/ili9341.c ****             _
  20:ili9341/ili9341.c ****    | L  | _/ | H  | H | write data or parameter |
  21:ili9341/ili9341.c ****                  _
  22:ili9341/ili9341.c ****    | L  | H  | _/ | H | reads data or parameter |
  23:ili9341/ili9341.c **** */
  24:ili9341/ili9341.c **** 
  25:ili9341/ili9341.c **** /* Level 1 Commands */
  26:ili9341/ili9341.c **** #define LCD_NOP                 0x00   /* No operation */
  27:ili9341/ili9341.c **** #define LCD_SWRESET             0x01   /* Software Reset */
  28:ili9341/ili9341.c **** #define LCD_READ_DISPLAY_ID     0x04   /* Read display identification information */
  29:ili9341/ili9341.c **** #define LCD_RDDST               0x09   /* Read Display Status */
  30:ili9341/ili9341.c **** #define LCD_RDDPM               0x0A   /* Read Display Power Mode */
  31:ili9341/ili9341.c **** #define LCD_RDDMADCTL           0x0B   /* Read Display MADCTL */
  32:ili9341/ili9341.c **** #define LCD_RDDCOLMOD           0x0C   /* Read Display Pixel Format */
ARM GAS  /tmp/cc0CFvsY.s 			page 2


  33:ili9341/ili9341.c **** #define LCD_RDDIM               0x0D   /* Read Display Image Format */
  34:ili9341/ili9341.c **** #define LCD_RDDSM               0x0E   /* Read Display Signal Mode */
  35:ili9341/ili9341.c **** #define LCD_RDDSDR              0x0F   /* Read Display Self-Diagnostic Result */
  36:ili9341/ili9341.c **** #define LCD_SPLIN               0x10   /* Enter Sleep Mode */
  37:ili9341/ili9341.c **** #define LCD_SLEEP_OUT           0x11   /* Sleep out register */
  38:ili9341/ili9341.c **** #define LCD_PTLON               0x12   /* Partial Mode ON */
  39:ili9341/ili9341.c **** #define LCD_NORMAL_MODE_ON      0x13   /* Normal Display Mode ON */
  40:ili9341/ili9341.c **** #define LCD_DINVOFF             0x20   /* Display Inversion OFF */
  41:ili9341/ili9341.c **** #define LCD_DINVON              0x21   /* Display Inversion ON */
  42:ili9341/ili9341.c **** #define LCD_GAMMA               0x26   /* Gamma register */
  43:ili9341/ili9341.c **** #define LCD_DISPLAY_OFF         0x28   /* Display off register */
  44:ili9341/ili9341.c **** #define LCD_DISPLAY_ON          0x29   /* Display on register */
  45:ili9341/ili9341.c **** #define LCD_COLUMN_ADDR         0x2A   /* Colomn address register */
  46:ili9341/ili9341.c **** #define LCD_PAGE_ADDR           0x2B   /* Page address register */
  47:ili9341/ili9341.c **** #define LCD_GRAM                0x2C   /* GRAM register */
  48:ili9341/ili9341.c **** #define LCD_RGBSET              0x2D   /* Color SET */
  49:ili9341/ili9341.c **** #define LCD_RAMRD               0x2E   /* Memory Read */
  50:ili9341/ili9341.c **** #define LCD_PLTAR               0x30   /* Partial Area */
  51:ili9341/ili9341.c **** #define LCD_VSCRDEF             0x33   /* Vertical Scrolling Definition */
  52:ili9341/ili9341.c **** #define LCD_TEOFF               0x34   /* Tearing Effect Line OFF */
  53:ili9341/ili9341.c **** #define LCD_TEON                0x35   /* Tearing Effect Line ON */
  54:ili9341/ili9341.c **** #define LCD_MAC                 0x36   /* Memory Access Control register*/
  55:ili9341/ili9341.c **** #define LCD_VSCRSADD            0x37   /* Vertical Scrolling Start Address */
  56:ili9341/ili9341.c **** #define LCD_IDMOFF              0x38   /* Idle Mode OFF */
  57:ili9341/ili9341.c **** #define LCD_IDMON               0x39   /* Idle Mode ON */
  58:ili9341/ili9341.c **** #define LCD_PIXEL_FORMAT        0x3A   /* Pixel Format register */
  59:ili9341/ili9341.c **** #define LCD_WRITE_MEM_CONTINUE  0x3C   /* Write Memory Continue */
  60:ili9341/ili9341.c **** #define LCD_READ_MEM_CONTINUE   0x3E   /* Read Memory Continue */
  61:ili9341/ili9341.c **** #define LCD_SET_TEAR_SCANLINE   0x44   /* Set Tear Scanline */
  62:ili9341/ili9341.c **** #define LCD_GET_SCANLINE        0x45   /* Get Scanline */
  63:ili9341/ili9341.c **** #define LCD_WDB                 0x51   /* Write Brightness Display register */
  64:ili9341/ili9341.c **** #define LCD_RDDISBV             0x52   /* Read Display Brightness */
  65:ili9341/ili9341.c **** #define LCD_WCD                 0x53   /* Write Control Display register*/
  66:ili9341/ili9341.c **** #define LCD_RDCTRLD             0x54   /* Read CTRL Display */
  67:ili9341/ili9341.c **** #define LCD_WRCABC              0x55   /* Write Content Adaptive Brightness Control */
  68:ili9341/ili9341.c **** #define LCD_RDCABC              0x56   /* Read Content Adaptive Brightness Control */
  69:ili9341/ili9341.c **** #define LCD_WRITE_CABC          0x5E   /* Write CABC Minimum Brightness */
  70:ili9341/ili9341.c **** #define LCD_READ_CABC           0x5F   /* Read CABC Minimum Brightness */
  71:ili9341/ili9341.c **** #define LCD_READ_ID1            0xDA   /* Read ID1 */
  72:ili9341/ili9341.c **** #define LCD_READ_ID2            0xDB   /* Read ID2 */
  73:ili9341/ili9341.c **** #define LCD_READ_ID3            0xDC   /* Read ID3 */
  74:ili9341/ili9341.c **** 
  75:ili9341/ili9341.c **** /* Level 2 Commands */
  76:ili9341/ili9341.c **** #define LCD_RGB_INTERFACE       0xB0   /* RGB Interface Signal Control */
  77:ili9341/ili9341.c **** #define LCD_FRMCTR1             0xB1   /* Frame Rate Control (In Normal Mode) */
  78:ili9341/ili9341.c **** #define LCD_FRMCTR2             0xB2   /* Frame Rate Control (In Idle Mode) */
  79:ili9341/ili9341.c **** #define LCD_FRMCTR3             0xB3   /* Frame Rate Control (In Partial Mode) */
  80:ili9341/ili9341.c **** #define LCD_INVTR               0xB4   /* Display Inversion Control */
  81:ili9341/ili9341.c **** #define LCD_BPC                 0xB5   /* Blanking Porch Control register */
  82:ili9341/ili9341.c **** #define LCD_DFC                 0xB6   /* Display Function Control register */
  83:ili9341/ili9341.c **** #define LCD_ETMOD               0xB7   /* Entry Mode Set */
  84:ili9341/ili9341.c **** #define LCD_BACKLIGHT1          0xB8   /* Backlight Control 1 */
  85:ili9341/ili9341.c **** #define LCD_BACKLIGHT2          0xB9   /* Backlight Control 2 */
  86:ili9341/ili9341.c **** #define LCD_BACKLIGHT3          0xBA   /* Backlight Control 3 */
  87:ili9341/ili9341.c **** #define LCD_BACKLIGHT4          0xBB   /* Backlight Control 4 */
  88:ili9341/ili9341.c **** #define LCD_BACKLIGHT5          0xBC   /* Backlight Control 5 */
  89:ili9341/ili9341.c **** #define LCD_BACKLIGHT7          0xBE   /* Backlight Control 7 */
ARM GAS  /tmp/cc0CFvsY.s 			page 3


  90:ili9341/ili9341.c **** #define LCD_BACKLIGHT8          0xBF   /* Backlight Control 8 */
  91:ili9341/ili9341.c **** #define LCD_POWER1              0xC0   /* Power Control 1 register */
  92:ili9341/ili9341.c **** #define LCD_POWER2              0xC1   /* Power Control 2 register */
  93:ili9341/ili9341.c **** #define LCD_VCOM1               0xC5   /* VCOM Control 1 register */
  94:ili9341/ili9341.c **** #define LCD_VCOM2               0xC7   /* VCOM Control 2 register */
  95:ili9341/ili9341.c **** #define LCD_NVMWR               0xD0   /* NV Memory Write */
  96:ili9341/ili9341.c **** #define LCD_NVMPKEY             0xD1   /* NV Memory Protection Key */
  97:ili9341/ili9341.c **** #define LCD_RDNVM               0xD2   /* NV Memory Status Read */
  98:ili9341/ili9341.c **** #define LCD_READ_ID4            0xD3   /* Read ID4 */
  99:ili9341/ili9341.c **** #define LCD_PGAMMA              0xE0   /* Positive Gamma Correction register */
 100:ili9341/ili9341.c **** #define LCD_NGAMMA              0xE1   /* Negative Gamma Correction register */
 101:ili9341/ili9341.c **** #define LCD_DGAMCTRL1           0xE2   /* Digital Gamma Control 1 */
 102:ili9341/ili9341.c **** #define LCD_DGAMCTRL2           0xE3   /* Digital Gamma Control 2 */
 103:ili9341/ili9341.c **** #define LCD_INTERFACE           0xF6   /* Interface control register */
 104:ili9341/ili9341.c **** 
 105:ili9341/ili9341.c **** /* Extend register commands */
 106:ili9341/ili9341.c **** #define LCD_POWERA              0xCB   /* Power control A register */
 107:ili9341/ili9341.c **** #define LCD_POWERB              0xCF   /* Power control B register */
 108:ili9341/ili9341.c **** #define LCD_DTCA                0xE8   /* Driver timing control A */
 109:ili9341/ili9341.c **** #define LCD_DTCB                0xEA   /* Driver timing control B */
 110:ili9341/ili9341.c **** #define LCD_POWER_SEQ           0xED   /* Power on sequence register */
 111:ili9341/ili9341.c **** #define LCD_3GAMMA_EN           0xF2   /* 3 Gamma enable register */
 112:ili9341/ili9341.c **** #define LCD_PRC                 0xF7   /* Pump ratio control register */
 113:ili9341/ili9341.c **** 
 114:ili9341/ili9341.c **** /* GPIO pin control. */
 115:ili9341/ili9341.c **** /* TODO: Should be reworked to faster. (GPIOx->BSRR)*/
 116:ili9341/ili9341.c **** #define RESET_IDLE()            HAL_GPIO_WritePin(GPIOB, LCD_RST_Pin, GPIO_PIN_SET)
 117:ili9341/ili9341.c **** #define RESET_ACTIVE()          HAL_GPIO_WritePin(GPIOB, LCD_RST_Pin, GPIO_PIN_RESET)
 118:ili9341/ili9341.c **** #define CS_IDLE()               HAL_GPIO_WritePin(GPIOB, LCD_CS_Pin, GPIO_PIN_SET)
 119:ili9341/ili9341.c **** #define CS_ACTIVE()             HAL_GPIO_WritePin(GPIOB, LCD_CS_Pin, GPIO_PIN_RESET)
 120:ili9341/ili9341.c **** #define RS_DATA()               HAL_GPIO_WritePin(GPIOB, LCD_RS_Pin, GPIO_PIN_SET)
 121:ili9341/ili9341.c **** #define RS_COMMAND()            HAL_GPIO_WritePin(GPIOB, LCD_RS_Pin, GPIO_PIN_RESET)
 122:ili9341/ili9341.c **** #define WR_IDLE()               HAL_GPIO_WritePin(GPIOB, LCD_WR_Pin, GPIO_PIN_SET)
 123:ili9341/ili9341.c **** #define WR_ACTIVE()             HAL_GPIO_WritePin(GPIOB, LCD_WR_Pin, GPIO_PIN_RESET)
 124:ili9341/ili9341.c **** #define RD_IDLE()               HAL_GPIO_WritePin(GPIOB, LCD_RD_Pin, GPIO_PIN_SET)
 125:ili9341/ili9341.c **** #define RD_ACTIVE()             HAL_GPIO_WritePin(GPIOB, LCD_RD_Pin, GPIO_PIN_RESET)
 126:ili9341/ili9341.c **** #define WR_PAUSE()  
 127:ili9341/ili9341.c **** #define RD_PAUSE()    
 128:ili9341/ili9341.c **** 
 129:ili9341/ili9341.c **** #define PIN_OUTPUT              (0x33333333UL)
 130:ili9341/ili9341.c **** #define PIN_INPUT               (0x88888888UL)
 131:ili9341/ili9341.c **** 
 132:ili9341/ili9341.c **** #define TFT_WIGTH               (239)
 133:ili9341/ili9341.c **** #define TFT_HEIGHT              (319)
 134:ili9341/ili9341.c **** 
 135:ili9341/ili9341.c **** /********************************************************************
 136:ili9341/ili9341.c **** *                             Typedefs                              *
 137:ili9341/ili9341.c **** ********************************************************************/
 138:ili9341/ili9341.c **** 
 139:ili9341/ili9341.c **** /********************************************************************
 140:ili9341/ili9341.c **** *                  Static global data declarations                  *
 141:ili9341/ili9341.c **** ********************************************************************/
 142:ili9341/ili9341.c **** 
 143:ili9341/ili9341.c **** /********************************************************************
 144:ili9341/ili9341.c **** *                     Functions implementations                     *
 145:ili9341/ili9341.c **** ********************************************************************/
 146:ili9341/ili9341.c **** static inline void set_write_bus(void)
ARM GAS  /tmp/cc0CFvsY.s 			page 4


 147:ili9341/ili9341.c **** {
 148:ili9341/ili9341.c ****     GPIOA->CRL = PIN_OUTPUT;
 149:ili9341/ili9341.c **** }
 150:ili9341/ili9341.c **** 
 151:ili9341/ili9341.c **** static inline void set_read_bus(void)
 152:ili9341/ili9341.c **** {
 153:ili9341/ili9341.c ****     GPIOA->CRL  = PIN_INPUT;
 154:ili9341/ili9341.c ****     GPIOA->BSRR = 0xFF;
 155:ili9341/ili9341.c **** }
 156:ili9341/ili9341.c **** 
 157:ili9341/ili9341.c **** static inline void send_cmd(uint8_t cmd)
 158:ili9341/ili9341.c **** {
 159:ili9341/ili9341.c ****     RS_COMMAND();
 160:ili9341/ili9341.c ****     WR_ACTIVE();
 161:ili9341/ili9341.c ****     GPIOA->ODR = (GPIOA->ODR & 0xFF00) | cmd;
 162:ili9341/ili9341.c ****     WR_PAUSE();
 163:ili9341/ili9341.c ****     WR_IDLE();
 164:ili9341/ili9341.c ****     RS_DATA();
 165:ili9341/ili9341.c **** }
 166:ili9341/ili9341.c **** static void inline read_multi_data(uint8_t *data, uint8_t len)
 167:ili9341/ili9341.c **** {
 168:ili9341/ili9341.c ****     set_read_bus();
 169:ili9341/ili9341.c **** 
 170:ili9341/ili9341.c ****     for (size_t i = 0; i < len; i++)
 171:ili9341/ili9341.c ****     {
 172:ili9341/ili9341.c ****         RD_ACTIVE();
 173:ili9341/ili9341.c ****         data[i] = (uint8_t)(GPIOA->IDR);
 174:ili9341/ili9341.c ****         RD_IDLE();
 175:ili9341/ili9341.c ****     }
 176:ili9341/ili9341.c **** 
 177:ili9341/ili9341.c ****     set_write_bus();
 178:ili9341/ili9341.c **** }
 179:ili9341/ili9341.c **** static inline void transmition_open(void)
 180:ili9341/ili9341.c **** {
 181:ili9341/ili9341.c ****     CS_ACTIVE();
 182:ili9341/ili9341.c **** }
 183:ili9341/ili9341.c **** 
 184:ili9341/ili9341.c **** static inline uint8_t read_data()
 185:ili9341/ili9341.c **** {   
 186:ili9341/ili9341.c ****     set_read_bus();
 187:ili9341/ili9341.c **** 
 188:ili9341/ili9341.c ****     RD_ACTIVE();
 189:ili9341/ili9341.c ****     uint8_t data = (uint8_t)(GPIOA->IDR);
 190:ili9341/ili9341.c ****     RD_IDLE();
 191:ili9341/ili9341.c ****     set_write_bus();
 192:ili9341/ili9341.c ****     return data;
 193:ili9341/ili9341.c **** }
 194:ili9341/ili9341.c **** 
 195:ili9341/ili9341.c **** static inline void send_data8(const uint8_t data)
 196:ili9341/ili9341.c **** {
 197:ili9341/ili9341.c ****     WR_ACTIVE();
 198:ili9341/ili9341.c ****     GPIOA->ODR = (GPIOA->ODR & 0xFF00) | data;
 199:ili9341/ili9341.c ****     WR_IDLE();
 200:ili9341/ili9341.c **** }
 201:ili9341/ili9341.c **** 
 202:ili9341/ili9341.c **** static inline void send_multi_data(const uint8_t *data, uint16_t len)
 203:ili9341/ili9341.c **** {
ARM GAS  /tmp/cc0CFvsY.s 			page 5


 204:ili9341/ili9341.c ****     for(uint16_t i = 0; i < len; ++i)
 205:ili9341/ili9341.c ****     {
 206:ili9341/ili9341.c ****         WR_ACTIVE();
 207:ili9341/ili9341.c ****         GPIOA->ODR = (GPIOA->ODR & 0xFF00) | data[i];
 208:ili9341/ili9341.c ****         WR_IDLE();
 209:ili9341/ili9341.c ****     }
 210:ili9341/ili9341.c **** }
 211:ili9341/ili9341.c **** 
 212:ili9341/ili9341.c **** static inline void send_data16(uint16_t data)
 213:ili9341/ili9341.c **** {
 214:ili9341/ili9341.c ****     WR_ACTIVE();
 215:ili9341/ili9341.c ****     GPIOA->ODR = (GPIOA->ODR & 0xFF00) | (data >> 8);
 216:ili9341/ili9341.c ****     WR_IDLE();
 217:ili9341/ili9341.c **** 
 218:ili9341/ili9341.c ****     WR_ACTIVE();
 219:ili9341/ili9341.c ****     GPIOA->ODR = (GPIOA->ODR & 0xFF00) | (data & 0x00FF);
 220:ili9341/ili9341.c ****     WR_IDLE();
 221:ili9341/ili9341.c **** }
 222:ili9341/ili9341.c **** 
 223:ili9341/ili9341.c **** static inline void transmition_close(void)
 224:ili9341/ili9341.c **** {
 225:ili9341/ili9341.c ****     CS_IDLE();
 226:ili9341/ili9341.c **** }
 227:ili9341/ili9341.c **** 
 228:ili9341/ili9341.c **** static inline void set_col(uint16_t start, uint16_t end)
 229:ili9341/ili9341.c **** {
 230:ili9341/ili9341.c ****     transmition_open();
 231:ili9341/ili9341.c ****     send_cmd(LCD_COLUMN_ADDR);
 232:ili9341/ili9341.c ****     send_data16(start);
 233:ili9341/ili9341.c ****     send_data16(end);
 234:ili9341/ili9341.c ****     transmition_close();
 235:ili9341/ili9341.c **** }
 236:ili9341/ili9341.c **** 
 237:ili9341/ili9341.c **** static inline void set_row(uint16_t start, uint16_t end)
 238:ili9341/ili9341.c **** {
 239:ili9341/ili9341.c ****     transmition_open();
 240:ili9341/ili9341.c ****     send_cmd(LCD_PAGE_ADDR);
 241:ili9341/ili9341.c ****     send_data16(start);
 242:ili9341/ili9341.c ****     send_data16(end);
 243:ili9341/ili9341.c ****     transmition_close();
 244:ili9341/ili9341.c **** }
 245:ili9341/ili9341.c **** 
 246:ili9341/ili9341.c **** static void ili9341_fill_area(uint16_t x1, uint16_t y1, uint16_t x2, uint16_t y2, display_color_t c
 247:ili9341/ili9341.c **** {
  27              		.loc 1 247 1 view -0
  28              		.cfi_startproc
  29              		@ args = 4, pretend = 0, frame = 8
  30              		@ frame_needed = 0, uses_anonymous_args = 0
  31              		.loc 1 247 1 is_stmt 0 view .LVU1
  32 0000 2DE9F04F 		push	{r4, r5, r6, r7, r8, r9, r10, fp, lr}
  33              	.LCFI0:
  34              		.cfi_def_cfa_offset 36
  35              		.cfi_offset 4, -36
  36              		.cfi_offset 5, -32
  37              		.cfi_offset 6, -28
  38              		.cfi_offset 7, -24
  39              		.cfi_offset 8, -20
ARM GAS  /tmp/cc0CFvsY.s 			page 6


  40              		.cfi_offset 9, -16
  41              		.cfi_offset 10, -12
  42              		.cfi_offset 11, -8
  43              		.cfi_offset 14, -4
  44 0004 83B0     		sub	sp, sp, #12
  45              	.LCFI1:
  46              		.cfi_def_cfa_offset 48
  47 0006 8346     		mov	fp, r0
  48 0008 8946     		mov	r9, r1
  49 000a 9246     		mov	r10, r2
  50 000c 9846     		mov	r8, r3
  51 000e BDF83070 		ldrh	r7, [sp, #48]
 248:ili9341/ili9341.c ****     uint16_t x = (uint16_t)((x2 - x1) + 1);
  52              		.loc 1 248 5 is_stmt 1 view .LVU2
  53              		.loc 1 248 33 is_stmt 0 view .LVU3
  54 0012 161A     		subs	r6, r2, r0
  55 0014 B6B2     		uxth	r6, r6
  56              		.loc 1 248 14 view .LVU4
  57 0016 0136     		adds	r6, r6, #1
  58 0018 B3B2     		uxth	r3, r6
  59              	.LVL1:
  60              		.loc 1 248 14 view .LVU5
  61 001a 0193     		str	r3, [sp, #4]
  62              	.LVL2:
 249:ili9341/ili9341.c ****     uint16_t y = (uint16_t)((y2 - y1) + 1);
  63              		.loc 1 249 5 is_stmt 1 view .LVU6
  64              		.loc 1 249 33 is_stmt 0 view .LVU7
  65 001c A8EB0106 		sub	r6, r8, r1
  66 0020 B6B2     		uxth	r6, r6
  67              		.loc 1 249 14 view .LVU8
  68 0022 0136     		adds	r6, r6, #1
  69 0024 B6B2     		uxth	r6, r6
  70              	.LVL3:
 250:ili9341/ili9341.c **** 
 251:ili9341/ili9341.c ****     set_col(x1, x2);
  71              		.loc 1 251 5 is_stmt 1 view .LVU9
  72              	.LBB110:
  73              	.LBI110:
 228:ili9341/ili9341.c **** {
  74              		.loc 1 228 20 view .LVU10
  75              	.LBE110:
 230:ili9341/ili9341.c ****     send_cmd(LCD_COLUMN_ADDR);
  76              		.loc 1 230 5 view .LVU11
  77              	.LBB121:
  78              	.LBB111:
  79              	.LBI111:
 179:ili9341/ili9341.c **** {
  80              		.loc 1 179 20 view .LVU12
  81              	.LBB112:
 181:ili9341/ili9341.c **** }
  82              		.loc 1 181 5 view .LVU13
  83 0026 A54C     		ldr	r4, .L6
  84 0028 0022     		movs	r2, #0
  85              	.LVL4:
 181:ili9341/ili9341.c **** }
  86              		.loc 1 181 5 is_stmt 0 view .LVU14
  87 002a 4FF40051 		mov	r1, #8192
ARM GAS  /tmp/cc0CFvsY.s 			page 7


  88              	.LVL5:
 181:ili9341/ili9341.c **** }
  89              		.loc 1 181 5 view .LVU15
  90 002e 2046     		mov	r0, r4
  91              	.LVL6:
 181:ili9341/ili9341.c **** }
  92              		.loc 1 181 5 view .LVU16
  93 0030 FFF7FEFF 		bl	HAL_GPIO_WritePin
  94              	.LVL7:
  95              	.LBE112:
  96              	.LBE111:
  97              	.LBE121:
 231:ili9341/ili9341.c ****     send_data16(start);
  98              		.loc 1 231 5 is_stmt 1 view .LVU17
  99              	.LBB122:
 100              	.LBB113:
 101              	.LBI113:
 157:ili9341/ili9341.c **** {
 102              		.loc 1 157 20 view .LVU18
 103              	.LBB114:
 159:ili9341/ili9341.c ****     WR_ACTIVE();
 104              		.loc 1 159 5 view .LVU19
 105 0034 0022     		movs	r2, #0
 106 0036 4FF48041 		mov	r1, #16384
 107 003a 2046     		mov	r0, r4
 108 003c FFF7FEFF 		bl	HAL_GPIO_WritePin
 109              	.LVL8:
 160:ili9341/ili9341.c ****     GPIOA->ODR = (GPIOA->ODR & 0xFF00) | cmd;
 110              		.loc 1 160 5 view .LVU20
 111 0040 0022     		movs	r2, #0
 112 0042 4FF40041 		mov	r1, #32768
 113 0046 2046     		mov	r0, r4
 114 0048 FFF7FEFF 		bl	HAL_GPIO_WritePin
 115              	.LVL9:
 161:ili9341/ili9341.c ****     WR_PAUSE();
 116              		.loc 1 161 5 view .LVU21
 161:ili9341/ili9341.c ****     WR_PAUSE();
 117              		.loc 1 161 24 is_stmt 0 view .LVU22
 118 004c 9C4D     		ldr	r5, .L6+4
 119 004e EB68     		ldr	r3, [r5, #12]
 161:ili9341/ili9341.c ****     WR_PAUSE();
 120              		.loc 1 161 30 view .LVU23
 121 0050 03F47F43 		and	r3, r3, #65280
 161:ili9341/ili9341.c ****     WR_PAUSE();
 122              		.loc 1 161 40 view .LVU24
 123 0054 43F02A03 		orr	r3, r3, #42
 161:ili9341/ili9341.c ****     WR_PAUSE();
 124              		.loc 1 161 16 view .LVU25
 125 0058 EB60     		str	r3, [r5, #12]
 126              	.LVL10:
 162:ili9341/ili9341.c ****     WR_IDLE();
 127              		.loc 1 162 15 is_stmt 1 view .LVU26
 163:ili9341/ili9341.c ****     RS_DATA();
 128              		.loc 1 163 5 view .LVU27
 129 005a 0122     		movs	r2, #1
 130 005c 4FF40041 		mov	r1, #32768
 131 0060 2046     		mov	r0, r4
ARM GAS  /tmp/cc0CFvsY.s 			page 8


 132 0062 FFF7FEFF 		bl	HAL_GPIO_WritePin
 133              	.LVL11:
 164:ili9341/ili9341.c **** }
 134              		.loc 1 164 5 view .LVU28
 135 0066 0122     		movs	r2, #1
 136 0068 4FF48041 		mov	r1, #16384
 137 006c 2046     		mov	r0, r4
 138 006e FFF7FEFF 		bl	HAL_GPIO_WritePin
 139              	.LVL12:
 164:ili9341/ili9341.c **** }
 140              		.loc 1 164 5 is_stmt 0 view .LVU29
 141              	.LBE114:
 142              	.LBE113:
 143              	.LBE122:
 232:ili9341/ili9341.c ****     send_data16(end);
 144              		.loc 1 232 5 is_stmt 1 view .LVU30
 145              	.LBB123:
 146              	.LBB115:
 147              	.LBI115:
 212:ili9341/ili9341.c **** {
 148              		.loc 1 212 20 view .LVU31
 149              	.LBB116:
 214:ili9341/ili9341.c ****     GPIOA->ODR = (GPIOA->ODR & 0xFF00) | (data >> 8);
 150              		.loc 1 214 5 view .LVU32
 151 0072 0022     		movs	r2, #0
 152 0074 4FF40041 		mov	r1, #32768
 153 0078 2046     		mov	r0, r4
 154 007a FFF7FEFF 		bl	HAL_GPIO_WritePin
 155              	.LVL13:
 215:ili9341/ili9341.c ****     WR_IDLE();
 156              		.loc 1 215 5 view .LVU33
 215:ili9341/ili9341.c ****     WR_IDLE();
 157              		.loc 1 215 24 is_stmt 0 view .LVU34
 158 007e EB68     		ldr	r3, [r5, #12]
 215:ili9341/ili9341.c ****     WR_IDLE();
 159              		.loc 1 215 30 view .LVU35
 160 0080 03F47F43 		and	r3, r3, #65280
 215:ili9341/ili9341.c ****     WR_IDLE();
 161              		.loc 1 215 40 view .LVU36
 162 0084 43EA1B23 		orr	r3, r3, fp, lsr #8
 215:ili9341/ili9341.c ****     WR_IDLE();
 163              		.loc 1 215 16 view .LVU37
 164 0088 EB60     		str	r3, [r5, #12]
 216:ili9341/ili9341.c **** 
 165              		.loc 1 216 5 is_stmt 1 view .LVU38
 166 008a 0122     		movs	r2, #1
 167 008c 4FF40041 		mov	r1, #32768
 168 0090 2046     		mov	r0, r4
 169 0092 FFF7FEFF 		bl	HAL_GPIO_WritePin
 170              	.LVL14:
 218:ili9341/ili9341.c ****     GPIOA->ODR = (GPIOA->ODR & 0xFF00) | (data & 0x00FF);
 171              		.loc 1 218 5 view .LVU39
 172 0096 0022     		movs	r2, #0
 173 0098 4FF40041 		mov	r1, #32768
 174 009c 2046     		mov	r0, r4
 175 009e FFF7FEFF 		bl	HAL_GPIO_WritePin
 176              	.LVL15:
ARM GAS  /tmp/cc0CFvsY.s 			page 9


 219:ili9341/ili9341.c ****     WR_IDLE();
 177              		.loc 1 219 5 view .LVU40
 219:ili9341/ili9341.c ****     WR_IDLE();
 178              		.loc 1 219 24 is_stmt 0 view .LVU41
 179 00a2 E868     		ldr	r0, [r5, #12]
 219:ili9341/ili9341.c ****     WR_IDLE();
 180              		.loc 1 219 30 view .LVU42
 181 00a4 00F47F40 		and	r0, r0, #65280
 219:ili9341/ili9341.c ****     WR_IDLE();
 182              		.loc 1 219 48 view .LVU43
 183 00a8 5FFA8BFB 		uxtb	fp, fp
 184              	.LVL16:
 219:ili9341/ili9341.c ****     WR_IDLE();
 185              		.loc 1 219 40 view .LVU44
 186 00ac 40EA0B00 		orr	r0, r0, fp
 219:ili9341/ili9341.c ****     WR_IDLE();
 187              		.loc 1 219 16 view .LVU45
 188 00b0 E860     		str	r0, [r5, #12]
 220:ili9341/ili9341.c **** }
 189              		.loc 1 220 5 is_stmt 1 view .LVU46
 190 00b2 0122     		movs	r2, #1
 191 00b4 4FF40041 		mov	r1, #32768
 192 00b8 2046     		mov	r0, r4
 193 00ba FFF7FEFF 		bl	HAL_GPIO_WritePin
 194              	.LVL17:
 220:ili9341/ili9341.c **** }
 195              		.loc 1 220 5 is_stmt 0 view .LVU47
 196              	.LBE116:
 197              	.LBE115:
 198              	.LBE123:
 233:ili9341/ili9341.c ****     transmition_close();
 199              		.loc 1 233 5 is_stmt 1 view .LVU48
 200              	.LBB124:
 201              	.LBB117:
 202              	.LBI117:
 212:ili9341/ili9341.c **** {
 203              		.loc 1 212 20 view .LVU49
 204              	.LBB118:
 214:ili9341/ili9341.c ****     GPIOA->ODR = (GPIOA->ODR & 0xFF00) | (data >> 8);
 205              		.loc 1 214 5 view .LVU50
 206 00be 0022     		movs	r2, #0
 207 00c0 4FF40041 		mov	r1, #32768
 208 00c4 2046     		mov	r0, r4
 209 00c6 FFF7FEFF 		bl	HAL_GPIO_WritePin
 210              	.LVL18:
 215:ili9341/ili9341.c ****     WR_IDLE();
 211              		.loc 1 215 5 view .LVU51
 215:ili9341/ili9341.c ****     WR_IDLE();
 212              		.loc 1 215 24 is_stmt 0 view .LVU52
 213 00ca EB68     		ldr	r3, [r5, #12]
 215:ili9341/ili9341.c ****     WR_IDLE();
 214              		.loc 1 215 30 view .LVU53
 215 00cc 03F47F43 		and	r3, r3, #65280
 215:ili9341/ili9341.c ****     WR_IDLE();
 216              		.loc 1 215 40 view .LVU54
 217 00d0 43EA1A23 		orr	r3, r3, r10, lsr #8
 215:ili9341/ili9341.c ****     WR_IDLE();
ARM GAS  /tmp/cc0CFvsY.s 			page 10


 218              		.loc 1 215 16 view .LVU55
 219 00d4 EB60     		str	r3, [r5, #12]
 216:ili9341/ili9341.c **** 
 220              		.loc 1 216 5 is_stmt 1 view .LVU56
 221 00d6 0122     		movs	r2, #1
 222 00d8 4FF40041 		mov	r1, #32768
 223 00dc 2046     		mov	r0, r4
 224 00de FFF7FEFF 		bl	HAL_GPIO_WritePin
 225              	.LVL19:
 218:ili9341/ili9341.c ****     GPIOA->ODR = (GPIOA->ODR & 0xFF00) | (data & 0x00FF);
 226              		.loc 1 218 5 view .LVU57
 227 00e2 0022     		movs	r2, #0
 228 00e4 4FF40041 		mov	r1, #32768
 229 00e8 2046     		mov	r0, r4
 230 00ea FFF7FEFF 		bl	HAL_GPIO_WritePin
 231              	.LVL20:
 219:ili9341/ili9341.c ****     WR_IDLE();
 232              		.loc 1 219 5 view .LVU58
 219:ili9341/ili9341.c ****     WR_IDLE();
 233              		.loc 1 219 24 is_stmt 0 view .LVU59
 234 00ee EA68     		ldr	r2, [r5, #12]
 219:ili9341/ili9341.c ****     WR_IDLE();
 235              		.loc 1 219 30 view .LVU60
 236 00f0 02F47F42 		and	r2, r2, #65280
 219:ili9341/ili9341.c ****     WR_IDLE();
 237              		.loc 1 219 48 view .LVU61
 238 00f4 5FFA8AFA 		uxtb	r10, r10
 239              	.LVL21:
 219:ili9341/ili9341.c ****     WR_IDLE();
 240              		.loc 1 219 40 view .LVU62
 241 00f8 42EA0A02 		orr	r2, r2, r10
 219:ili9341/ili9341.c ****     WR_IDLE();
 242              		.loc 1 219 16 view .LVU63
 243 00fc EA60     		str	r2, [r5, #12]
 220:ili9341/ili9341.c **** }
 244              		.loc 1 220 5 is_stmt 1 view .LVU64
 245 00fe 0122     		movs	r2, #1
 246 0100 4FF40041 		mov	r1, #32768
 247 0104 2046     		mov	r0, r4
 248 0106 FFF7FEFF 		bl	HAL_GPIO_WritePin
 249              	.LVL22:
 220:ili9341/ili9341.c **** }
 250              		.loc 1 220 5 is_stmt 0 view .LVU65
 251              	.LBE118:
 252              	.LBE117:
 253              	.LBE124:
 234:ili9341/ili9341.c **** }
 254              		.loc 1 234 5 is_stmt 1 view .LVU66
 255              	.LBB125:
 256              	.LBB119:
 257              	.LBI119:
 223:ili9341/ili9341.c **** {
 258              		.loc 1 223 20 view .LVU67
 259              	.LBB120:
 225:ili9341/ili9341.c **** }
 260              		.loc 1 225 5 view .LVU68
 261 010a 0122     		movs	r2, #1
ARM GAS  /tmp/cc0CFvsY.s 			page 11


 262 010c 4FF40051 		mov	r1, #8192
 263 0110 2046     		mov	r0, r4
 264 0112 FFF7FEFF 		bl	HAL_GPIO_WritePin
 265              	.LVL23:
 225:ili9341/ili9341.c **** }
 266              		.loc 1 225 5 is_stmt 0 view .LVU69
 267              	.LBE120:
 268              	.LBE119:
 269              	.LBE125:
 252:ili9341/ili9341.c ****     set_row(y1, y2);
 270              		.loc 1 252 5 is_stmt 1 view .LVU70
 271              	.LBB126:
 272              	.LBI126:
 237:ili9341/ili9341.c **** {
 273              		.loc 1 237 20 view .LVU71
 274              	.LBE126:
 239:ili9341/ili9341.c ****     send_cmd(LCD_PAGE_ADDR);
 275              		.loc 1 239 5 view .LVU72
 276              	.LBB137:
 277              	.LBB127:
 278              	.LBI127:
 179:ili9341/ili9341.c **** {
 279              		.loc 1 179 20 view .LVU73
 280              	.LBB128:
 181:ili9341/ili9341.c **** }
 281              		.loc 1 181 5 view .LVU74
 282 0116 0022     		movs	r2, #0
 283 0118 4FF40051 		mov	r1, #8192
 284 011c 2046     		mov	r0, r4
 285 011e FFF7FEFF 		bl	HAL_GPIO_WritePin
 286              	.LVL24:
 287              	.LBE128:
 288              	.LBE127:
 289              	.LBE137:
 240:ili9341/ili9341.c ****     send_data16(start);
 290              		.loc 1 240 5 view .LVU75
 291              	.LBB138:
 292              	.LBB129:
 293              	.LBI129:
 157:ili9341/ili9341.c **** {
 294              		.loc 1 157 20 view .LVU76
 295              	.LBB130:
 159:ili9341/ili9341.c ****     WR_ACTIVE();
 296              		.loc 1 159 5 view .LVU77
 297 0122 0022     		movs	r2, #0
 298 0124 4FF48041 		mov	r1, #16384
 299 0128 2046     		mov	r0, r4
 300 012a FFF7FEFF 		bl	HAL_GPIO_WritePin
 301              	.LVL25:
 160:ili9341/ili9341.c ****     GPIOA->ODR = (GPIOA->ODR & 0xFF00) | cmd;
 302              		.loc 1 160 5 view .LVU78
 303 012e 0022     		movs	r2, #0
 304 0130 4FF40041 		mov	r1, #32768
 305 0134 2046     		mov	r0, r4
 306 0136 FFF7FEFF 		bl	HAL_GPIO_WritePin
 307              	.LVL26:
 161:ili9341/ili9341.c ****     WR_PAUSE();
ARM GAS  /tmp/cc0CFvsY.s 			page 12


 308              		.loc 1 161 5 view .LVU79
 161:ili9341/ili9341.c ****     WR_PAUSE();
 309              		.loc 1 161 24 is_stmt 0 view .LVU80
 310 013a EB68     		ldr	r3, [r5, #12]
 161:ili9341/ili9341.c ****     WR_PAUSE();
 311              		.loc 1 161 30 view .LVU81
 312 013c 03F47F43 		and	r3, r3, #65280
 161:ili9341/ili9341.c ****     WR_PAUSE();
 313              		.loc 1 161 40 view .LVU82
 314 0140 43F02B03 		orr	r3, r3, #43
 161:ili9341/ili9341.c ****     WR_PAUSE();
 315              		.loc 1 161 16 view .LVU83
 316 0144 EB60     		str	r3, [r5, #12]
 162:ili9341/ili9341.c ****     WR_IDLE();
 317              		.loc 1 162 15 is_stmt 1 view .LVU84
 163:ili9341/ili9341.c ****     RS_DATA();
 318              		.loc 1 163 5 view .LVU85
 319 0146 0122     		movs	r2, #1
 320 0148 4FF40041 		mov	r1, #32768
 321 014c 2046     		mov	r0, r4
 322 014e FFF7FEFF 		bl	HAL_GPIO_WritePin
 323              	.LVL27:
 164:ili9341/ili9341.c **** }
 324              		.loc 1 164 5 view .LVU86
 325 0152 0122     		movs	r2, #1
 326 0154 4FF48041 		mov	r1, #16384
 327 0158 2046     		mov	r0, r4
 328 015a FFF7FEFF 		bl	HAL_GPIO_WritePin
 329              	.LVL28:
 164:ili9341/ili9341.c **** }
 330              		.loc 1 164 5 is_stmt 0 view .LVU87
 331              	.LBE130:
 332              	.LBE129:
 333              	.LBE138:
 241:ili9341/ili9341.c ****     send_data16(end);
 334              		.loc 1 241 5 is_stmt 1 view .LVU88
 335              	.LBB139:
 336              	.LBB131:
 337              	.LBI131:
 212:ili9341/ili9341.c **** {
 338              		.loc 1 212 20 view .LVU89
 339              	.LBB132:
 214:ili9341/ili9341.c ****     GPIOA->ODR = (GPIOA->ODR & 0xFF00) | (data >> 8);
 340              		.loc 1 214 5 view .LVU90
 341 015e 0022     		movs	r2, #0
 342 0160 4FF40041 		mov	r1, #32768
 343 0164 2046     		mov	r0, r4
 344 0166 FFF7FEFF 		bl	HAL_GPIO_WritePin
 345              	.LVL29:
 215:ili9341/ili9341.c ****     WR_IDLE();
 346              		.loc 1 215 5 view .LVU91
 215:ili9341/ili9341.c ****     WR_IDLE();
 347              		.loc 1 215 24 is_stmt 0 view .LVU92
 348 016a EB68     		ldr	r3, [r5, #12]
 215:ili9341/ili9341.c ****     WR_IDLE();
 349              		.loc 1 215 30 view .LVU93
 350 016c 03F47F43 		and	r3, r3, #65280
ARM GAS  /tmp/cc0CFvsY.s 			page 13


 215:ili9341/ili9341.c ****     WR_IDLE();
 351              		.loc 1 215 40 view .LVU94
 352 0170 43EA1923 		orr	r3, r3, r9, lsr #8
 215:ili9341/ili9341.c ****     WR_IDLE();
 353              		.loc 1 215 16 view .LVU95
 354 0174 EB60     		str	r3, [r5, #12]
 216:ili9341/ili9341.c **** 
 355              		.loc 1 216 5 is_stmt 1 view .LVU96
 356 0176 0122     		movs	r2, #1
 357 0178 4FF40041 		mov	r1, #32768
 358 017c 2046     		mov	r0, r4
 359 017e FFF7FEFF 		bl	HAL_GPIO_WritePin
 360              	.LVL30:
 218:ili9341/ili9341.c ****     GPIOA->ODR = (GPIOA->ODR & 0xFF00) | (data & 0x00FF);
 361              		.loc 1 218 5 view .LVU97
 362 0182 0022     		movs	r2, #0
 363 0184 4FF40041 		mov	r1, #32768
 364 0188 2046     		mov	r0, r4
 365 018a FFF7FEFF 		bl	HAL_GPIO_WritePin
 366              	.LVL31:
 219:ili9341/ili9341.c ****     WR_IDLE();
 367              		.loc 1 219 5 view .LVU98
 219:ili9341/ili9341.c ****     WR_IDLE();
 368              		.loc 1 219 24 is_stmt 0 view .LVU99
 369 018e E968     		ldr	r1, [r5, #12]
 219:ili9341/ili9341.c ****     WR_IDLE();
 370              		.loc 1 219 30 view .LVU100
 371 0190 01F47F41 		and	r1, r1, #65280
 219:ili9341/ili9341.c ****     WR_IDLE();
 372              		.loc 1 219 48 view .LVU101
 373 0194 5FFA89F9 		uxtb	r9, r9
 374              	.LVL32:
 219:ili9341/ili9341.c ****     WR_IDLE();
 375              		.loc 1 219 40 view .LVU102
 376 0198 41EA0901 		orr	r1, r1, r9
 219:ili9341/ili9341.c ****     WR_IDLE();
 377              		.loc 1 219 16 view .LVU103
 378 019c E960     		str	r1, [r5, #12]
 220:ili9341/ili9341.c **** }
 379              		.loc 1 220 5 is_stmt 1 view .LVU104
 380 019e 0122     		movs	r2, #1
 381 01a0 4FF40041 		mov	r1, #32768
 382 01a4 2046     		mov	r0, r4
 383 01a6 FFF7FEFF 		bl	HAL_GPIO_WritePin
 384              	.LVL33:
 220:ili9341/ili9341.c **** }
 385              		.loc 1 220 5 is_stmt 0 view .LVU105
 386              	.LBE132:
 387              	.LBE131:
 388              	.LBE139:
 242:ili9341/ili9341.c ****     transmition_close();
 389              		.loc 1 242 5 is_stmt 1 view .LVU106
 390              	.LBB140:
 391              	.LBB133:
 392              	.LBI133:
 212:ili9341/ili9341.c **** {
 393              		.loc 1 212 20 view .LVU107
ARM GAS  /tmp/cc0CFvsY.s 			page 14


 394              	.LBB134:
 214:ili9341/ili9341.c ****     GPIOA->ODR = (GPIOA->ODR & 0xFF00) | (data >> 8);
 395              		.loc 1 214 5 view .LVU108
 396 01aa 0022     		movs	r2, #0
 397 01ac 4FF40041 		mov	r1, #32768
 398 01b0 2046     		mov	r0, r4
 399 01b2 FFF7FEFF 		bl	HAL_GPIO_WritePin
 400              	.LVL34:
 215:ili9341/ili9341.c ****     WR_IDLE();
 401              		.loc 1 215 5 view .LVU109
 215:ili9341/ili9341.c ****     WR_IDLE();
 402              		.loc 1 215 24 is_stmt 0 view .LVU110
 403 01b6 EB68     		ldr	r3, [r5, #12]
 215:ili9341/ili9341.c ****     WR_IDLE();
 404              		.loc 1 215 30 view .LVU111
 405 01b8 03F47F43 		and	r3, r3, #65280
 215:ili9341/ili9341.c ****     WR_IDLE();
 406              		.loc 1 215 40 view .LVU112
 407 01bc 43EA1823 		orr	r3, r3, r8, lsr #8
 215:ili9341/ili9341.c ****     WR_IDLE();
 408              		.loc 1 215 16 view .LVU113
 409 01c0 EB60     		str	r3, [r5, #12]
 216:ili9341/ili9341.c **** 
 410              		.loc 1 216 5 is_stmt 1 view .LVU114
 411 01c2 0122     		movs	r2, #1
 412 01c4 4FF40041 		mov	r1, #32768
 413 01c8 2046     		mov	r0, r4
 414 01ca FFF7FEFF 		bl	HAL_GPIO_WritePin
 415              	.LVL35:
 218:ili9341/ili9341.c ****     GPIOA->ODR = (GPIOA->ODR & 0xFF00) | (data & 0x00FF);
 416              		.loc 1 218 5 view .LVU115
 417 01ce 0022     		movs	r2, #0
 418 01d0 4FF40041 		mov	r1, #32768
 419 01d4 2046     		mov	r0, r4
 420 01d6 FFF7FEFF 		bl	HAL_GPIO_WritePin
 421              	.LVL36:
 219:ili9341/ili9341.c ****     WR_IDLE();
 422              		.loc 1 219 5 view .LVU116
 219:ili9341/ili9341.c ****     WR_IDLE();
 423              		.loc 1 219 24 is_stmt 0 view .LVU117
 424 01da EB68     		ldr	r3, [r5, #12]
 219:ili9341/ili9341.c ****     WR_IDLE();
 425              		.loc 1 219 30 view .LVU118
 426 01dc 03F47F43 		and	r3, r3, #65280
 219:ili9341/ili9341.c ****     WR_IDLE();
 427              		.loc 1 219 48 view .LVU119
 428 01e0 5FFA88F8 		uxtb	r8, r8
 429              	.LVL37:
 219:ili9341/ili9341.c ****     WR_IDLE();
 430              		.loc 1 219 40 view .LVU120
 431 01e4 43EA0803 		orr	r3, r3, r8
 219:ili9341/ili9341.c ****     WR_IDLE();
 432              		.loc 1 219 16 view .LVU121
 433 01e8 EB60     		str	r3, [r5, #12]
 220:ili9341/ili9341.c **** }
 434              		.loc 1 220 5 is_stmt 1 view .LVU122
 435 01ea 0122     		movs	r2, #1
ARM GAS  /tmp/cc0CFvsY.s 			page 15


 436 01ec 4FF40041 		mov	r1, #32768
 437 01f0 2046     		mov	r0, r4
 438 01f2 FFF7FEFF 		bl	HAL_GPIO_WritePin
 439              	.LVL38:
 220:ili9341/ili9341.c **** }
 440              		.loc 1 220 5 is_stmt 0 view .LVU123
 441              	.LBE134:
 442              	.LBE133:
 443              	.LBE140:
 243:ili9341/ili9341.c **** }
 444              		.loc 1 243 5 is_stmt 1 view .LVU124
 445              	.LBB141:
 446              	.LBB135:
 447              	.LBI135:
 223:ili9341/ili9341.c **** {
 448              		.loc 1 223 20 view .LVU125
 449              	.LBB136:
 225:ili9341/ili9341.c **** }
 450              		.loc 1 225 5 view .LVU126
 451 01f6 0122     		movs	r2, #1
 452 01f8 4FF40051 		mov	r1, #8192
 453 01fc 2046     		mov	r0, r4
 454 01fe FFF7FEFF 		bl	HAL_GPIO_WritePin
 455              	.LVL39:
 225:ili9341/ili9341.c **** }
 456              		.loc 1 225 5 is_stmt 0 view .LVU127
 457              	.LBE136:
 458              	.LBE135:
 459              	.LBE141:
 253:ili9341/ili9341.c **** 
 254:ili9341/ili9341.c ****     transmition_open();
 460              		.loc 1 254 5 is_stmt 1 view .LVU128
 461              	.LBB142:
 462              	.LBI142:
 179:ili9341/ili9341.c **** {
 463              		.loc 1 179 20 view .LVU129
 464              	.LBB143:
 181:ili9341/ili9341.c **** }
 465              		.loc 1 181 5 view .LVU130
 466 0202 0022     		movs	r2, #0
 467 0204 4FF40051 		mov	r1, #8192
 468 0208 2046     		mov	r0, r4
 469 020a FFF7FEFF 		bl	HAL_GPIO_WritePin
 470              	.LVL40:
 471              	.LBE143:
 472              	.LBE142:
 255:ili9341/ili9341.c ****     send_cmd(LCD_GRAM);
 473              		.loc 1 255 5 view .LVU131
 474              	.LBB144:
 475              	.LBI144:
 157:ili9341/ili9341.c **** {
 476              		.loc 1 157 20 view .LVU132
 477              	.LBB145:
 159:ili9341/ili9341.c ****     WR_ACTIVE();
 478              		.loc 1 159 5 view .LVU133
 479 020e 0022     		movs	r2, #0
 480 0210 4FF48041 		mov	r1, #16384
ARM GAS  /tmp/cc0CFvsY.s 			page 16


 481 0214 2046     		mov	r0, r4
 482 0216 FFF7FEFF 		bl	HAL_GPIO_WritePin
 483              	.LVL41:
 160:ili9341/ili9341.c ****     GPIOA->ODR = (GPIOA->ODR & 0xFF00) | cmd;
 484              		.loc 1 160 5 view .LVU134
 485 021a 0022     		movs	r2, #0
 486 021c 4FF40041 		mov	r1, #32768
 487 0220 2046     		mov	r0, r4
 488 0222 FFF7FEFF 		bl	HAL_GPIO_WritePin
 489              	.LVL42:
 161:ili9341/ili9341.c ****     WR_PAUSE();
 490              		.loc 1 161 5 view .LVU135
 161:ili9341/ili9341.c ****     WR_PAUSE();
 491              		.loc 1 161 24 is_stmt 0 view .LVU136
 492 0226 EB68     		ldr	r3, [r5, #12]
 161:ili9341/ili9341.c ****     WR_PAUSE();
 493              		.loc 1 161 30 view .LVU137
 494 0228 03F47F43 		and	r3, r3, #65280
 161:ili9341/ili9341.c ****     WR_PAUSE();
 495              		.loc 1 161 40 view .LVU138
 496 022c 43F02C03 		orr	r3, r3, #44
 161:ili9341/ili9341.c ****     WR_PAUSE();
 497              		.loc 1 161 16 view .LVU139
 498 0230 EB60     		str	r3, [r5, #12]
 162:ili9341/ili9341.c ****     WR_IDLE();
 499              		.loc 1 162 15 is_stmt 1 view .LVU140
 163:ili9341/ili9341.c ****     RS_DATA();
 500              		.loc 1 163 5 view .LVU141
 501 0232 0122     		movs	r2, #1
 502 0234 4FF40041 		mov	r1, #32768
 503 0238 2046     		mov	r0, r4
 504 023a FFF7FEFF 		bl	HAL_GPIO_WritePin
 505              	.LVL43:
 164:ili9341/ili9341.c **** }
 506              		.loc 1 164 5 view .LVU142
 507 023e 0122     		movs	r2, #1
 508 0240 4FF48041 		mov	r1, #16384
 509 0244 2046     		mov	r0, r4
 510 0246 FFF7FEFF 		bl	HAL_GPIO_WritePin
 511              	.LVL44:
 164:ili9341/ili9341.c **** }
 512              		.loc 1 164 5 is_stmt 0 view .LVU143
 513              	.LBE145:
 514              	.LBE144:
 256:ili9341/ili9341.c **** 
 257:ili9341/ili9341.c ****     uint32_t xy = ((uint32_t)x) * ((uint32_t)y);
 515              		.loc 1 257 5 is_stmt 1 view .LVU144
 516              		.loc 1 257 14 is_stmt 0 view .LVU145
 517 024a 019B     		ldr	r3, [sp, #4]
 518 024c 06FB03F6 		mul	r6, r6, r3
 519              	.LVL45:
 258:ili9341/ili9341.c ****     for(uint32_t i=0; i < xy; i++)
 520              		.loc 1 258 5 is_stmt 1 view .LVU146
 521              	.LBB146:
 522              		.loc 1 258 9 view .LVU147
 523              		.loc 1 258 18 is_stmt 0 view .LVU148
 524 0250 4FF00008 		mov	r8, #0
ARM GAS  /tmp/cc0CFvsY.s 			page 17


 525              	.LVL46:
 526              	.L2:
 527              		.loc 1 258 23 is_stmt 1 discriminator 1 view .LVU149
 528              		.loc 1 258 5 is_stmt 0 discriminator 1 view .LVU150
 529 0254 B045     		cmp	r8, r6
 530 0256 28D2     		bcs	.L5
 259:ili9341/ili9341.c ****     {
 260:ili9341/ili9341.c ****         send_data16(color);
 531              		.loc 1 260 9 is_stmt 1 view .LVU151
 532              	.LVL47:
 533              	.LBB147:
 534              	.LBI147:
 212:ili9341/ili9341.c **** {
 535              		.loc 1 212 20 view .LVU152
 536              	.LBB148:
 214:ili9341/ili9341.c ****     GPIOA->ODR = (GPIOA->ODR & 0xFF00) | (data >> 8);
 537              		.loc 1 214 5 view .LVU153
 538 0258 184C     		ldr	r4, .L6
 539 025a 0022     		movs	r2, #0
 540 025c 4FF40041 		mov	r1, #32768
 541 0260 2046     		mov	r0, r4
 542 0262 FFF7FEFF 		bl	HAL_GPIO_WritePin
 543              	.LVL48:
 215:ili9341/ili9341.c ****     WR_IDLE();
 544              		.loc 1 215 5 view .LVU154
 215:ili9341/ili9341.c ****     WR_IDLE();
 545              		.loc 1 215 24 is_stmt 0 view .LVU155
 546 0266 164D     		ldr	r5, .L6+4
 547 0268 EB68     		ldr	r3, [r5, #12]
 215:ili9341/ili9341.c ****     WR_IDLE();
 548              		.loc 1 215 30 view .LVU156
 549 026a 03F47F43 		and	r3, r3, #65280
 215:ili9341/ili9341.c ****     WR_IDLE();
 550              		.loc 1 215 40 view .LVU157
 551 026e 43EA1723 		orr	r3, r3, r7, lsr #8
 215:ili9341/ili9341.c ****     WR_IDLE();
 552              		.loc 1 215 16 view .LVU158
 553 0272 EB60     		str	r3, [r5, #12]
 216:ili9341/ili9341.c **** 
 554              		.loc 1 216 5 is_stmt 1 view .LVU159
 555 0274 0122     		movs	r2, #1
 556 0276 4FF40041 		mov	r1, #32768
 557 027a 2046     		mov	r0, r4
 558 027c FFF7FEFF 		bl	HAL_GPIO_WritePin
 559              	.LVL49:
 218:ili9341/ili9341.c ****     GPIOA->ODR = (GPIOA->ODR & 0xFF00) | (data & 0x00FF);
 560              		.loc 1 218 5 view .LVU160
 561 0280 0022     		movs	r2, #0
 562 0282 4FF40041 		mov	r1, #32768
 563 0286 2046     		mov	r0, r4
 564 0288 FFF7FEFF 		bl	HAL_GPIO_WritePin
 565              	.LVL50:
 219:ili9341/ili9341.c ****     WR_IDLE();
 566              		.loc 1 219 5 view .LVU161
 219:ili9341/ili9341.c ****     WR_IDLE();
 567              		.loc 1 219 24 is_stmt 0 view .LVU162
 568 028c EB68     		ldr	r3, [r5, #12]
ARM GAS  /tmp/cc0CFvsY.s 			page 18


 219:ili9341/ili9341.c ****     WR_IDLE();
 569              		.loc 1 219 30 view .LVU163
 570 028e 03F47F43 		and	r3, r3, #65280
 219:ili9341/ili9341.c ****     WR_IDLE();
 571              		.loc 1 219 48 view .LVU164
 572 0292 FAB2     		uxtb	r2, r7
 219:ili9341/ili9341.c ****     WR_IDLE();
 573              		.loc 1 219 40 view .LVU165
 574 0294 1343     		orrs	r3, r3, r2
 219:ili9341/ili9341.c ****     WR_IDLE();
 575              		.loc 1 219 16 view .LVU166
 576 0296 EB60     		str	r3, [r5, #12]
 220:ili9341/ili9341.c **** }
 577              		.loc 1 220 5 is_stmt 1 view .LVU167
 578 0298 0122     		movs	r2, #1
 579 029a 4FF40041 		mov	r1, #32768
 580 029e 2046     		mov	r0, r4
 581 02a0 FFF7FEFF 		bl	HAL_GPIO_WritePin
 582              	.LVL51:
 220:ili9341/ili9341.c **** }
 583              		.loc 1 220 5 is_stmt 0 view .LVU168
 584              	.LBE148:
 585              	.LBE147:
 258:ili9341/ili9341.c ****     {
 586              		.loc 1 258 31 is_stmt 1 view .LVU169
 258:ili9341/ili9341.c ****     {
 587              		.loc 1 258 32 is_stmt 0 view .LVU170
 588 02a4 08F10108 		add	r8, r8, #1
 589              	.LVL52:
 258:ili9341/ili9341.c ****     {
 590              		.loc 1 258 32 view .LVU171
 591 02a8 D4E7     		b	.L2
 592              	.L5:
 258:ili9341/ili9341.c ****     {
 593              		.loc 1 258 32 view .LVU172
 594              	.LBE146:
 261:ili9341/ili9341.c ****     }
 262:ili9341/ili9341.c ****     transmition_close();
 595              		.loc 1 262 5 is_stmt 1 view .LVU173
 596              	.LBB149:
 597              	.LBI149:
 223:ili9341/ili9341.c **** {
 598              		.loc 1 223 20 view .LVU174
 599              	.LBB150:
 225:ili9341/ili9341.c **** }
 600              		.loc 1 225 5 view .LVU175
 601 02aa 0122     		movs	r2, #1
 602 02ac 4FF40051 		mov	r1, #8192
 603 02b0 0248     		ldr	r0, .L6
 604 02b2 FFF7FEFF 		bl	HAL_GPIO_WritePin
 605              	.LVL53:
 606              	.LBE150:
 607              	.LBE149:
 263:ili9341/ili9341.c **** }
 608              		.loc 1 263 1 is_stmt 0 view .LVU176
 609 02b6 03B0     		add	sp, sp, #12
 610              	.LCFI2:
ARM GAS  /tmp/cc0CFvsY.s 			page 19


 611              		.cfi_def_cfa_offset 36
 612              		@ sp needed
 613 02b8 BDE8F08F 		pop	{r4, r5, r6, r7, r8, r9, r10, fp, pc}
 614              	.LVL54:
 615              	.L7:
 616              		.loc 1 263 1 view .LVU177
 617              		.align	2
 618              	.L6:
 619 02bc 000C0140 		.word	1073810432
 620 02c0 00080140 		.word	1073809408
 621              		.cfi_endproc
 622              	.LFE78:
 624              		.section	.text.ili9341_gpio_init,"ax",%progbits
 625              		.align	1
 626              		.global	ili9341_gpio_init
 627              		.syntax unified
 628              		.thumb
 629              		.thumb_func
 630              		.fpu softvfp
 632              	ili9341_gpio_init:
 633              	.LFB79:
 264:ili9341/ili9341.c **** 
 265:ili9341/ili9341.c **** void ili9341_gpio_init(void)
 266:ili9341/ili9341.c **** {
 634              		.loc 1 266 1 is_stmt 1 view -0
 635              		.cfi_startproc
 636              		@ args = 0, pretend = 0, frame = 16
 637              		@ frame_needed = 0, uses_anonymous_args = 0
 638 0000 2DE9F041 		push	{r4, r5, r6, r7, r8, lr}
 639              	.LCFI3:
 640              		.cfi_def_cfa_offset 24
 641              		.cfi_offset 4, -24
 642              		.cfi_offset 5, -20
 643              		.cfi_offset 6, -16
 644              		.cfi_offset 7, -12
 645              		.cfi_offset 8, -8
 646              		.cfi_offset 14, -4
 647 0004 84B0     		sub	sp, sp, #16
 648              	.LCFI4:
 649              		.cfi_def_cfa_offset 40
 267:ili9341/ili9341.c ****     GPIO_InitTypeDef GPIO_InitStruct;
 650              		.loc 1 267 5 view .LVU179
 268:ili9341/ili9341.c ****     /*Configure GPIO pin Output Level */
 269:ili9341/ili9341.c ****     HAL_GPIO_WritePin(GPIOA, LCD_D0_Pin|LCD_D1_Pin|LCD_D2_Pin|LCD_D3_Pin 
 651              		.loc 1 269 5 view .LVU180
 652 0006 DFF85080 		ldr	r8, .L10+4
 653 000a 0122     		movs	r2, #1
 654 000c FF21     		movs	r1, #255
 655 000e 4046     		mov	r0, r8
 656 0010 FFF7FEFF 		bl	HAL_GPIO_WritePin
 657              	.LVL55:
 270:ili9341/ili9341.c ****                             |LCD_D4_Pin|LCD_D5_Pin|LCD_D6_Pin|LCD_D7_Pin, GPIO_PIN_SET);
 271:ili9341/ili9341.c **** 
 272:ili9341/ili9341.c ****     /*Configure GPIO pin Output Level */
 273:ili9341/ili9341.c ****     HAL_GPIO_WritePin(GPIOB, LCD_RD_Pin|LCD_RST_Pin|LCD_CS_Pin|LCD_RS_Pin 
 658              		.loc 1 273 5 view .LVU181
 659 0014 0F4C     		ldr	r4, .L10
ARM GAS  /tmp/cc0CFvsY.s 			page 20


 660 0016 0122     		movs	r2, #1
 661 0018 4FF47841 		mov	r1, #63488
 662 001c 2046     		mov	r0, r4
 663 001e FFF7FEFF 		bl	HAL_GPIO_WritePin
 664              	.LVL56:
 274:ili9341/ili9341.c ****                             |LCD_WR_Pin, GPIO_PIN_SET);
 275:ili9341/ili9341.c **** 
 276:ili9341/ili9341.c ****     /*Configure GPIO pins : LCD_D0_Pin LCD_D1_Pin LCD_D2_Pin LCD_D3_Pin 
 277:ili9341/ili9341.c ****                             LCD_D4_Pin LCD_D5_Pin LCD_D6_Pin LCD_D7_Pin */
 278:ili9341/ili9341.c ****     GPIO_InitStruct.Pin = LCD_D0_Pin|LCD_D1_Pin|LCD_D2_Pin|LCD_D3_Pin 
 665              		.loc 1 278 5 view .LVU182
 666              		.loc 1 278 25 is_stmt 0 view .LVU183
 667 0022 FF23     		movs	r3, #255
 668 0024 0093     		str	r3, [sp]
 279:ili9341/ili9341.c ****                             |LCD_D4_Pin|LCD_D5_Pin|LCD_D6_Pin|LCD_D7_Pin;
 280:ili9341/ili9341.c ****     GPIO_InitStruct.Mode = GPIO_MODE_OUTPUT_PP;
 669              		.loc 1 280 5 is_stmt 1 view .LVU184
 670              		.loc 1 280 26 is_stmt 0 view .LVU185
 671 0026 0127     		movs	r7, #1
 672 0028 0197     		str	r7, [sp, #4]
 281:ili9341/ili9341.c ****     GPIO_InitStruct.Pull = GPIO_NOPULL;
 673              		.loc 1 281 5 is_stmt 1 view .LVU186
 674              		.loc 1 281 26 is_stmt 0 view .LVU187
 675 002a 0026     		movs	r6, #0
 676 002c 0296     		str	r6, [sp, #8]
 282:ili9341/ili9341.c ****     GPIO_InitStruct.Speed = GPIO_SPEED_FREQ_LOW;
 677              		.loc 1 282 5 is_stmt 1 view .LVU188
 678              		.loc 1 282 27 is_stmt 0 view .LVU189
 679 002e 0225     		movs	r5, #2
 680 0030 0395     		str	r5, [sp, #12]
 283:ili9341/ili9341.c ****     HAL_GPIO_Init(GPIOA, &GPIO_InitStruct);
 681              		.loc 1 283 5 is_stmt 1 view .LVU190
 682 0032 6946     		mov	r1, sp
 683 0034 4046     		mov	r0, r8
 684 0036 FFF7FEFF 		bl	HAL_GPIO_Init
 685              	.LVL57:
 284:ili9341/ili9341.c **** 
 285:ili9341/ili9341.c ****     /*Configure GPIO pins : LCD_RD_Pin LCD_RST_Pin LCD_CS_Pin LCD_RS_Pin 
 286:ili9341/ili9341.c ****                             LCD_WR_Pin */
 287:ili9341/ili9341.c ****     GPIO_InitStruct.Pin = LCD_RD_Pin|LCD_RST_Pin|LCD_CS_Pin|LCD_RS_Pin 
 686              		.loc 1 287 5 view .LVU191
 687              		.loc 1 287 25 is_stmt 0 view .LVU192
 688 003a 4FF47843 		mov	r3, #63488
 689 003e 0093     		str	r3, [sp]
 288:ili9341/ili9341.c ****                             |LCD_WR_Pin;
 289:ili9341/ili9341.c ****     GPIO_InitStruct.Mode = GPIO_MODE_OUTPUT_PP;
 690              		.loc 1 289 5 is_stmt 1 view .LVU193
 691              		.loc 1 289 26 is_stmt 0 view .LVU194
 692 0040 0197     		str	r7, [sp, #4]
 290:ili9341/ili9341.c ****     GPIO_InitStruct.Pull = GPIO_NOPULL;
 693              		.loc 1 290 5 is_stmt 1 view .LVU195
 694              		.loc 1 290 26 is_stmt 0 view .LVU196
 695 0042 0296     		str	r6, [sp, #8]
 291:ili9341/ili9341.c ****     GPIO_InitStruct.Speed = GPIO_SPEED_FREQ_LOW;
 696              		.loc 1 291 5 is_stmt 1 view .LVU197
 697              		.loc 1 291 27 is_stmt 0 view .LVU198
 698 0044 0395     		str	r5, [sp, #12]
ARM GAS  /tmp/cc0CFvsY.s 			page 21


 292:ili9341/ili9341.c ****     HAL_GPIO_Init(GPIOB, &GPIO_InitStruct);
 699              		.loc 1 292 5 is_stmt 1 view .LVU199
 700 0046 6946     		mov	r1, sp
 701 0048 2046     		mov	r0, r4
 702 004a FFF7FEFF 		bl	HAL_GPIO_Init
 703              	.LVL58:
 293:ili9341/ili9341.c **** }
 704              		.loc 1 293 1 is_stmt 0 view .LVU200
 705 004e 04B0     		add	sp, sp, #16
 706              	.LCFI5:
 707              		.cfi_def_cfa_offset 24
 708              		@ sp needed
 709 0050 BDE8F081 		pop	{r4, r5, r6, r7, r8, pc}
 710              	.L11:
 711              		.align	2
 712              	.L10:
 713 0054 000C0140 		.word	1073810432
 714 0058 00080140 		.word	1073809408
 715              		.cfi_endproc
 716              	.LFE79:
 718              		.section	.text.ili9341_set_orientation,"ax",%progbits
 719              		.align	1
 720              		.global	ili9341_set_orientation
 721              		.syntax unified
 722              		.thumb
 723              		.thumb_func
 724              		.fpu softvfp
 726              	ili9341_set_orientation:
 727              	.LVL59:
 728              	.LFB81:
 294:ili9341/ili9341.c **** /********************************************************************
 295:ili9341/ili9341.c **** *                                 Api                               *
 296:ili9341/ili9341.c **** ********************************************************************/
 297:ili9341/ili9341.c **** void ili9341_init(void)
 298:ili9341/ili9341.c **** {
 299:ili9341/ili9341.c ****     ili9341_gpio_init();
 300:ili9341/ili9341.c **** 
 301:ili9341/ili9341.c ****     CS_IDLE();
 302:ili9341/ili9341.c ****     RESET_IDLE();           //relese reset pin
 303:ili9341/ili9341.c ****     RS_DATA();
 304:ili9341/ili9341.c ****     WR_IDLE();
 305:ili9341/ili9341.c ****     RD_IDLE();
 306:ili9341/ili9341.c ****     set_write_bus();
 307:ili9341/ili9341.c **** 
 308:ili9341/ili9341.c ****     RESET_ACTIVE();
 309:ili9341/ili9341.c ****     RESET_IDLE();
 310:ili9341/ili9341.c **** 
 311:ili9341/ili9341.c ****     transmition_open();
 312:ili9341/ili9341.c ****     send_cmd(LCD_SWRESET);       //Software Reset
 313:ili9341/ili9341.c ****     transmition_close();
 314:ili9341/ili9341.c ****     HAL_Delay(1000);
 315:ili9341/ili9341.c **** 
 316:ili9341/ili9341.c ****     transmition_open();
 317:ili9341/ili9341.c ****     //Power Control 1
 318:ili9341/ili9341.c **** 	//   
 319:ili9341/ili9341.c ****     send_cmd(LCD_POWER1);
 320:ili9341/ili9341.c ****     send_data8(0x25);
ARM GAS  /tmp/cc0CFvsY.s 			page 22


 321:ili9341/ili9341.c **** 
 322:ili9341/ili9341.c **** 
 323:ili9341/ili9341.c **** 	//Power Control 2
 324:ili9341/ili9341.c ****     // step up 
 325:ili9341/ili9341.c ****     send_cmd(LCD_POWER2);
 326:ili9341/ili9341.c ****   	send_data8(0x11);
 327:ili9341/ili9341.c **** 
 328:ili9341/ili9341.c **** 
 329:ili9341/ili9341.c **** 	//VCOM Control 1
 330:ili9341/ili9341.c ****     //   VCOMH - VCOML = 5.2V
 331:ili9341/ili9341.c ****     //VCOMH = 3.825 //VCOML = -1.375
 332:ili9341/ili9341.c ****   	send_cmd(LCD_VCOM1);
 333:ili9341/ili9341.c ****     send_data8(0x2B);
 334:ili9341/ili9341.c ****     send_data8(0x2B);
 335:ili9341/ili9341.c **** 
 336:ili9341/ili9341.c **** 	//VCOM Control 2
 337:ili9341/ili9341.c ****   	// Vcom   ,     offset  
 338:ili9341/ili9341.c ****     //VML=58 VMH=58
 339:ili9341/ili9341.c ****     send_cmd(LCD_VCOM2);
 340:ili9341/ili9341.c ****     send_data8(0x86);
 341:ili9341/ili9341.c **** 
 342:ili9341/ili9341.c **** 	//COLMOD: Pixel Format Set
 343:ili9341/ili9341.c ****   	//    16 
 344:ili9341/ili9341.c ****     send_cmd(LCD_PIXEL_FORMAT);
 345:ili9341/ili9341.c ****     send_data8(0x05);
 346:ili9341/ili9341.c **** 
 347:ili9341/ili9341.c **** 	//Frame Rate Control
 348:ili9341/ili9341.c ****     //Frame Rate 79Hz
 349:ili9341/ili9341.c ****     send_cmd(LCD_FRMCTR1);
 350:ili9341/ili9341.c ****     send_data8(0x00);
 351:ili9341/ili9341.c ****     send_data8(0x18);
 352:ili9341/ili9341.c **** 
 353:ili9341/ili9341.c **** 
 354:ili9341/ili9341.c **** 	//Display Function Control
 355:ili9341/ili9341.c ****     //      
 356:ili9341/ili9341.c ****     send_cmd(LCD_DFC);
 357:ili9341/ili9341.c ****     send_data8(0x0A);
 358:ili9341/ili9341.c ****     send_data8(0x82);
 359:ili9341/ili9341.c ****     send_data8(0x27);
 360:ili9341/ili9341.c **** 
 361:ili9341/ili9341.c **** 	// Sleep Out
 362:ili9341/ili9341.c ****   	send_cmd(LCD_SLEEP_OUT);
 363:ili9341/ili9341.c ****     transmition_close();
 364:ili9341/ili9341.c **** 
 365:ili9341/ili9341.c **** 	HAL_Delay(120);
 366:ili9341/ili9341.c **** 
 367:ili9341/ili9341.c ****     //Memory Access Control
 368:ili9341/ili9341.c **** 	ili9341_set_orientation(ILI9341_ORIENT_270);
 369:ili9341/ili9341.c **** 
 370:ili9341/ili9341.c **** 	//Display On
 371:ili9341/ili9341.c ****     transmition_open();
 372:ili9341/ili9341.c ****   	send_cmd(LCD_DISPLAY_ON);
 373:ili9341/ili9341.c ****     transmition_close();
 374:ili9341/ili9341.c **** 
 375:ili9341/ili9341.c ****     ili9341_fill_area(0, 0, TFT_HEIGHT, TFT_WIGTH, TFT_BLACK);
 376:ili9341/ili9341.c **** }
 377:ili9341/ili9341.c **** 
ARM GAS  /tmp/cc0CFvsY.s 			page 23


 378:ili9341/ili9341.c **** void ili9341_set_orientation(ili9341_orient_t orient)
 379:ili9341/ili9341.c **** {
 729              		.loc 1 379 1 is_stmt 1 view -0
 730              		.cfi_startproc
 731              		@ args = 0, pretend = 0, frame = 0
 732              		@ frame_needed = 0, uses_anonymous_args = 0
 733              		.loc 1 379 1 is_stmt 0 view .LVU202
 734 0000 38B5     		push	{r3, r4, r5, lr}
 735              	.LCFI6:
 736              		.cfi_def_cfa_offset 16
 737              		.cfi_offset 3, -16
 738              		.cfi_offset 4, -12
 739              		.cfi_offset 5, -8
 740              		.cfi_offset 14, -4
 741 0002 0546     		mov	r5, r0
 380:ili9341/ili9341.c ****     transmition_open();
 742              		.loc 1 380 5 is_stmt 1 view .LVU203
 743              	.LBB167:
 744              	.LBI167:
 179:ili9341/ili9341.c **** {
 745              		.loc 1 179 20 view .LVU204
 746              	.LBB168:
 181:ili9341/ili9341.c **** }
 747              		.loc 1 181 5 view .LVU205
 748 0004 4C4C     		ldr	r4, .L21
 749 0006 0022     		movs	r2, #0
 750 0008 4FF40051 		mov	r1, #8192
 751 000c 2046     		mov	r0, r4
 752              	.LVL60:
 181:ili9341/ili9341.c **** }
 753              		.loc 1 181 5 is_stmt 0 view .LVU206
 754 000e FFF7FEFF 		bl	HAL_GPIO_WritePin
 755              	.LVL61:
 756              	.LBE168:
 757              	.LBE167:
 381:ili9341/ili9341.c ****     send_cmd(LCD_MAC);
 758              		.loc 1 381 5 is_stmt 1 view .LVU207
 759              	.LBB169:
 760              	.LBI169:
 157:ili9341/ili9341.c **** {
 761              		.loc 1 157 20 view .LVU208
 762              	.LBB170:
 159:ili9341/ili9341.c ****     WR_ACTIVE();
 763              		.loc 1 159 5 view .LVU209
 764 0012 0022     		movs	r2, #0
 765 0014 4FF48041 		mov	r1, #16384
 766 0018 2046     		mov	r0, r4
 767 001a FFF7FEFF 		bl	HAL_GPIO_WritePin
 768              	.LVL62:
 160:ili9341/ili9341.c ****     GPIOA->ODR = (GPIOA->ODR & 0xFF00) | cmd;
 769              		.loc 1 160 5 view .LVU210
 770 001e 0022     		movs	r2, #0
 771 0020 4FF40041 		mov	r1, #32768
 772 0024 2046     		mov	r0, r4
 773 0026 FFF7FEFF 		bl	HAL_GPIO_WritePin
 774              	.LVL63:
 161:ili9341/ili9341.c ****     WR_PAUSE();
ARM GAS  /tmp/cc0CFvsY.s 			page 24


 775              		.loc 1 161 5 view .LVU211
 161:ili9341/ili9341.c ****     WR_PAUSE();
 776              		.loc 1 161 24 is_stmt 0 view .LVU212
 777 002a 444A     		ldr	r2, .L21+4
 778 002c D368     		ldr	r3, [r2, #12]
 161:ili9341/ili9341.c ****     WR_PAUSE();
 779              		.loc 1 161 30 view .LVU213
 780 002e 03F47F43 		and	r3, r3, #65280
 161:ili9341/ili9341.c ****     WR_PAUSE();
 781              		.loc 1 161 40 view .LVU214
 782 0032 43F03603 		orr	r3, r3, #54
 161:ili9341/ili9341.c ****     WR_PAUSE();
 783              		.loc 1 161 16 view .LVU215
 784 0036 D360     		str	r3, [r2, #12]
 162:ili9341/ili9341.c ****     WR_IDLE();
 785              		.loc 1 162 15 is_stmt 1 view .LVU216
 163:ili9341/ili9341.c ****     RS_DATA();
 786              		.loc 1 163 5 view .LVU217
 787 0038 0122     		movs	r2, #1
 788 003a 4FF40041 		mov	r1, #32768
 789 003e 2046     		mov	r0, r4
 790 0040 FFF7FEFF 		bl	HAL_GPIO_WritePin
 791              	.LVL64:
 164:ili9341/ili9341.c **** }
 792              		.loc 1 164 5 view .LVU218
 793 0044 0122     		movs	r2, #1
 794 0046 4FF48041 		mov	r1, #16384
 795 004a 2046     		mov	r0, r4
 796 004c FFF7FEFF 		bl	HAL_GPIO_WritePin
 797              	.LVL65:
 164:ili9341/ili9341.c **** }
 798              		.loc 1 164 5 is_stmt 0 view .LVU219
 799              	.LBE170:
 800              	.LBE169:
 382:ili9341/ili9341.c **** 
 383:ili9341/ili9341.c ****     switch (orient)
 801              		.loc 1 383 5 is_stmt 1 view .LVU220
 802 0050 032D     		cmp	r5, #3
 803 0052 5DD8     		bhi	.L13
 804 0054 DFE805F0 		tbb	[pc, r5]
 805              	.L15:
 806 0058 02       		.byte	(.L18-.L15)/2
 807 0059 1D       		.byte	(.L17-.L15)/2
 808 005a 32       		.byte	(.L16-.L15)/2
 809 005b 47       		.byte	(.L14-.L15)/2
 810              		.p2align 1
 811              	.L18:
 384:ili9341/ili9341.c ****     {
 385:ili9341/ili9341.c ****         case ILI9341_ORIENT_0:   send_data8(0x48); break;
 812              		.loc 1 385 34 view .LVU221
 813              	.LVL66:
 814              	.LBB171:
 815              	.LBI171:
 195:ili9341/ili9341.c **** {
 816              		.loc 1 195 20 view .LVU222
 817              	.LBB172:
 197:ili9341/ili9341.c ****     GPIOA->ODR = (GPIOA->ODR & 0xFF00) | data;
ARM GAS  /tmp/cc0CFvsY.s 			page 25


 818              		.loc 1 197 5 view .LVU223
 819 005c 364C     		ldr	r4, .L21
 820 005e 0022     		movs	r2, #0
 821 0060 4FF40041 		mov	r1, #32768
 822 0064 2046     		mov	r0, r4
 823 0066 FFF7FEFF 		bl	HAL_GPIO_WritePin
 824              	.LVL67:
 198:ili9341/ili9341.c ****     WR_IDLE();
 825              		.loc 1 198 5 view .LVU224
 198:ili9341/ili9341.c ****     WR_IDLE();
 826              		.loc 1 198 24 is_stmt 0 view .LVU225
 827 006a 344A     		ldr	r2, .L21+4
 828 006c D368     		ldr	r3, [r2, #12]
 198:ili9341/ili9341.c ****     WR_IDLE();
 829              		.loc 1 198 30 view .LVU226
 830 006e 03F47F43 		and	r3, r3, #65280
 198:ili9341/ili9341.c ****     WR_IDLE();
 831              		.loc 1 198 40 view .LVU227
 832 0072 43F04803 		orr	r3, r3, #72
 198:ili9341/ili9341.c ****     WR_IDLE();
 833              		.loc 1 198 16 view .LVU228
 834 0076 D360     		str	r3, [r2, #12]
 199:ili9341/ili9341.c **** }
 835              		.loc 1 199 5 is_stmt 1 view .LVU229
 836 0078 0122     		movs	r2, #1
 837 007a 4FF40041 		mov	r1, #32768
 838 007e 2046     		mov	r0, r4
 839 0080 FFF7FEFF 		bl	HAL_GPIO_WritePin
 840              	.LVL68:
 841              	.L19:
 199:ili9341/ili9341.c **** }
 842              		.loc 1 199 5 is_stmt 0 view .LVU230
 843              	.LBE172:
 844              	.LBE171:
 386:ili9341/ili9341.c ****         case ILI9341_ORIENT_90:  send_data8(0x28); break;
 387:ili9341/ili9341.c ****         case ILI9341_ORIENT_180: send_data8(0x88); break;
 388:ili9341/ili9341.c ****         case ILI9341_ORIENT_270: send_data8(0xE8); break;
 389:ili9341/ili9341.c ****         default: send_data8(LCD_NOP); break;
 390:ili9341/ili9341.c ****     }
 391:ili9341/ili9341.c **** 
 392:ili9341/ili9341.c ****     transmition_close();
 845              		.loc 1 392 5 is_stmt 1 view .LVU231
 846              	.LBB173:
 847              	.LBI173:
 223:ili9341/ili9341.c **** {
 848              		.loc 1 223 20 view .LVU232
 849              	.LBB174:
 225:ili9341/ili9341.c **** }
 850              		.loc 1 225 5 view .LVU233
 851 0084 0122     		movs	r2, #1
 852 0086 4FF40051 		mov	r1, #8192
 853 008a 2B48     		ldr	r0, .L21
 854 008c FFF7FEFF 		bl	HAL_GPIO_WritePin
 855              	.LVL69:
 856              	.LBE174:
 857              	.LBE173:
 393:ili9341/ili9341.c **** }
ARM GAS  /tmp/cc0CFvsY.s 			page 26


 858              		.loc 1 393 1 is_stmt 0 view .LVU234
 859 0090 38BD     		pop	{r3, r4, r5, pc}
 860              	.L17:
 386:ili9341/ili9341.c ****         case ILI9341_ORIENT_180: send_data8(0x88); break;
 861              		.loc 1 386 34 is_stmt 1 view .LVU235
 862              	.LVL70:
 863              	.LBB175:
 864              	.LBI175:
 195:ili9341/ili9341.c **** {
 865              		.loc 1 195 20 view .LVU236
 866              	.LBB176:
 197:ili9341/ili9341.c ****     GPIOA->ODR = (GPIOA->ODR & 0xFF00) | data;
 867              		.loc 1 197 5 view .LVU237
 868 0092 294C     		ldr	r4, .L21
 869 0094 0022     		movs	r2, #0
 870 0096 4FF40041 		mov	r1, #32768
 871 009a 2046     		mov	r0, r4
 872 009c FFF7FEFF 		bl	HAL_GPIO_WritePin
 873              	.LVL71:
 198:ili9341/ili9341.c ****     WR_IDLE();
 874              		.loc 1 198 5 view .LVU238
 198:ili9341/ili9341.c ****     WR_IDLE();
 875              		.loc 1 198 24 is_stmt 0 view .LVU239
 876 00a0 264A     		ldr	r2, .L21+4
 877 00a2 D368     		ldr	r3, [r2, #12]
 198:ili9341/ili9341.c ****     WR_IDLE();
 878              		.loc 1 198 30 view .LVU240
 879 00a4 03F47F43 		and	r3, r3, #65280
 198:ili9341/ili9341.c ****     WR_IDLE();
 880              		.loc 1 198 40 view .LVU241
 881 00a8 43F02803 		orr	r3, r3, #40
 198:ili9341/ili9341.c ****     WR_IDLE();
 882              		.loc 1 198 16 view .LVU242
 883 00ac D360     		str	r3, [r2, #12]
 199:ili9341/ili9341.c **** }
 884              		.loc 1 199 5 is_stmt 1 view .LVU243
 885 00ae 0122     		movs	r2, #1
 886 00b0 4FF40041 		mov	r1, #32768
 887 00b4 2046     		mov	r0, r4
 888 00b6 FFF7FEFF 		bl	HAL_GPIO_WritePin
 889              	.LVL72:
 200:ili9341/ili9341.c **** 
 890              		.loc 1 200 1 is_stmt 0 view .LVU244
 891 00ba E3E7     		b	.L19
 892              	.LVL73:
 893              	.L16:
 200:ili9341/ili9341.c **** 
 894              		.loc 1 200 1 view .LVU245
 895              	.LBE176:
 896              	.LBE175:
 387:ili9341/ili9341.c ****         case ILI9341_ORIENT_270: send_data8(0xE8); break;
 897              		.loc 1 387 34 is_stmt 1 view .LVU246
 898              	.LBB177:
 899              	.LBI177:
 195:ili9341/ili9341.c **** {
 900              		.loc 1 195 20 view .LVU247
 901              	.LBB178:
ARM GAS  /tmp/cc0CFvsY.s 			page 27


 197:ili9341/ili9341.c ****     GPIOA->ODR = (GPIOA->ODR & 0xFF00) | data;
 902              		.loc 1 197 5 view .LVU248
 903 00bc 1E4C     		ldr	r4, .L21
 904 00be 0022     		movs	r2, #0
 905 00c0 4FF40041 		mov	r1, #32768
 906 00c4 2046     		mov	r0, r4
 907 00c6 FFF7FEFF 		bl	HAL_GPIO_WritePin
 908              	.LVL74:
 198:ili9341/ili9341.c ****     WR_IDLE();
 909              		.loc 1 198 5 view .LVU249
 198:ili9341/ili9341.c ****     WR_IDLE();
 910              		.loc 1 198 24 is_stmt 0 view .LVU250
 911 00ca 1C4A     		ldr	r2, .L21+4
 912 00cc D368     		ldr	r3, [r2, #12]
 198:ili9341/ili9341.c ****     WR_IDLE();
 913              		.loc 1 198 30 view .LVU251
 914 00ce 03F47F43 		and	r3, r3, #65280
 198:ili9341/ili9341.c ****     WR_IDLE();
 915              		.loc 1 198 40 view .LVU252
 916 00d2 43F08803 		orr	r3, r3, #136
 198:ili9341/ili9341.c ****     WR_IDLE();
 917              		.loc 1 198 16 view .LVU253
 918 00d6 D360     		str	r3, [r2, #12]
 199:ili9341/ili9341.c **** }
 919              		.loc 1 199 5 is_stmt 1 view .LVU254
 920 00d8 0122     		movs	r2, #1
 921 00da 4FF40041 		mov	r1, #32768
 922 00de 2046     		mov	r0, r4
 923 00e0 FFF7FEFF 		bl	HAL_GPIO_WritePin
 924              	.LVL75:
 200:ili9341/ili9341.c **** 
 925              		.loc 1 200 1 is_stmt 0 view .LVU255
 926 00e4 CEE7     		b	.L19
 927              	.LVL76:
 928              	.L14:
 200:ili9341/ili9341.c **** 
 929              		.loc 1 200 1 view .LVU256
 930              	.LBE178:
 931              	.LBE177:
 388:ili9341/ili9341.c ****         default: send_data8(LCD_NOP); break;
 932              		.loc 1 388 34 is_stmt 1 view .LVU257
 933              	.LBB179:
 934              	.LBI179:
 195:ili9341/ili9341.c **** {
 935              		.loc 1 195 20 view .LVU258
 936              	.LBB180:
 197:ili9341/ili9341.c ****     GPIOA->ODR = (GPIOA->ODR & 0xFF00) | data;
 937              		.loc 1 197 5 view .LVU259
 938 00e6 144C     		ldr	r4, .L21
 939 00e8 0022     		movs	r2, #0
 940 00ea 4FF40041 		mov	r1, #32768
 941 00ee 2046     		mov	r0, r4
 942 00f0 FFF7FEFF 		bl	HAL_GPIO_WritePin
 943              	.LVL77:
 198:ili9341/ili9341.c ****     WR_IDLE();
 944              		.loc 1 198 5 view .LVU260
 198:ili9341/ili9341.c ****     WR_IDLE();
ARM GAS  /tmp/cc0CFvsY.s 			page 28


 945              		.loc 1 198 24 is_stmt 0 view .LVU261
 946 00f4 114A     		ldr	r2, .L21+4
 947 00f6 D368     		ldr	r3, [r2, #12]
 198:ili9341/ili9341.c ****     WR_IDLE();
 948              		.loc 1 198 30 view .LVU262
 949 00f8 03F47F43 		and	r3, r3, #65280
 198:ili9341/ili9341.c ****     WR_IDLE();
 950              		.loc 1 198 40 view .LVU263
 951 00fc 43F0E803 		orr	r3, r3, #232
 198:ili9341/ili9341.c ****     WR_IDLE();
 952              		.loc 1 198 16 view .LVU264
 953 0100 D360     		str	r3, [r2, #12]
 199:ili9341/ili9341.c **** }
 954              		.loc 1 199 5 is_stmt 1 view .LVU265
 955 0102 0122     		movs	r2, #1
 956 0104 4FF40041 		mov	r1, #32768
 957 0108 2046     		mov	r0, r4
 958 010a FFF7FEFF 		bl	HAL_GPIO_WritePin
 959              	.LVL78:
 200:ili9341/ili9341.c **** 
 960              		.loc 1 200 1 is_stmt 0 view .LVU266
 961 010e B9E7     		b	.L19
 962              	.LVL79:
 963              	.L13:
 200:ili9341/ili9341.c **** 
 964              		.loc 1 200 1 view .LVU267
 965              	.LBE180:
 966              	.LBE179:
 389:ili9341/ili9341.c ****     }
 967              		.loc 1 389 18 is_stmt 1 view .LVU268
 968              	.LBB181:
 969              	.LBI181:
 195:ili9341/ili9341.c **** {
 970              		.loc 1 195 20 view .LVU269
 971              	.LBB182:
 197:ili9341/ili9341.c ****     GPIOA->ODR = (GPIOA->ODR & 0xFF00) | data;
 972              		.loc 1 197 5 view .LVU270
 973 0110 094C     		ldr	r4, .L21
 974 0112 0022     		movs	r2, #0
 975 0114 4FF40041 		mov	r1, #32768
 976 0118 2046     		mov	r0, r4
 977 011a FFF7FEFF 		bl	HAL_GPIO_WritePin
 978              	.LVL80:
 198:ili9341/ili9341.c ****     WR_IDLE();
 979              		.loc 1 198 5 view .LVU271
 198:ili9341/ili9341.c ****     WR_IDLE();
 980              		.loc 1 198 24 is_stmt 0 view .LVU272
 981 011e 074A     		ldr	r2, .L21+4
 982 0120 D368     		ldr	r3, [r2, #12]
 198:ili9341/ili9341.c ****     WR_IDLE();
 983              		.loc 1 198 30 view .LVU273
 984 0122 03F47F43 		and	r3, r3, #65280
 198:ili9341/ili9341.c ****     WR_IDLE();
 985              		.loc 1 198 16 view .LVU274
 986 0126 D360     		str	r3, [r2, #12]
 199:ili9341/ili9341.c **** }
 987              		.loc 1 199 5 is_stmt 1 view .LVU275
ARM GAS  /tmp/cc0CFvsY.s 			page 29


 988 0128 0122     		movs	r2, #1
 989 012a 4FF40041 		mov	r1, #32768
 990 012e 2046     		mov	r0, r4
 991 0130 FFF7FEFF 		bl	HAL_GPIO_WritePin
 992              	.LVL81:
 200:ili9341/ili9341.c **** 
 993              		.loc 1 200 1 is_stmt 0 view .LVU276
 994 0134 A6E7     		b	.L19
 995              	.L22:
 996 0136 00BF     		.align	2
 997              	.L21:
 998 0138 000C0140 		.word	1073810432
 999 013c 00080140 		.word	1073809408
 1000              	.LBE182:
 1001              	.LBE181:
 1002              		.cfi_endproc
 1003              	.LFE81:
 1005              		.section	.text.ili9341_init,"ax",%progbits
 1006              		.align	1
 1007              		.global	ili9341_init
 1008              		.syntax unified
 1009              		.thumb
 1010              		.thumb_func
 1011              		.fpu softvfp
 1013              	ili9341_init:
 1014              	.LFB80:
 298:ili9341/ili9341.c ****     ili9341_gpio_init();
 1015              		.loc 1 298 1 is_stmt 1 view -0
 1016              		.cfi_startproc
 1017              		@ args = 0, pretend = 0, frame = 0
 1018              		@ frame_needed = 0, uses_anonymous_args = 0
 1019 0000 30B5     		push	{r4, r5, lr}
 1020              	.LCFI7:
 1021              		.cfi_def_cfa_offset 12
 1022              		.cfi_offset 4, -12
 1023              		.cfi_offset 5, -8
 1024              		.cfi_offset 14, -4
 1025 0002 83B0     		sub	sp, sp, #12
 1026              	.LCFI8:
 1027              		.cfi_def_cfa_offset 24
 299:ili9341/ili9341.c **** 
 1028              		.loc 1 299 5 view .LVU278
 1029 0004 FFF7FEFF 		bl	ili9341_gpio_init
 1030              	.LVL82:
 301:ili9341/ili9341.c ****     RESET_IDLE();           //relese reset pin
 1031              		.loc 1 301 5 view .LVU279
 1032 0008 EB4C     		ldr	r4, .L25
 1033 000a 0122     		movs	r2, #1
 1034 000c 4FF40051 		mov	r1, #8192
 1035 0010 2046     		mov	r0, r4
 1036 0012 FFF7FEFF 		bl	HAL_GPIO_WritePin
 1037              	.LVL83:
 302:ili9341/ili9341.c ****     RS_DATA();
 1038              		.loc 1 302 5 view .LVU280
 1039 0016 0122     		movs	r2, #1
 1040 0018 4FF48051 		mov	r1, #4096
 1041 001c 2046     		mov	r0, r4
ARM GAS  /tmp/cc0CFvsY.s 			page 30


 1042 001e FFF7FEFF 		bl	HAL_GPIO_WritePin
 1043              	.LVL84:
 303:ili9341/ili9341.c ****     WR_IDLE();
 1044              		.loc 1 303 5 view .LVU281
 1045 0022 0122     		movs	r2, #1
 1046 0024 4FF48041 		mov	r1, #16384
 1047 0028 2046     		mov	r0, r4
 1048 002a FFF7FEFF 		bl	HAL_GPIO_WritePin
 1049              	.LVL85:
 304:ili9341/ili9341.c ****     RD_IDLE();
 1050              		.loc 1 304 5 view .LVU282
 1051 002e 0122     		movs	r2, #1
 1052 0030 4FF40041 		mov	r1, #32768
 1053 0034 2046     		mov	r0, r4
 1054 0036 FFF7FEFF 		bl	HAL_GPIO_WritePin
 1055              	.LVL86:
 305:ili9341/ili9341.c ****     set_write_bus();
 1056              		.loc 1 305 5 view .LVU283
 1057 003a 0122     		movs	r2, #1
 1058 003c 4FF40061 		mov	r1, #2048
 1059 0040 2046     		mov	r0, r4
 1060 0042 FFF7FEFF 		bl	HAL_GPIO_WritePin
 1061              	.LVL87:
 306:ili9341/ili9341.c **** 
 1062              		.loc 1 306 5 view .LVU284
 1063              	.LBB239:
 1064              	.LBI239:
 146:ili9341/ili9341.c **** {
 1065              		.loc 1 146 20 view .LVU285
 1066              	.LBB240:
 148:ili9341/ili9341.c **** }
 1067              		.loc 1 148 5 view .LVU286
 148:ili9341/ili9341.c **** }
 1068              		.loc 1 148 16 is_stmt 0 view .LVU287
 1069 0046 DD4D     		ldr	r5, .L25+4
 1070 0048 4FF03333 		mov	r3, #858993459
 1071 004c 2B60     		str	r3, [r5]
 1072              	.LBE240:
 1073              	.LBE239:
 308:ili9341/ili9341.c ****     RESET_IDLE();
 1074              		.loc 1 308 5 is_stmt 1 view .LVU288
 1075 004e 0022     		movs	r2, #0
 1076 0050 4FF48051 		mov	r1, #4096
 1077 0054 2046     		mov	r0, r4
 1078 0056 FFF7FEFF 		bl	HAL_GPIO_WritePin
 1079              	.LVL88:
 309:ili9341/ili9341.c **** 
 1080              		.loc 1 309 5 view .LVU289
 1081 005a 0122     		movs	r2, #1
 1082 005c 4FF48051 		mov	r1, #4096
 1083 0060 2046     		mov	r0, r4
 1084 0062 FFF7FEFF 		bl	HAL_GPIO_WritePin
 1085              	.LVL89:
 311:ili9341/ili9341.c ****     send_cmd(LCD_SWRESET);       //Software Reset
 1086              		.loc 1 311 5 view .LVU290
 1087              	.LBB241:
 1088              	.LBI241:
ARM GAS  /tmp/cc0CFvsY.s 			page 31


 179:ili9341/ili9341.c **** {
 1089              		.loc 1 179 20 view .LVU291
 1090              	.LBB242:
 181:ili9341/ili9341.c **** }
 1091              		.loc 1 181 5 view .LVU292
 1092 0066 0022     		movs	r2, #0
 1093 0068 4FF40051 		mov	r1, #8192
 1094 006c 2046     		mov	r0, r4
 1095 006e FFF7FEFF 		bl	HAL_GPIO_WritePin
 1096              	.LVL90:
 1097              	.LBE242:
 1098              	.LBE241:
 312:ili9341/ili9341.c ****     transmition_close();
 1099              		.loc 1 312 5 view .LVU293
 1100              	.LBB243:
 1101              	.LBI243:
 157:ili9341/ili9341.c **** {
 1102              		.loc 1 157 20 view .LVU294
 1103              	.LBB244:
 159:ili9341/ili9341.c ****     WR_ACTIVE();
 1104              		.loc 1 159 5 view .LVU295
 1105 0072 0022     		movs	r2, #0
 1106 0074 4FF48041 		mov	r1, #16384
 1107 0078 2046     		mov	r0, r4
 1108 007a FFF7FEFF 		bl	HAL_GPIO_WritePin
 1109              	.LVL91:
 160:ili9341/ili9341.c ****     GPIOA->ODR = (GPIOA->ODR & 0xFF00) | cmd;
 1110              		.loc 1 160 5 view .LVU296
 1111 007e 0022     		movs	r2, #0
 1112 0080 4FF40041 		mov	r1, #32768
 1113 0084 2046     		mov	r0, r4
 1114 0086 FFF7FEFF 		bl	HAL_GPIO_WritePin
 1115              	.LVL92:
 161:ili9341/ili9341.c ****     WR_PAUSE();
 1116              		.loc 1 161 5 view .LVU297
 161:ili9341/ili9341.c ****     WR_PAUSE();
 1117              		.loc 1 161 24 is_stmt 0 view .LVU298
 1118 008a EB68     		ldr	r3, [r5, #12]
 161:ili9341/ili9341.c ****     WR_PAUSE();
 1119              		.loc 1 161 30 view .LVU299
 1120 008c 03F47F43 		and	r3, r3, #65280
 161:ili9341/ili9341.c ****     WR_PAUSE();
 1121              		.loc 1 161 40 view .LVU300
 1122 0090 43F00103 		orr	r3, r3, #1
 161:ili9341/ili9341.c ****     WR_PAUSE();
 1123              		.loc 1 161 16 view .LVU301
 1124 0094 EB60     		str	r3, [r5, #12]
 162:ili9341/ili9341.c ****     WR_IDLE();
 1125              		.loc 1 162 15 is_stmt 1 view .LVU302
 163:ili9341/ili9341.c ****     RS_DATA();
 1126              		.loc 1 163 5 view .LVU303
 1127 0096 0122     		movs	r2, #1
 1128 0098 4FF40041 		mov	r1, #32768
 1129 009c 2046     		mov	r0, r4
 1130 009e FFF7FEFF 		bl	HAL_GPIO_WritePin
 1131              	.LVL93:
 164:ili9341/ili9341.c **** }
ARM GAS  /tmp/cc0CFvsY.s 			page 32


 1132              		.loc 1 164 5 view .LVU304
 1133 00a2 0122     		movs	r2, #1
 1134 00a4 4FF48041 		mov	r1, #16384
 1135 00a8 2046     		mov	r0, r4
 1136 00aa FFF7FEFF 		bl	HAL_GPIO_WritePin
 1137              	.LVL94:
 164:ili9341/ili9341.c **** }
 1138              		.loc 1 164 5 is_stmt 0 view .LVU305
 1139              	.LBE244:
 1140              	.LBE243:
 313:ili9341/ili9341.c ****     HAL_Delay(1000);
 1141              		.loc 1 313 5 is_stmt 1 view .LVU306
 1142              	.LBB245:
 1143              	.LBI245:
 223:ili9341/ili9341.c **** {
 1144              		.loc 1 223 20 view .LVU307
 1145              	.LBB246:
 225:ili9341/ili9341.c **** }
 1146              		.loc 1 225 5 view .LVU308
 1147 00ae 0122     		movs	r2, #1
 1148 00b0 4FF40051 		mov	r1, #8192
 1149 00b4 2046     		mov	r0, r4
 1150 00b6 FFF7FEFF 		bl	HAL_GPIO_WritePin
 1151              	.LVL95:
 1152              	.LBE246:
 1153              	.LBE245:
 314:ili9341/ili9341.c **** 
 1154              		.loc 1 314 5 view .LVU309
 1155 00ba 4FF47A70 		mov	r0, #1000
 1156 00be FFF7FEFF 		bl	HAL_Delay
 1157              	.LVL96:
 316:ili9341/ili9341.c ****     //Power Control 1
 1158              		.loc 1 316 5 view .LVU310
 1159              	.LBB247:
 1160              	.LBI247:
 179:ili9341/ili9341.c **** {
 1161              		.loc 1 179 20 view .LVU311
 1162              	.LBB248:
 181:ili9341/ili9341.c **** }
 1163              		.loc 1 181 5 view .LVU312
 1164 00c2 0022     		movs	r2, #0
 1165 00c4 4FF40051 		mov	r1, #8192
 1166 00c8 2046     		mov	r0, r4
 1167 00ca FFF7FEFF 		bl	HAL_GPIO_WritePin
 1168              	.LVL97:
 1169              	.LBE248:
 1170              	.LBE247:
 319:ili9341/ili9341.c ****     send_data8(0x25);
 1171              		.loc 1 319 5 view .LVU313
 1172              	.LBB249:
 1173              	.LBI249:
 157:ili9341/ili9341.c **** {
 1174              		.loc 1 157 20 view .LVU314
 1175              	.LBB250:
 159:ili9341/ili9341.c ****     WR_ACTIVE();
 1176              		.loc 1 159 5 view .LVU315
 1177 00ce 0022     		movs	r2, #0
ARM GAS  /tmp/cc0CFvsY.s 			page 33


 1178 00d0 4FF48041 		mov	r1, #16384
 1179 00d4 2046     		mov	r0, r4
 1180 00d6 FFF7FEFF 		bl	HAL_GPIO_WritePin
 1181              	.LVL98:
 160:ili9341/ili9341.c ****     GPIOA->ODR = (GPIOA->ODR & 0xFF00) | cmd;
 1182              		.loc 1 160 5 view .LVU316
 1183 00da 0022     		movs	r2, #0
 1184 00dc 4FF40041 		mov	r1, #32768
 1185 00e0 2046     		mov	r0, r4
 1186 00e2 FFF7FEFF 		bl	HAL_GPIO_WritePin
 1187              	.LVL99:
 161:ili9341/ili9341.c ****     WR_PAUSE();
 1188              		.loc 1 161 5 view .LVU317
 161:ili9341/ili9341.c ****     WR_PAUSE();
 1189              		.loc 1 161 24 is_stmt 0 view .LVU318
 1190 00e6 EB68     		ldr	r3, [r5, #12]
 161:ili9341/ili9341.c ****     WR_PAUSE();
 1191              		.loc 1 161 30 view .LVU319
 1192 00e8 03F47F43 		and	r3, r3, #65280
 161:ili9341/ili9341.c ****     WR_PAUSE();
 1193              		.loc 1 161 40 view .LVU320
 1194 00ec 43F0C003 		orr	r3, r3, #192
 161:ili9341/ili9341.c ****     WR_PAUSE();
 1195              		.loc 1 161 16 view .LVU321
 1196 00f0 EB60     		str	r3, [r5, #12]
 162:ili9341/ili9341.c ****     WR_IDLE();
 1197              		.loc 1 162 15 is_stmt 1 view .LVU322
 163:ili9341/ili9341.c ****     RS_DATA();
 1198              		.loc 1 163 5 view .LVU323
 1199 00f2 0122     		movs	r2, #1
 1200 00f4 4FF40041 		mov	r1, #32768
 1201 00f8 2046     		mov	r0, r4
 1202 00fa FFF7FEFF 		bl	HAL_GPIO_WritePin
 1203              	.LVL100:
 164:ili9341/ili9341.c **** }
 1204              		.loc 1 164 5 view .LVU324
 1205 00fe 0122     		movs	r2, #1
 1206 0100 4FF48041 		mov	r1, #16384
 1207 0104 2046     		mov	r0, r4
 1208 0106 FFF7FEFF 		bl	HAL_GPIO_WritePin
 1209              	.LVL101:
 164:ili9341/ili9341.c **** }
 1210              		.loc 1 164 5 is_stmt 0 view .LVU325
 1211              	.LBE250:
 1212              	.LBE249:
 320:ili9341/ili9341.c **** 
 1213              		.loc 1 320 5 is_stmt 1 view .LVU326
 1214              	.LBB251:
 1215              	.LBI251:
 195:ili9341/ili9341.c **** {
 1216              		.loc 1 195 20 view .LVU327
 1217              	.LBB252:
 197:ili9341/ili9341.c ****     GPIOA->ODR = (GPIOA->ODR & 0xFF00) | data;
 1218              		.loc 1 197 5 view .LVU328
 1219 010a 0022     		movs	r2, #0
 1220 010c 4FF40041 		mov	r1, #32768
 1221 0110 2046     		mov	r0, r4
ARM GAS  /tmp/cc0CFvsY.s 			page 34


 1222 0112 FFF7FEFF 		bl	HAL_GPIO_WritePin
 1223              	.LVL102:
 198:ili9341/ili9341.c ****     WR_IDLE();
 1224              		.loc 1 198 5 view .LVU329
 198:ili9341/ili9341.c ****     WR_IDLE();
 1225              		.loc 1 198 24 is_stmt 0 view .LVU330
 1226 0116 EB68     		ldr	r3, [r5, #12]
 198:ili9341/ili9341.c ****     WR_IDLE();
 1227              		.loc 1 198 30 view .LVU331
 1228 0118 03F47F43 		and	r3, r3, #65280
 198:ili9341/ili9341.c ****     WR_IDLE();
 1229              		.loc 1 198 40 view .LVU332
 1230 011c 43F02503 		orr	r3, r3, #37
 198:ili9341/ili9341.c ****     WR_IDLE();
 1231              		.loc 1 198 16 view .LVU333
 1232 0120 EB60     		str	r3, [r5, #12]
 199:ili9341/ili9341.c **** }
 1233              		.loc 1 199 5 is_stmt 1 view .LVU334
 1234 0122 0122     		movs	r2, #1
 1235 0124 4FF40041 		mov	r1, #32768
 1236 0128 2046     		mov	r0, r4
 1237 012a FFF7FEFF 		bl	HAL_GPIO_WritePin
 1238              	.LVL103:
 199:ili9341/ili9341.c **** }
 1239              		.loc 1 199 5 is_stmt 0 view .LVU335
 1240              	.LBE252:
 1241              	.LBE251:
 325:ili9341/ili9341.c ****   	send_data8(0x11);
 1242              		.loc 1 325 5 is_stmt 1 view .LVU336
 1243              	.LBB253:
 1244              	.LBI253:
 157:ili9341/ili9341.c **** {
 1245              		.loc 1 157 20 view .LVU337
 1246              	.LBB254:
 159:ili9341/ili9341.c ****     WR_ACTIVE();
 1247              		.loc 1 159 5 view .LVU338
 1248 012e 0022     		movs	r2, #0
 1249 0130 4FF48041 		mov	r1, #16384
 1250 0134 2046     		mov	r0, r4
 1251 0136 FFF7FEFF 		bl	HAL_GPIO_WritePin
 1252              	.LVL104:
 160:ili9341/ili9341.c ****     GPIOA->ODR = (GPIOA->ODR & 0xFF00) | cmd;
 1253              		.loc 1 160 5 view .LVU339
 1254 013a 0022     		movs	r2, #0
 1255 013c 4FF40041 		mov	r1, #32768
 1256 0140 2046     		mov	r0, r4
 1257 0142 FFF7FEFF 		bl	HAL_GPIO_WritePin
 1258              	.LVL105:
 161:ili9341/ili9341.c ****     WR_PAUSE();
 1259              		.loc 1 161 5 view .LVU340
 161:ili9341/ili9341.c ****     WR_PAUSE();
 1260              		.loc 1 161 24 is_stmt 0 view .LVU341
 1261 0146 EB68     		ldr	r3, [r5, #12]
 161:ili9341/ili9341.c ****     WR_PAUSE();
 1262              		.loc 1 161 30 view .LVU342
 1263 0148 03F47F43 		and	r3, r3, #65280
 161:ili9341/ili9341.c ****     WR_PAUSE();
ARM GAS  /tmp/cc0CFvsY.s 			page 35


 1264              		.loc 1 161 40 view .LVU343
 1265 014c 43F0C103 		orr	r3, r3, #193
 161:ili9341/ili9341.c ****     WR_PAUSE();
 1266              		.loc 1 161 16 view .LVU344
 1267 0150 EB60     		str	r3, [r5, #12]
 162:ili9341/ili9341.c ****     WR_IDLE();
 1268              		.loc 1 162 15 is_stmt 1 view .LVU345
 163:ili9341/ili9341.c ****     RS_DATA();
 1269              		.loc 1 163 5 view .LVU346
 1270 0152 0122     		movs	r2, #1
 1271 0154 4FF40041 		mov	r1, #32768
 1272 0158 2046     		mov	r0, r4
 1273 015a FFF7FEFF 		bl	HAL_GPIO_WritePin
 1274              	.LVL106:
 164:ili9341/ili9341.c **** }
 1275              		.loc 1 164 5 view .LVU347
 1276 015e 0122     		movs	r2, #1
 1277 0160 4FF48041 		mov	r1, #16384
 1278 0164 2046     		mov	r0, r4
 1279 0166 FFF7FEFF 		bl	HAL_GPIO_WritePin
 1280              	.LVL107:
 164:ili9341/ili9341.c **** }
 1281              		.loc 1 164 5 is_stmt 0 view .LVU348
 1282              	.LBE254:
 1283              	.LBE253:
 326:ili9341/ili9341.c **** 
 1284              		.loc 1 326 4 is_stmt 1 view .LVU349
 1285              	.LBB255:
 1286              	.LBI255:
 195:ili9341/ili9341.c **** {
 1287              		.loc 1 195 20 view .LVU350
 1288              	.LBB256:
 197:ili9341/ili9341.c ****     GPIOA->ODR = (GPIOA->ODR & 0xFF00) | data;
 1289              		.loc 1 197 5 view .LVU351
 1290 016a 0022     		movs	r2, #0
 1291 016c 4FF40041 		mov	r1, #32768
 1292 0170 2046     		mov	r0, r4
 1293 0172 FFF7FEFF 		bl	HAL_GPIO_WritePin
 1294              	.LVL108:
 198:ili9341/ili9341.c ****     WR_IDLE();
 1295              		.loc 1 198 5 view .LVU352
 198:ili9341/ili9341.c ****     WR_IDLE();
 1296              		.loc 1 198 24 is_stmt 0 view .LVU353
 1297 0176 EB68     		ldr	r3, [r5, #12]
 198:ili9341/ili9341.c ****     WR_IDLE();
 1298              		.loc 1 198 30 view .LVU354
 1299 0178 03F47F43 		and	r3, r3, #65280
 198:ili9341/ili9341.c ****     WR_IDLE();
 1300              		.loc 1 198 40 view .LVU355
 1301 017c 43F01103 		orr	r3, r3, #17
 198:ili9341/ili9341.c ****     WR_IDLE();
 1302              		.loc 1 198 16 view .LVU356
 1303 0180 EB60     		str	r3, [r5, #12]
 199:ili9341/ili9341.c **** }
 1304              		.loc 1 199 5 is_stmt 1 view .LVU357
 1305 0182 0122     		movs	r2, #1
 1306 0184 4FF40041 		mov	r1, #32768
ARM GAS  /tmp/cc0CFvsY.s 			page 36


 1307 0188 2046     		mov	r0, r4
 1308 018a FFF7FEFF 		bl	HAL_GPIO_WritePin
 1309              	.LVL109:
 199:ili9341/ili9341.c **** }
 1310              		.loc 1 199 5 is_stmt 0 view .LVU358
 1311              	.LBE256:
 1312              	.LBE255:
 332:ili9341/ili9341.c ****     send_data8(0x2B);
 1313              		.loc 1 332 4 is_stmt 1 view .LVU359
 1314              	.LBB257:
 1315              	.LBI257:
 157:ili9341/ili9341.c **** {
 1316              		.loc 1 157 20 view .LVU360
 1317              	.LBB258:
 159:ili9341/ili9341.c ****     WR_ACTIVE();
 1318              		.loc 1 159 5 view .LVU361
 1319 018e 0022     		movs	r2, #0
 1320 0190 4FF48041 		mov	r1, #16384
 1321 0194 2046     		mov	r0, r4
 1322 0196 FFF7FEFF 		bl	HAL_GPIO_WritePin
 1323              	.LVL110:
 160:ili9341/ili9341.c ****     GPIOA->ODR = (GPIOA->ODR & 0xFF00) | cmd;
 1324              		.loc 1 160 5 view .LVU362
 1325 019a 0022     		movs	r2, #0
 1326 019c 4FF40041 		mov	r1, #32768
 1327 01a0 2046     		mov	r0, r4
 1328 01a2 FFF7FEFF 		bl	HAL_GPIO_WritePin
 1329              	.LVL111:
 161:ili9341/ili9341.c ****     WR_PAUSE();
 1330              		.loc 1 161 5 view .LVU363
 161:ili9341/ili9341.c ****     WR_PAUSE();
 1331              		.loc 1 161 24 is_stmt 0 view .LVU364
 1332 01a6 EB68     		ldr	r3, [r5, #12]
 161:ili9341/ili9341.c ****     WR_PAUSE();
 1333              		.loc 1 161 30 view .LVU365
 1334 01a8 03F47F43 		and	r3, r3, #65280
 161:ili9341/ili9341.c ****     WR_PAUSE();
 1335              		.loc 1 161 40 view .LVU366
 1336 01ac 43F0C503 		orr	r3, r3, #197
 161:ili9341/ili9341.c ****     WR_PAUSE();
 1337              		.loc 1 161 16 view .LVU367
 1338 01b0 EB60     		str	r3, [r5, #12]
 162:ili9341/ili9341.c ****     WR_IDLE();
 1339              		.loc 1 162 15 is_stmt 1 view .LVU368
 163:ili9341/ili9341.c ****     RS_DATA();
 1340              		.loc 1 163 5 view .LVU369
 1341 01b2 0122     		movs	r2, #1
 1342 01b4 4FF40041 		mov	r1, #32768
 1343 01b8 2046     		mov	r0, r4
 1344 01ba FFF7FEFF 		bl	HAL_GPIO_WritePin
 1345              	.LVL112:
 164:ili9341/ili9341.c **** }
 1346              		.loc 1 164 5 view .LVU370
 1347 01be 0122     		movs	r2, #1
 1348 01c0 4FF48041 		mov	r1, #16384
 1349 01c4 2046     		mov	r0, r4
 1350 01c6 FFF7FEFF 		bl	HAL_GPIO_WritePin
ARM GAS  /tmp/cc0CFvsY.s 			page 37


 1351              	.LVL113:
 164:ili9341/ili9341.c **** }
 1352              		.loc 1 164 5 is_stmt 0 view .LVU371
 1353              	.LBE258:
 1354              	.LBE257:
 333:ili9341/ili9341.c ****     send_data8(0x2B);
 1355              		.loc 1 333 5 is_stmt 1 view .LVU372
 1356              	.LBB259:
 1357              	.LBI259:
 195:ili9341/ili9341.c **** {
 1358              		.loc 1 195 20 view .LVU373
 1359              	.LBB260:
 197:ili9341/ili9341.c ****     GPIOA->ODR = (GPIOA->ODR & 0xFF00) | data;
 1360              		.loc 1 197 5 view .LVU374
 1361 01ca 0022     		movs	r2, #0
 1362 01cc 4FF40041 		mov	r1, #32768
 1363 01d0 2046     		mov	r0, r4
 1364 01d2 FFF7FEFF 		bl	HAL_GPIO_WritePin
 1365              	.LVL114:
 198:ili9341/ili9341.c ****     WR_IDLE();
 1366              		.loc 1 198 5 view .LVU375
 198:ili9341/ili9341.c ****     WR_IDLE();
 1367              		.loc 1 198 24 is_stmt 0 view .LVU376
 1368 01d6 EB68     		ldr	r3, [r5, #12]
 198:ili9341/ili9341.c ****     WR_IDLE();
 1369              		.loc 1 198 30 view .LVU377
 1370 01d8 03F47F43 		and	r3, r3, #65280
 198:ili9341/ili9341.c ****     WR_IDLE();
 1371              		.loc 1 198 40 view .LVU378
 1372 01dc 43F02B03 		orr	r3, r3, #43
 198:ili9341/ili9341.c ****     WR_IDLE();
 1373              		.loc 1 198 16 view .LVU379
 1374 01e0 EB60     		str	r3, [r5, #12]
 199:ili9341/ili9341.c **** }
 1375              		.loc 1 199 5 is_stmt 1 view .LVU380
 1376 01e2 0122     		movs	r2, #1
 1377 01e4 4FF40041 		mov	r1, #32768
 1378 01e8 2046     		mov	r0, r4
 1379 01ea FFF7FEFF 		bl	HAL_GPIO_WritePin
 1380              	.LVL115:
 199:ili9341/ili9341.c **** }
 1381              		.loc 1 199 5 is_stmt 0 view .LVU381
 1382              	.LBE260:
 1383              	.LBE259:
 334:ili9341/ili9341.c **** 
 1384              		.loc 1 334 5 is_stmt 1 view .LVU382
 1385              	.LBB261:
 1386              	.LBI261:
 195:ili9341/ili9341.c **** {
 1387              		.loc 1 195 20 view .LVU383
 1388              	.LBB262:
 197:ili9341/ili9341.c ****     GPIOA->ODR = (GPIOA->ODR & 0xFF00) | data;
 1389              		.loc 1 197 5 view .LVU384
 1390 01ee 0022     		movs	r2, #0
 1391 01f0 4FF40041 		mov	r1, #32768
 1392 01f4 2046     		mov	r0, r4
 1393 01f6 FFF7FEFF 		bl	HAL_GPIO_WritePin
ARM GAS  /tmp/cc0CFvsY.s 			page 38


 1394              	.LVL116:
 198:ili9341/ili9341.c ****     WR_IDLE();
 1395              		.loc 1 198 5 view .LVU385
 198:ili9341/ili9341.c ****     WR_IDLE();
 1396              		.loc 1 198 24 is_stmt 0 view .LVU386
 1397 01fa EB68     		ldr	r3, [r5, #12]
 198:ili9341/ili9341.c ****     WR_IDLE();
 1398              		.loc 1 198 30 view .LVU387
 1399 01fc 03F47F43 		and	r3, r3, #65280
 198:ili9341/ili9341.c ****     WR_IDLE();
 1400              		.loc 1 198 40 view .LVU388
 1401 0200 43F02B03 		orr	r3, r3, #43
 198:ili9341/ili9341.c ****     WR_IDLE();
 1402              		.loc 1 198 16 view .LVU389
 1403 0204 EB60     		str	r3, [r5, #12]
 199:ili9341/ili9341.c **** }
 1404              		.loc 1 199 5 is_stmt 1 view .LVU390
 1405 0206 0122     		movs	r2, #1
 1406 0208 4FF40041 		mov	r1, #32768
 1407 020c 2046     		mov	r0, r4
 1408 020e FFF7FEFF 		bl	HAL_GPIO_WritePin
 1409              	.LVL117:
 199:ili9341/ili9341.c **** }
 1410              		.loc 1 199 5 is_stmt 0 view .LVU391
 1411              	.LBE262:
 1412              	.LBE261:
 339:ili9341/ili9341.c ****     send_data8(0x86);
 1413              		.loc 1 339 5 is_stmt 1 view .LVU392
 1414              	.LBB263:
 1415              	.LBI263:
 157:ili9341/ili9341.c **** {
 1416              		.loc 1 157 20 view .LVU393
 1417              	.LBB264:
 159:ili9341/ili9341.c ****     WR_ACTIVE();
 1418              		.loc 1 159 5 view .LVU394
 1419 0212 0022     		movs	r2, #0
 1420 0214 4FF48041 		mov	r1, #16384
 1421 0218 2046     		mov	r0, r4
 1422 021a FFF7FEFF 		bl	HAL_GPIO_WritePin
 1423              	.LVL118:
 160:ili9341/ili9341.c ****     GPIOA->ODR = (GPIOA->ODR & 0xFF00) | cmd;
 1424              		.loc 1 160 5 view .LVU395
 1425 021e 0022     		movs	r2, #0
 1426 0220 4FF40041 		mov	r1, #32768
 1427 0224 2046     		mov	r0, r4
 1428 0226 FFF7FEFF 		bl	HAL_GPIO_WritePin
 1429              	.LVL119:
 161:ili9341/ili9341.c ****     WR_PAUSE();
 1430              		.loc 1 161 5 view .LVU396
 161:ili9341/ili9341.c ****     WR_PAUSE();
 1431              		.loc 1 161 24 is_stmt 0 view .LVU397
 1432 022a EB68     		ldr	r3, [r5, #12]
 161:ili9341/ili9341.c ****     WR_PAUSE();
 1433              		.loc 1 161 30 view .LVU398
 1434 022c 03F47F43 		and	r3, r3, #65280
 161:ili9341/ili9341.c ****     WR_PAUSE();
 1435              		.loc 1 161 40 view .LVU399
ARM GAS  /tmp/cc0CFvsY.s 			page 39


 1436 0230 43F0C703 		orr	r3, r3, #199
 161:ili9341/ili9341.c ****     WR_PAUSE();
 1437              		.loc 1 161 16 view .LVU400
 1438 0234 EB60     		str	r3, [r5, #12]
 162:ili9341/ili9341.c ****     WR_IDLE();
 1439              		.loc 1 162 15 is_stmt 1 view .LVU401
 163:ili9341/ili9341.c ****     RS_DATA();
 1440              		.loc 1 163 5 view .LVU402
 1441 0236 0122     		movs	r2, #1
 1442 0238 4FF40041 		mov	r1, #32768
 1443 023c 2046     		mov	r0, r4
 1444 023e FFF7FEFF 		bl	HAL_GPIO_WritePin
 1445              	.LVL120:
 164:ili9341/ili9341.c **** }
 1446              		.loc 1 164 5 view .LVU403
 1447 0242 0122     		movs	r2, #1
 1448 0244 4FF48041 		mov	r1, #16384
 1449 0248 2046     		mov	r0, r4
 1450 024a FFF7FEFF 		bl	HAL_GPIO_WritePin
 1451              	.LVL121:
 164:ili9341/ili9341.c **** }
 1452              		.loc 1 164 5 is_stmt 0 view .LVU404
 1453              	.LBE264:
 1454              	.LBE263:
 340:ili9341/ili9341.c **** 
 1455              		.loc 1 340 5 is_stmt 1 view .LVU405
 1456              	.LBB265:
 1457              	.LBI265:
 195:ili9341/ili9341.c **** {
 1458              		.loc 1 195 20 view .LVU406
 1459              	.LBB266:
 197:ili9341/ili9341.c ****     GPIOA->ODR = (GPIOA->ODR & 0xFF00) | data;
 1460              		.loc 1 197 5 view .LVU407
 1461 024e 0022     		movs	r2, #0
 1462 0250 4FF40041 		mov	r1, #32768
 1463 0254 2046     		mov	r0, r4
 1464 0256 FFF7FEFF 		bl	HAL_GPIO_WritePin
 1465              	.LVL122:
 198:ili9341/ili9341.c ****     WR_IDLE();
 1466              		.loc 1 198 5 view .LVU408
 198:ili9341/ili9341.c ****     WR_IDLE();
 1467              		.loc 1 198 24 is_stmt 0 view .LVU409
 1468 025a EB68     		ldr	r3, [r5, #12]
 198:ili9341/ili9341.c ****     WR_IDLE();
 1469              		.loc 1 198 30 view .LVU410
 1470 025c 03F47F43 		and	r3, r3, #65280
 198:ili9341/ili9341.c ****     WR_IDLE();
 1471              		.loc 1 198 40 view .LVU411
 1472 0260 43F08603 		orr	r3, r3, #134
 198:ili9341/ili9341.c ****     WR_IDLE();
 1473              		.loc 1 198 16 view .LVU412
 1474 0264 EB60     		str	r3, [r5, #12]
 199:ili9341/ili9341.c **** }
 1475              		.loc 1 199 5 is_stmt 1 view .LVU413
 1476 0266 0122     		movs	r2, #1
 1477 0268 4FF40041 		mov	r1, #32768
 1478 026c 2046     		mov	r0, r4
ARM GAS  /tmp/cc0CFvsY.s 			page 40


 1479 026e FFF7FEFF 		bl	HAL_GPIO_WritePin
 1480              	.LVL123:
 199:ili9341/ili9341.c **** }
 1481              		.loc 1 199 5 is_stmt 0 view .LVU414
 1482              	.LBE266:
 1483              	.LBE265:
 344:ili9341/ili9341.c ****     send_data8(0x05);
 1484              		.loc 1 344 5 is_stmt 1 view .LVU415
 1485              	.LBB267:
 1486              	.LBI267:
 157:ili9341/ili9341.c **** {
 1487              		.loc 1 157 20 view .LVU416
 1488              	.LBB268:
 159:ili9341/ili9341.c ****     WR_ACTIVE();
 1489              		.loc 1 159 5 view .LVU417
 1490 0272 0022     		movs	r2, #0
 1491 0274 4FF48041 		mov	r1, #16384
 1492 0278 2046     		mov	r0, r4
 1493 027a FFF7FEFF 		bl	HAL_GPIO_WritePin
 1494              	.LVL124:
 160:ili9341/ili9341.c ****     GPIOA->ODR = (GPIOA->ODR & 0xFF00) | cmd;
 1495              		.loc 1 160 5 view .LVU418
 1496 027e 0022     		movs	r2, #0
 1497 0280 4FF40041 		mov	r1, #32768
 1498 0284 2046     		mov	r0, r4
 1499 0286 FFF7FEFF 		bl	HAL_GPIO_WritePin
 1500              	.LVL125:
 161:ili9341/ili9341.c ****     WR_PAUSE();
 1501              		.loc 1 161 5 view .LVU419
 161:ili9341/ili9341.c ****     WR_PAUSE();
 1502              		.loc 1 161 24 is_stmt 0 view .LVU420
 1503 028a EB68     		ldr	r3, [r5, #12]
 161:ili9341/ili9341.c ****     WR_PAUSE();
 1504              		.loc 1 161 30 view .LVU421
 1505 028c 03F47F43 		and	r3, r3, #65280
 161:ili9341/ili9341.c ****     WR_PAUSE();
 1506              		.loc 1 161 40 view .LVU422
 1507 0290 43F03A03 		orr	r3, r3, #58
 161:ili9341/ili9341.c ****     WR_PAUSE();
 1508              		.loc 1 161 16 view .LVU423
 1509 0294 EB60     		str	r3, [r5, #12]
 162:ili9341/ili9341.c ****     WR_IDLE();
 1510              		.loc 1 162 15 is_stmt 1 view .LVU424
 163:ili9341/ili9341.c ****     RS_DATA();
 1511              		.loc 1 163 5 view .LVU425
 1512 0296 0122     		movs	r2, #1
 1513 0298 4FF40041 		mov	r1, #32768
 1514 029c 2046     		mov	r0, r4
 1515 029e FFF7FEFF 		bl	HAL_GPIO_WritePin
 1516              	.LVL126:
 164:ili9341/ili9341.c **** }
 1517              		.loc 1 164 5 view .LVU426
 1518 02a2 0122     		movs	r2, #1
 1519 02a4 4FF48041 		mov	r1, #16384
 1520 02a8 2046     		mov	r0, r4
 1521 02aa FFF7FEFF 		bl	HAL_GPIO_WritePin
 1522              	.LVL127:
ARM GAS  /tmp/cc0CFvsY.s 			page 41


 164:ili9341/ili9341.c **** }
 1523              		.loc 1 164 5 is_stmt 0 view .LVU427
 1524              	.LBE268:
 1525              	.LBE267:
 345:ili9341/ili9341.c **** 
 1526              		.loc 1 345 5 is_stmt 1 view .LVU428
 1527              	.LBB269:
 1528              	.LBI269:
 195:ili9341/ili9341.c **** {
 1529              		.loc 1 195 20 view .LVU429
 1530              	.LBB270:
 197:ili9341/ili9341.c ****     GPIOA->ODR = (GPIOA->ODR & 0xFF00) | data;
 1531              		.loc 1 197 5 view .LVU430
 1532 02ae 0022     		movs	r2, #0
 1533 02b0 4FF40041 		mov	r1, #32768
 1534 02b4 2046     		mov	r0, r4
 1535 02b6 FFF7FEFF 		bl	HAL_GPIO_WritePin
 1536              	.LVL128:
 198:ili9341/ili9341.c ****     WR_IDLE();
 1537              		.loc 1 198 5 view .LVU431
 198:ili9341/ili9341.c ****     WR_IDLE();
 1538              		.loc 1 198 24 is_stmt 0 view .LVU432
 1539 02ba EB68     		ldr	r3, [r5, #12]
 198:ili9341/ili9341.c ****     WR_IDLE();
 1540              		.loc 1 198 30 view .LVU433
 1541 02bc 03F47F43 		and	r3, r3, #65280
 198:ili9341/ili9341.c ****     WR_IDLE();
 1542              		.loc 1 198 40 view .LVU434
 1543 02c0 43F00503 		orr	r3, r3, #5
 198:ili9341/ili9341.c ****     WR_IDLE();
 1544              		.loc 1 198 16 view .LVU435
 1545 02c4 EB60     		str	r3, [r5, #12]
 199:ili9341/ili9341.c **** }
 1546              		.loc 1 199 5 is_stmt 1 view .LVU436
 1547 02c6 0122     		movs	r2, #1
 1548 02c8 4FF40041 		mov	r1, #32768
 1549 02cc 2046     		mov	r0, r4
 1550 02ce FFF7FEFF 		bl	HAL_GPIO_WritePin
 1551              	.LVL129:
 199:ili9341/ili9341.c **** }
 1552              		.loc 1 199 5 is_stmt 0 view .LVU437
 1553              	.LBE270:
 1554              	.LBE269:
 349:ili9341/ili9341.c ****     send_data8(0x00);
 1555              		.loc 1 349 5 is_stmt 1 view .LVU438
 1556              	.LBB271:
 1557              	.LBI271:
 157:ili9341/ili9341.c **** {
 1558              		.loc 1 157 20 view .LVU439
 1559              	.LBB272:
 159:ili9341/ili9341.c ****     WR_ACTIVE();
 1560              		.loc 1 159 5 view .LVU440
 1561 02d2 0022     		movs	r2, #0
 1562 02d4 4FF48041 		mov	r1, #16384
 1563 02d8 2046     		mov	r0, r4
 1564 02da FFF7FEFF 		bl	HAL_GPIO_WritePin
 1565              	.LVL130:
ARM GAS  /tmp/cc0CFvsY.s 			page 42


 160:ili9341/ili9341.c ****     GPIOA->ODR = (GPIOA->ODR & 0xFF00) | cmd;
 1566              		.loc 1 160 5 view .LVU441
 1567 02de 0022     		movs	r2, #0
 1568 02e0 4FF40041 		mov	r1, #32768
 1569 02e4 2046     		mov	r0, r4
 1570 02e6 FFF7FEFF 		bl	HAL_GPIO_WritePin
 1571              	.LVL131:
 161:ili9341/ili9341.c ****     WR_PAUSE();
 1572              		.loc 1 161 5 view .LVU442
 161:ili9341/ili9341.c ****     WR_PAUSE();
 1573              		.loc 1 161 24 is_stmt 0 view .LVU443
 1574 02ea EB68     		ldr	r3, [r5, #12]
 161:ili9341/ili9341.c ****     WR_PAUSE();
 1575              		.loc 1 161 30 view .LVU444
 1576 02ec 03F47F43 		and	r3, r3, #65280
 161:ili9341/ili9341.c ****     WR_PAUSE();
 1577              		.loc 1 161 40 view .LVU445
 1578 02f0 43F0B103 		orr	r3, r3, #177
 161:ili9341/ili9341.c ****     WR_PAUSE();
 1579              		.loc 1 161 16 view .LVU446
 1580 02f4 EB60     		str	r3, [r5, #12]
 162:ili9341/ili9341.c ****     WR_IDLE();
 1581              		.loc 1 162 15 is_stmt 1 view .LVU447
 163:ili9341/ili9341.c ****     RS_DATA();
 1582              		.loc 1 163 5 view .LVU448
 1583 02f6 0122     		movs	r2, #1
 1584 02f8 4FF40041 		mov	r1, #32768
 1585 02fc 2046     		mov	r0, r4
 1586 02fe FFF7FEFF 		bl	HAL_GPIO_WritePin
 1587              	.LVL132:
 164:ili9341/ili9341.c **** }
 1588              		.loc 1 164 5 view .LVU449
 1589 0302 0122     		movs	r2, #1
 1590 0304 4FF48041 		mov	r1, #16384
 1591 0308 2046     		mov	r0, r4
 1592 030a FFF7FEFF 		bl	HAL_GPIO_WritePin
 1593              	.LVL133:
 164:ili9341/ili9341.c **** }
 1594              		.loc 1 164 5 is_stmt 0 view .LVU450
 1595              	.LBE272:
 1596              	.LBE271:
 350:ili9341/ili9341.c ****     send_data8(0x18);
 1597              		.loc 1 350 5 is_stmt 1 view .LVU451
 1598              	.LBB273:
 1599              	.LBI273:
 195:ili9341/ili9341.c **** {
 1600              		.loc 1 195 20 view .LVU452
 1601              	.LBB274:
 197:ili9341/ili9341.c ****     GPIOA->ODR = (GPIOA->ODR & 0xFF00) | data;
 1602              		.loc 1 197 5 view .LVU453
 1603 030e 0022     		movs	r2, #0
 1604 0310 4FF40041 		mov	r1, #32768
 1605 0314 2046     		mov	r0, r4
 1606 0316 FFF7FEFF 		bl	HAL_GPIO_WritePin
 1607              	.LVL134:
 198:ili9341/ili9341.c ****     WR_IDLE();
 1608              		.loc 1 198 5 view .LVU454
ARM GAS  /tmp/cc0CFvsY.s 			page 43


 198:ili9341/ili9341.c ****     WR_IDLE();
 1609              		.loc 1 198 24 is_stmt 0 view .LVU455
 1610 031a EB68     		ldr	r3, [r5, #12]
 198:ili9341/ili9341.c ****     WR_IDLE();
 1611              		.loc 1 198 30 view .LVU456
 1612 031c 03F47F43 		and	r3, r3, #65280
 198:ili9341/ili9341.c ****     WR_IDLE();
 1613              		.loc 1 198 16 view .LVU457
 1614 0320 EB60     		str	r3, [r5, #12]
 199:ili9341/ili9341.c **** }
 1615              		.loc 1 199 5 is_stmt 1 view .LVU458
 1616 0322 0122     		movs	r2, #1
 1617 0324 4FF40041 		mov	r1, #32768
 1618 0328 2046     		mov	r0, r4
 1619 032a FFF7FEFF 		bl	HAL_GPIO_WritePin
 1620              	.LVL135:
 199:ili9341/ili9341.c **** }
 1621              		.loc 1 199 5 is_stmt 0 view .LVU459
 1622              	.LBE274:
 1623              	.LBE273:
 351:ili9341/ili9341.c **** 
 1624              		.loc 1 351 5 is_stmt 1 view .LVU460
 1625              	.LBB275:
 1626              	.LBI275:
 195:ili9341/ili9341.c **** {
 1627              		.loc 1 195 20 view .LVU461
 1628              	.LBB276:
 197:ili9341/ili9341.c ****     GPIOA->ODR = (GPIOA->ODR & 0xFF00) | data;
 1629              		.loc 1 197 5 view .LVU462
 1630 032e 0022     		movs	r2, #0
 1631 0330 4FF40041 		mov	r1, #32768
 1632 0334 2046     		mov	r0, r4
 1633 0336 FFF7FEFF 		bl	HAL_GPIO_WritePin
 1634              	.LVL136:
 198:ili9341/ili9341.c ****     WR_IDLE();
 1635              		.loc 1 198 5 view .LVU463
 198:ili9341/ili9341.c ****     WR_IDLE();
 1636              		.loc 1 198 24 is_stmt 0 view .LVU464
 1637 033a EB68     		ldr	r3, [r5, #12]
 198:ili9341/ili9341.c ****     WR_IDLE();
 1638              		.loc 1 198 30 view .LVU465
 1639 033c 03F47F43 		and	r3, r3, #65280
 198:ili9341/ili9341.c ****     WR_IDLE();
 1640              		.loc 1 198 40 view .LVU466
 1641 0340 43F01803 		orr	r3, r3, #24
 198:ili9341/ili9341.c ****     WR_IDLE();
 1642              		.loc 1 198 16 view .LVU467
 1643 0344 EB60     		str	r3, [r5, #12]
 199:ili9341/ili9341.c **** }
 1644              		.loc 1 199 5 is_stmt 1 view .LVU468
 1645 0346 0122     		movs	r2, #1
 1646 0348 4FF40041 		mov	r1, #32768
 1647 034c 2046     		mov	r0, r4
 1648 034e FFF7FEFF 		bl	HAL_GPIO_WritePin
 1649              	.LVL137:
 199:ili9341/ili9341.c **** }
 1650              		.loc 1 199 5 is_stmt 0 view .LVU469
ARM GAS  /tmp/cc0CFvsY.s 			page 44


 1651              	.LBE276:
 1652              	.LBE275:
 356:ili9341/ili9341.c ****     send_data8(0x0A);
 1653              		.loc 1 356 5 is_stmt 1 view .LVU470
 1654              	.LBB277:
 1655              	.LBI277:
 157:ili9341/ili9341.c **** {
 1656              		.loc 1 157 20 view .LVU471
 1657              	.LBB278:
 159:ili9341/ili9341.c ****     WR_ACTIVE();
 1658              		.loc 1 159 5 view .LVU472
 1659 0352 0022     		movs	r2, #0
 1660 0354 4FF48041 		mov	r1, #16384
 1661 0358 2046     		mov	r0, r4
 1662 035a FFF7FEFF 		bl	HAL_GPIO_WritePin
 1663              	.LVL138:
 160:ili9341/ili9341.c ****     GPIOA->ODR = (GPIOA->ODR & 0xFF00) | cmd;
 1664              		.loc 1 160 5 view .LVU473
 1665 035e 0022     		movs	r2, #0
 1666 0360 4FF40041 		mov	r1, #32768
 1667 0364 2046     		mov	r0, r4
 1668 0366 FFF7FEFF 		bl	HAL_GPIO_WritePin
 1669              	.LVL139:
 161:ili9341/ili9341.c ****     WR_PAUSE();
 1670              		.loc 1 161 5 view .LVU474
 161:ili9341/ili9341.c ****     WR_PAUSE();
 1671              		.loc 1 161 24 is_stmt 0 view .LVU475
 1672 036a EB68     		ldr	r3, [r5, #12]
 161:ili9341/ili9341.c ****     WR_PAUSE();
 1673              		.loc 1 161 30 view .LVU476
 1674 036c 03F47F43 		and	r3, r3, #65280
 161:ili9341/ili9341.c ****     WR_PAUSE();
 1675              		.loc 1 161 40 view .LVU477
 1676 0370 43F0B603 		orr	r3, r3, #182
 161:ili9341/ili9341.c ****     WR_PAUSE();
 1677              		.loc 1 161 16 view .LVU478
 1678 0374 EB60     		str	r3, [r5, #12]
 162:ili9341/ili9341.c ****     WR_IDLE();
 1679              		.loc 1 162 15 is_stmt 1 view .LVU479
 163:ili9341/ili9341.c ****     RS_DATA();
 1680              		.loc 1 163 5 view .LVU480
 1681 0376 0122     		movs	r2, #1
 1682 0378 4FF40041 		mov	r1, #32768
 1683 037c 2046     		mov	r0, r4
 1684 037e FFF7FEFF 		bl	HAL_GPIO_WritePin
 1685              	.LVL140:
 164:ili9341/ili9341.c **** }
 1686              		.loc 1 164 5 view .LVU481
 1687 0382 0122     		movs	r2, #1
 1688 0384 4FF48041 		mov	r1, #16384
 1689 0388 2046     		mov	r0, r4
 1690 038a FFF7FEFF 		bl	HAL_GPIO_WritePin
 1691              	.LVL141:
 164:ili9341/ili9341.c **** }
 1692              		.loc 1 164 5 is_stmt 0 view .LVU482
 1693              	.LBE278:
 1694              	.LBE277:
ARM GAS  /tmp/cc0CFvsY.s 			page 45


 357:ili9341/ili9341.c ****     send_data8(0x82);
 1695              		.loc 1 357 5 is_stmt 1 view .LVU483
 1696              	.LBB279:
 1697              	.LBI279:
 195:ili9341/ili9341.c **** {
 1698              		.loc 1 195 20 view .LVU484
 1699              	.LBB280:
 197:ili9341/ili9341.c ****     GPIOA->ODR = (GPIOA->ODR & 0xFF00) | data;
 1700              		.loc 1 197 5 view .LVU485
 1701 038e 0022     		movs	r2, #0
 1702 0390 4FF40041 		mov	r1, #32768
 1703 0394 2046     		mov	r0, r4
 1704 0396 FFF7FEFF 		bl	HAL_GPIO_WritePin
 1705              	.LVL142:
 198:ili9341/ili9341.c ****     WR_IDLE();
 1706              		.loc 1 198 5 view .LVU486
 198:ili9341/ili9341.c ****     WR_IDLE();
 1707              		.loc 1 198 24 is_stmt 0 view .LVU487
 1708 039a EB68     		ldr	r3, [r5, #12]
 198:ili9341/ili9341.c ****     WR_IDLE();
 1709              		.loc 1 198 30 view .LVU488
 1710 039c 03F47F43 		and	r3, r3, #65280
 198:ili9341/ili9341.c ****     WR_IDLE();
 1711              		.loc 1 198 40 view .LVU489
 1712 03a0 43F00A03 		orr	r3, r3, #10
 198:ili9341/ili9341.c ****     WR_IDLE();
 1713              		.loc 1 198 16 view .LVU490
 1714 03a4 EB60     		str	r3, [r5, #12]
 199:ili9341/ili9341.c **** }
 1715              		.loc 1 199 5 is_stmt 1 view .LVU491
 1716 03a6 0122     		movs	r2, #1
 1717 03a8 4FF40041 		mov	r1, #32768
 1718 03ac 2046     		mov	r0, r4
 1719 03ae FFF7FEFF 		bl	HAL_GPIO_WritePin
 1720              	.LVL143:
 199:ili9341/ili9341.c **** }
 1721              		.loc 1 199 5 is_stmt 0 view .LVU492
 1722              	.LBE280:
 1723              	.LBE279:
 358:ili9341/ili9341.c ****     send_data8(0x27);
 1724              		.loc 1 358 5 is_stmt 1 view .LVU493
 1725              	.LBB281:
 1726              	.LBI281:
 195:ili9341/ili9341.c **** {
 1727              		.loc 1 195 20 view .LVU494
 1728              	.LBB282:
 197:ili9341/ili9341.c ****     GPIOA->ODR = (GPIOA->ODR & 0xFF00) | data;
 1729              		.loc 1 197 5 view .LVU495
 1730 03b2 0022     		movs	r2, #0
 1731 03b4 04E0     		b	.L26
 1732              	.L27:
 1733 03b6 00BF     		.align	2
 1734              	.L25:
 1735 03b8 000C0140 		.word	1073810432
 1736 03bc 00080140 		.word	1073809408
 1737              	.L26:
 1738 03c0 4FF40041 		mov	r1, #32768
ARM GAS  /tmp/cc0CFvsY.s 			page 46


 1739 03c4 2046     		mov	r0, r4
 1740 03c6 FFF7FEFF 		bl	HAL_GPIO_WritePin
 1741              	.LVL144:
 198:ili9341/ili9341.c ****     WR_IDLE();
 1742              		.loc 1 198 5 view .LVU496
 198:ili9341/ili9341.c ****     WR_IDLE();
 1743              		.loc 1 198 24 is_stmt 0 view .LVU497
 1744 03ca EB68     		ldr	r3, [r5, #12]
 198:ili9341/ili9341.c ****     WR_IDLE();
 1745              		.loc 1 198 30 view .LVU498
 1746 03cc 03F47F43 		and	r3, r3, #65280
 198:ili9341/ili9341.c ****     WR_IDLE();
 1747              		.loc 1 198 40 view .LVU499
 1748 03d0 43F08203 		orr	r3, r3, #130
 198:ili9341/ili9341.c ****     WR_IDLE();
 1749              		.loc 1 198 16 view .LVU500
 1750 03d4 EB60     		str	r3, [r5, #12]
 199:ili9341/ili9341.c **** }
 1751              		.loc 1 199 5 is_stmt 1 view .LVU501
 1752 03d6 0122     		movs	r2, #1
 1753 03d8 4FF40041 		mov	r1, #32768
 1754 03dc 2046     		mov	r0, r4
 1755 03de FFF7FEFF 		bl	HAL_GPIO_WritePin
 1756              	.LVL145:
 199:ili9341/ili9341.c **** }
 1757              		.loc 1 199 5 is_stmt 0 view .LVU502
 1758              	.LBE282:
 1759              	.LBE281:
 359:ili9341/ili9341.c **** 
 1760              		.loc 1 359 5 is_stmt 1 view .LVU503
 1761              	.LBB283:
 1762              	.LBI283:
 195:ili9341/ili9341.c **** {
 1763              		.loc 1 195 20 view .LVU504
 1764              	.LBB284:
 197:ili9341/ili9341.c ****     GPIOA->ODR = (GPIOA->ODR & 0xFF00) | data;
 1765              		.loc 1 197 5 view .LVU505
 1766 03e2 0022     		movs	r2, #0
 1767 03e4 4FF40041 		mov	r1, #32768
 1768 03e8 2046     		mov	r0, r4
 1769 03ea FFF7FEFF 		bl	HAL_GPIO_WritePin
 1770              	.LVL146:
 198:ili9341/ili9341.c ****     WR_IDLE();
 1771              		.loc 1 198 5 view .LVU506
 198:ili9341/ili9341.c ****     WR_IDLE();
 1772              		.loc 1 198 24 is_stmt 0 view .LVU507
 1773 03ee EB68     		ldr	r3, [r5, #12]
 198:ili9341/ili9341.c ****     WR_IDLE();
 1774              		.loc 1 198 30 view .LVU508
 1775 03f0 03F47F43 		and	r3, r3, #65280
 198:ili9341/ili9341.c ****     WR_IDLE();
 1776              		.loc 1 198 40 view .LVU509
 1777 03f4 43F02703 		orr	r3, r3, #39
 198:ili9341/ili9341.c ****     WR_IDLE();
 1778              		.loc 1 198 16 view .LVU510
 1779 03f8 EB60     		str	r3, [r5, #12]
 199:ili9341/ili9341.c **** }
ARM GAS  /tmp/cc0CFvsY.s 			page 47


 1780              		.loc 1 199 5 is_stmt 1 view .LVU511
 1781 03fa 0122     		movs	r2, #1
 1782 03fc 4FF40041 		mov	r1, #32768
 1783 0400 2046     		mov	r0, r4
 1784 0402 FFF7FEFF 		bl	HAL_GPIO_WritePin
 1785              	.LVL147:
 199:ili9341/ili9341.c **** }
 1786              		.loc 1 199 5 is_stmt 0 view .LVU512
 1787              	.LBE284:
 1788              	.LBE283:
 362:ili9341/ili9341.c ****     transmition_close();
 1789              		.loc 1 362 4 is_stmt 1 view .LVU513
 1790              	.LBB285:
 1791              	.LBI285:
 157:ili9341/ili9341.c **** {
 1792              		.loc 1 157 20 view .LVU514
 1793              	.LBB286:
 159:ili9341/ili9341.c ****     WR_ACTIVE();
 1794              		.loc 1 159 5 view .LVU515
 1795 0406 0022     		movs	r2, #0
 1796 0408 4FF48041 		mov	r1, #16384
 1797 040c 2046     		mov	r0, r4
 1798 040e FFF7FEFF 		bl	HAL_GPIO_WritePin
 1799              	.LVL148:
 160:ili9341/ili9341.c ****     GPIOA->ODR = (GPIOA->ODR & 0xFF00) | cmd;
 1800              		.loc 1 160 5 view .LVU516
 1801 0412 0022     		movs	r2, #0
 1802 0414 4FF40041 		mov	r1, #32768
 1803 0418 2046     		mov	r0, r4
 1804 041a FFF7FEFF 		bl	HAL_GPIO_WritePin
 1805              	.LVL149:
 161:ili9341/ili9341.c ****     WR_PAUSE();
 1806              		.loc 1 161 5 view .LVU517
 161:ili9341/ili9341.c ****     WR_PAUSE();
 1807              		.loc 1 161 24 is_stmt 0 view .LVU518
 1808 041e EB68     		ldr	r3, [r5, #12]
 161:ili9341/ili9341.c ****     WR_PAUSE();
 1809              		.loc 1 161 30 view .LVU519
 1810 0420 03F47F43 		and	r3, r3, #65280
 161:ili9341/ili9341.c ****     WR_PAUSE();
 1811              		.loc 1 161 40 view .LVU520
 1812 0424 43F01103 		orr	r3, r3, #17
 161:ili9341/ili9341.c ****     WR_PAUSE();
 1813              		.loc 1 161 16 view .LVU521
 1814 0428 EB60     		str	r3, [r5, #12]
 162:ili9341/ili9341.c ****     WR_IDLE();
 1815              		.loc 1 162 15 is_stmt 1 view .LVU522
 163:ili9341/ili9341.c ****     RS_DATA();
 1816              		.loc 1 163 5 view .LVU523
 1817 042a 0122     		movs	r2, #1
 1818 042c 4FF40041 		mov	r1, #32768
 1819 0430 2046     		mov	r0, r4
 1820 0432 FFF7FEFF 		bl	HAL_GPIO_WritePin
 1821              	.LVL150:
 164:ili9341/ili9341.c **** }
 1822              		.loc 1 164 5 view .LVU524
 1823 0436 0122     		movs	r2, #1
ARM GAS  /tmp/cc0CFvsY.s 			page 48


 1824 0438 4FF48041 		mov	r1, #16384
 1825 043c 2046     		mov	r0, r4
 1826 043e FFF7FEFF 		bl	HAL_GPIO_WritePin
 1827              	.LVL151:
 164:ili9341/ili9341.c **** }
 1828              		.loc 1 164 5 is_stmt 0 view .LVU525
 1829              	.LBE286:
 1830              	.LBE285:
 363:ili9341/ili9341.c **** 
 1831              		.loc 1 363 5 is_stmt 1 view .LVU526
 1832              	.LBB287:
 1833              	.LBI287:
 223:ili9341/ili9341.c **** {
 1834              		.loc 1 223 20 view .LVU527
 1835              	.LBB288:
 225:ili9341/ili9341.c **** }
 1836              		.loc 1 225 5 view .LVU528
 1837 0442 0122     		movs	r2, #1
 1838 0444 4FF40051 		mov	r1, #8192
 1839 0448 2046     		mov	r0, r4
 1840 044a FFF7FEFF 		bl	HAL_GPIO_WritePin
 1841              	.LVL152:
 1842              	.LBE288:
 1843              	.LBE287:
 365:ili9341/ili9341.c **** 
 1844              		.loc 1 365 2 view .LVU529
 1845 044e 7820     		movs	r0, #120
 1846 0450 FFF7FEFF 		bl	HAL_Delay
 1847              	.LVL153:
 368:ili9341/ili9341.c **** 
 1848              		.loc 1 368 2 view .LVU530
 1849 0454 0320     		movs	r0, #3
 1850 0456 FFF7FEFF 		bl	ili9341_set_orientation
 1851              	.LVL154:
 371:ili9341/ili9341.c ****   	send_cmd(LCD_DISPLAY_ON);
 1852              		.loc 1 371 5 view .LVU531
 1853              	.LBB289:
 1854              	.LBI289:
 179:ili9341/ili9341.c **** {
 1855              		.loc 1 179 20 view .LVU532
 1856              	.LBB290:
 181:ili9341/ili9341.c **** }
 1857              		.loc 1 181 5 view .LVU533
 1858 045a 0022     		movs	r2, #0
 1859 045c 4FF40051 		mov	r1, #8192
 1860 0460 2046     		mov	r0, r4
 1861 0462 FFF7FEFF 		bl	HAL_GPIO_WritePin
 1862              	.LVL155:
 1863              	.LBE290:
 1864              	.LBE289:
 372:ili9341/ili9341.c ****     transmition_close();
 1865              		.loc 1 372 4 view .LVU534
 1866              	.LBB291:
 1867              	.LBI291:
 157:ili9341/ili9341.c **** {
 1868              		.loc 1 157 20 view .LVU535
 1869              	.LBB292:
ARM GAS  /tmp/cc0CFvsY.s 			page 49


 159:ili9341/ili9341.c ****     WR_ACTIVE();
 1870              		.loc 1 159 5 view .LVU536
 1871 0466 0022     		movs	r2, #0
 1872 0468 4FF48041 		mov	r1, #16384
 1873 046c 2046     		mov	r0, r4
 1874 046e FFF7FEFF 		bl	HAL_GPIO_WritePin
 1875              	.LVL156:
 160:ili9341/ili9341.c ****     GPIOA->ODR = (GPIOA->ODR & 0xFF00) | cmd;
 1876              		.loc 1 160 5 view .LVU537
 1877 0472 0022     		movs	r2, #0
 1878 0474 4FF40041 		mov	r1, #32768
 1879 0478 2046     		mov	r0, r4
 1880 047a FFF7FEFF 		bl	HAL_GPIO_WritePin
 1881              	.LVL157:
 161:ili9341/ili9341.c ****     WR_PAUSE();
 1882              		.loc 1 161 5 view .LVU538
 161:ili9341/ili9341.c ****     WR_PAUSE();
 1883              		.loc 1 161 24 is_stmt 0 view .LVU539
 1884 047e EB68     		ldr	r3, [r5, #12]
 161:ili9341/ili9341.c ****     WR_PAUSE();
 1885              		.loc 1 161 30 view .LVU540
 1886 0480 03F47F43 		and	r3, r3, #65280
 161:ili9341/ili9341.c ****     WR_PAUSE();
 1887              		.loc 1 161 40 view .LVU541
 1888 0484 43F02903 		orr	r3, r3, #41
 161:ili9341/ili9341.c ****     WR_PAUSE();
 1889              		.loc 1 161 16 view .LVU542
 1890 0488 EB60     		str	r3, [r5, #12]
 162:ili9341/ili9341.c ****     WR_IDLE();
 1891              		.loc 1 162 15 is_stmt 1 view .LVU543
 163:ili9341/ili9341.c ****     RS_DATA();
 1892              		.loc 1 163 5 view .LVU544
 1893 048a 0122     		movs	r2, #1
 1894 048c 4FF40041 		mov	r1, #32768
 1895 0490 2046     		mov	r0, r4
 1896 0492 FFF7FEFF 		bl	HAL_GPIO_WritePin
 1897              	.LVL158:
 164:ili9341/ili9341.c **** }
 1898              		.loc 1 164 5 view .LVU545
 1899 0496 0122     		movs	r2, #1
 1900 0498 4FF48041 		mov	r1, #16384
 1901 049c 2046     		mov	r0, r4
 1902 049e FFF7FEFF 		bl	HAL_GPIO_WritePin
 1903              	.LVL159:
 164:ili9341/ili9341.c **** }
 1904              		.loc 1 164 5 is_stmt 0 view .LVU546
 1905              	.LBE292:
 1906              	.LBE291:
 373:ili9341/ili9341.c **** 
 1907              		.loc 1 373 5 is_stmt 1 view .LVU547
 1908              	.LBB293:
 1909              	.LBI293:
 223:ili9341/ili9341.c **** {
 1910              		.loc 1 223 20 view .LVU548
 1911              	.LBB294:
 225:ili9341/ili9341.c **** }
 1912              		.loc 1 225 5 view .LVU549
ARM GAS  /tmp/cc0CFvsY.s 			page 50


 1913 04a2 0122     		movs	r2, #1
 1914 04a4 4FF40051 		mov	r1, #8192
 1915 04a8 2046     		mov	r0, r4
 1916 04aa FFF7FEFF 		bl	HAL_GPIO_WritePin
 1917              	.LVL160:
 1918              	.LBE294:
 1919              	.LBE293:
 375:ili9341/ili9341.c **** }
 1920              		.loc 1 375 5 view .LVU550
 1921 04ae 0020     		movs	r0, #0
 1922 04b0 0090     		str	r0, [sp]
 1923 04b2 EF23     		movs	r3, #239
 1924 04b4 40F23F12 		movw	r2, #319
 1925 04b8 0146     		mov	r1, r0
 1926 04ba FFF7FEFF 		bl	ili9341_fill_area
 1927              	.LVL161:
 376:ili9341/ili9341.c **** 
 1928              		.loc 1 376 1 is_stmt 0 view .LVU551
 1929 04be 03B0     		add	sp, sp, #12
 1930              	.LCFI9:
 1931              		.cfi_def_cfa_offset 12
 1932              		@ sp needed
 1933 04c0 30BD     		pop	{r4, r5, pc}
 1934              		.cfi_endproc
 1935              	.LFE80:
 1937 04c2 00BF     		.section	.text.ili9341_set_address_windows,"ax",%progbits
 1938              		.align	1
 1939              		.global	ili9341_set_address_windows
 1940              		.syntax unified
 1941              		.thumb
 1942              		.thumb_func
 1943              		.fpu softvfp
 1945              	ili9341_set_address_windows:
 1946              	.LVL162:
 1947              	.LFB82:
 394:ili9341/ili9341.c **** 
 395:ili9341/ili9341.c **** void ili9341_set_address_windows(uint16_t x, uint16_t w, uint16_t y, uint16_t h)
 396:ili9341/ili9341.c **** {
 1948              		.loc 1 396 1 is_stmt 1 view -0
 1949              		.cfi_startproc
 1950              		@ args = 0, pretend = 0, frame = 0
 1951              		@ frame_needed = 0, uses_anonymous_args = 0
 1952              		.loc 1 396 1 is_stmt 0 view .LVU553
 1953 0000 2DE9F843 		push	{r3, r4, r5, r6, r7, r8, r9, lr}
 1954              	.LCFI10:
 1955              		.cfi_def_cfa_offset 32
 1956              		.cfi_offset 3, -32
 1957              		.cfi_offset 4, -28
 1958              		.cfi_offset 5, -24
 1959              		.cfi_offset 6, -20
 1960              		.cfi_offset 7, -16
 1961              		.cfi_offset 8, -12
 1962              		.cfi_offset 9, -8
 1963              		.cfi_offset 14, -4
 1964 0004 0746     		mov	r7, r0
 1965 0006 8946     		mov	r9, r1
 1966 0008 1646     		mov	r6, r2
ARM GAS  /tmp/cc0CFvsY.s 			page 51


 1967 000a 9846     		mov	r8, r3
 397:ili9341/ili9341.c ****     transmition_open();
 1968              		.loc 1 397 5 is_stmt 1 view .LVU554
 1969              	.LBB311:
 1970              	.LBI311:
 179:ili9341/ili9341.c **** {
 1971              		.loc 1 179 20 view .LVU555
 1972              	.LBB312:
 181:ili9341/ili9341.c **** }
 1973              		.loc 1 181 5 view .LVU556
 1974 000c 6F4C     		ldr	r4, .L30
 1975 000e 0022     		movs	r2, #0
 1976              	.LVL163:
 181:ili9341/ili9341.c **** }
 1977              		.loc 1 181 5 is_stmt 0 view .LVU557
 1978 0010 4FF40051 		mov	r1, #8192
 1979              	.LVL164:
 181:ili9341/ili9341.c **** }
 1980              		.loc 1 181 5 view .LVU558
 1981 0014 2046     		mov	r0, r4
 1982              	.LVL165:
 181:ili9341/ili9341.c **** }
 1983              		.loc 1 181 5 view .LVU559
 1984 0016 FFF7FEFF 		bl	HAL_GPIO_WritePin
 1985              	.LVL166:
 181:ili9341/ili9341.c **** }
 1986              		.loc 1 181 5 view .LVU560
 1987              	.LBE312:
 1988              	.LBE311:
 398:ili9341/ili9341.c ****     send_cmd(LCD_COLUMN_ADDR);
 1989              		.loc 1 398 5 is_stmt 1 view .LVU561
 1990              	.LBB313:
 1991              	.LBI313:
 157:ili9341/ili9341.c **** {
 1992              		.loc 1 157 20 view .LVU562
 1993              	.LBB314:
 159:ili9341/ili9341.c ****     WR_ACTIVE();
 1994              		.loc 1 159 5 view .LVU563
 1995 001a 0022     		movs	r2, #0
 1996 001c 4FF48041 		mov	r1, #16384
 1997 0020 2046     		mov	r0, r4
 1998 0022 FFF7FEFF 		bl	HAL_GPIO_WritePin
 1999              	.LVL167:
 160:ili9341/ili9341.c ****     GPIOA->ODR = (GPIOA->ODR & 0xFF00) | cmd;
 2000              		.loc 1 160 5 view .LVU564
 2001 0026 0022     		movs	r2, #0
 2002 0028 4FF40041 		mov	r1, #32768
 2003 002c 2046     		mov	r0, r4
 2004 002e FFF7FEFF 		bl	HAL_GPIO_WritePin
 2005              	.LVL168:
 161:ili9341/ili9341.c ****     WR_PAUSE();
 2006              		.loc 1 161 5 view .LVU565
 161:ili9341/ili9341.c ****     WR_PAUSE();
 2007              		.loc 1 161 24 is_stmt 0 view .LVU566
 2008 0032 674D     		ldr	r5, .L30+4
 2009 0034 EB68     		ldr	r3, [r5, #12]
 161:ili9341/ili9341.c ****     WR_PAUSE();
ARM GAS  /tmp/cc0CFvsY.s 			page 52


 2010              		.loc 1 161 30 view .LVU567
 2011 0036 03F47F43 		and	r3, r3, #65280
 161:ili9341/ili9341.c ****     WR_PAUSE();
 2012              		.loc 1 161 40 view .LVU568
 2013 003a 43F02A03 		orr	r3, r3, #42
 161:ili9341/ili9341.c ****     WR_PAUSE();
 2014              		.loc 1 161 16 view .LVU569
 2015 003e EB60     		str	r3, [r5, #12]
 162:ili9341/ili9341.c ****     WR_IDLE();
 2016              		.loc 1 162 15 is_stmt 1 view .LVU570
 163:ili9341/ili9341.c ****     RS_DATA();
 2017              		.loc 1 163 5 view .LVU571
 2018 0040 0122     		movs	r2, #1
 2019 0042 4FF40041 		mov	r1, #32768
 2020 0046 2046     		mov	r0, r4
 2021 0048 FFF7FEFF 		bl	HAL_GPIO_WritePin
 2022              	.LVL169:
 164:ili9341/ili9341.c **** }
 2023              		.loc 1 164 5 view .LVU572
 2024 004c 0122     		movs	r2, #1
 2025 004e 4FF48041 		mov	r1, #16384
 2026 0052 2046     		mov	r0, r4
 2027 0054 FFF7FEFF 		bl	HAL_GPIO_WritePin
 2028              	.LVL170:
 164:ili9341/ili9341.c **** }
 2029              		.loc 1 164 5 is_stmt 0 view .LVU573
 2030              	.LBE314:
 2031              	.LBE313:
 399:ili9341/ili9341.c **** 
 400:ili9341/ili9341.c ****     send_data16(x);
 2032              		.loc 1 400 5 is_stmt 1 view .LVU574
 2033              	.LBB315:
 2034              	.LBI315:
 212:ili9341/ili9341.c **** {
 2035              		.loc 1 212 20 view .LVU575
 2036              	.LBB316:
 214:ili9341/ili9341.c ****     GPIOA->ODR = (GPIOA->ODR & 0xFF00) | (data >> 8);
 2037              		.loc 1 214 5 view .LVU576
 2038 0058 0022     		movs	r2, #0
 2039 005a 4FF40041 		mov	r1, #32768
 2040 005e 2046     		mov	r0, r4
 2041 0060 FFF7FEFF 		bl	HAL_GPIO_WritePin
 2042              	.LVL171:
 215:ili9341/ili9341.c ****     WR_IDLE();
 2043              		.loc 1 215 5 view .LVU577
 215:ili9341/ili9341.c ****     WR_IDLE();
 2044              		.loc 1 215 24 is_stmt 0 view .LVU578
 2045 0064 EB68     		ldr	r3, [r5, #12]
 215:ili9341/ili9341.c ****     WR_IDLE();
 2046              		.loc 1 215 30 view .LVU579
 2047 0066 03F47F43 		and	r3, r3, #65280
 215:ili9341/ili9341.c ****     WR_IDLE();
 2048              		.loc 1 215 40 view .LVU580
 2049 006a 43EA1723 		orr	r3, r3, r7, lsr #8
 215:ili9341/ili9341.c ****     WR_IDLE();
 2050              		.loc 1 215 16 view .LVU581
 2051 006e EB60     		str	r3, [r5, #12]
ARM GAS  /tmp/cc0CFvsY.s 			page 53


 216:ili9341/ili9341.c **** 
 2052              		.loc 1 216 5 is_stmt 1 view .LVU582
 2053 0070 0122     		movs	r2, #1
 2054 0072 4FF40041 		mov	r1, #32768
 2055 0076 2046     		mov	r0, r4
 2056 0078 FFF7FEFF 		bl	HAL_GPIO_WritePin
 2057              	.LVL172:
 218:ili9341/ili9341.c ****     GPIOA->ODR = (GPIOA->ODR & 0xFF00) | (data & 0x00FF);
 2058              		.loc 1 218 5 view .LVU583
 2059 007c 0022     		movs	r2, #0
 2060 007e 4FF40041 		mov	r1, #32768
 2061 0082 2046     		mov	r0, r4
 2062 0084 FFF7FEFF 		bl	HAL_GPIO_WritePin
 2063              	.LVL173:
 219:ili9341/ili9341.c ****     WR_IDLE();
 2064              		.loc 1 219 5 view .LVU584
 219:ili9341/ili9341.c ****     WR_IDLE();
 2065              		.loc 1 219 24 is_stmt 0 view .LVU585
 2066 0088 EB68     		ldr	r3, [r5, #12]
 219:ili9341/ili9341.c ****     WR_IDLE();
 2067              		.loc 1 219 30 view .LVU586
 2068 008a 03F47F43 		and	r3, r3, #65280
 219:ili9341/ili9341.c ****     WR_IDLE();
 2069              		.loc 1 219 48 view .LVU587
 2070 008e FAB2     		uxtb	r2, r7
 219:ili9341/ili9341.c ****     WR_IDLE();
 2071              		.loc 1 219 40 view .LVU588
 2072 0090 1343     		orrs	r3, r3, r2
 219:ili9341/ili9341.c ****     WR_IDLE();
 2073              		.loc 1 219 16 view .LVU589
 2074 0092 EB60     		str	r3, [r5, #12]
 220:ili9341/ili9341.c **** }
 2075              		.loc 1 220 5 is_stmt 1 view .LVU590
 2076 0094 0122     		movs	r2, #1
 2077 0096 4FF40041 		mov	r1, #32768
 2078 009a 2046     		mov	r0, r4
 2079 009c FFF7FEFF 		bl	HAL_GPIO_WritePin
 2080              	.LVL174:
 220:ili9341/ili9341.c **** }
 2081              		.loc 1 220 5 is_stmt 0 view .LVU591
 2082              	.LBE316:
 2083              	.LBE315:
 401:ili9341/ili9341.c ****     send_data16(x + w);
 2084              		.loc 1 401 5 is_stmt 1 view .LVU592
 2085 00a0 4F44     		add	r7, r7, r9
 2086 00a2 BFB2     		uxth	r7, r7
 2087              	.LVL175:
 2088              	.LBB317:
 2089              	.LBI317:
 212:ili9341/ili9341.c **** {
 2090              		.loc 1 212 20 view .LVU593
 2091              	.LBB318:
 214:ili9341/ili9341.c ****     GPIOA->ODR = (GPIOA->ODR & 0xFF00) | (data >> 8);
 2092              		.loc 1 214 5 view .LVU594
 2093 00a4 0022     		movs	r2, #0
 2094 00a6 4FF40041 		mov	r1, #32768
 2095 00aa 2046     		mov	r0, r4
ARM GAS  /tmp/cc0CFvsY.s 			page 54


 2096 00ac FFF7FEFF 		bl	HAL_GPIO_WritePin
 2097              	.LVL176:
 215:ili9341/ili9341.c ****     WR_IDLE();
 2098              		.loc 1 215 5 view .LVU595
 215:ili9341/ili9341.c ****     WR_IDLE();
 2099              		.loc 1 215 24 is_stmt 0 view .LVU596
 2100 00b0 EB68     		ldr	r3, [r5, #12]
 215:ili9341/ili9341.c ****     WR_IDLE();
 2101              		.loc 1 215 30 view .LVU597
 2102 00b2 03F47F43 		and	r3, r3, #65280
 215:ili9341/ili9341.c ****     WR_IDLE();
 2103              		.loc 1 215 40 view .LVU598
 2104 00b6 43EA1723 		orr	r3, r3, r7, lsr #8
 215:ili9341/ili9341.c ****     WR_IDLE();
 2105              		.loc 1 215 16 view .LVU599
 2106 00ba EB60     		str	r3, [r5, #12]
 216:ili9341/ili9341.c **** 
 2107              		.loc 1 216 5 is_stmt 1 view .LVU600
 2108 00bc 0122     		movs	r2, #1
 2109 00be 4FF40041 		mov	r1, #32768
 2110 00c2 2046     		mov	r0, r4
 2111 00c4 FFF7FEFF 		bl	HAL_GPIO_WritePin
 2112              	.LVL177:
 218:ili9341/ili9341.c ****     GPIOA->ODR = (GPIOA->ODR & 0xFF00) | (data & 0x00FF);
 2113              		.loc 1 218 5 view .LVU601
 2114 00c8 0022     		movs	r2, #0
 2115 00ca 4FF40041 		mov	r1, #32768
 2116 00ce 2046     		mov	r0, r4
 2117 00d0 FFF7FEFF 		bl	HAL_GPIO_WritePin
 2118              	.LVL178:
 219:ili9341/ili9341.c ****     WR_IDLE();
 2119              		.loc 1 219 5 view .LVU602
 219:ili9341/ili9341.c ****     WR_IDLE();
 2120              		.loc 1 219 24 is_stmt 0 view .LVU603
 2121 00d4 EB68     		ldr	r3, [r5, #12]
 219:ili9341/ili9341.c ****     WR_IDLE();
 2122              		.loc 1 219 30 view .LVU604
 2123 00d6 03F47F43 		and	r3, r3, #65280
 219:ili9341/ili9341.c ****     WR_IDLE();
 2124              		.loc 1 219 48 view .LVU605
 2125 00da FFB2     		uxtb	r7, r7
 2126              	.LVL179:
 219:ili9341/ili9341.c ****     WR_IDLE();
 2127              		.loc 1 219 40 view .LVU606
 2128 00dc 1F43     		orrs	r7, r7, r3
 219:ili9341/ili9341.c ****     WR_IDLE();
 2129              		.loc 1 219 16 view .LVU607
 2130 00de EF60     		str	r7, [r5, #12]
 220:ili9341/ili9341.c **** }
 2131              		.loc 1 220 5 is_stmt 1 view .LVU608
 2132 00e0 0122     		movs	r2, #1
 2133 00e2 4FF40041 		mov	r1, #32768
 2134 00e6 2046     		mov	r0, r4
 2135 00e8 FFF7FEFF 		bl	HAL_GPIO_WritePin
 2136              	.LVL180:
 220:ili9341/ili9341.c **** }
 2137              		.loc 1 220 5 is_stmt 0 view .LVU609
ARM GAS  /tmp/cc0CFvsY.s 			page 55


 2138              	.LBE318:
 2139              	.LBE317:
 402:ili9341/ili9341.c **** 
 403:ili9341/ili9341.c **** 
 404:ili9341/ili9341.c ****     send_cmd(LCD_PAGE_ADDR);
 2140              		.loc 1 404 5 is_stmt 1 view .LVU610
 2141              	.LBB319:
 2142              	.LBI319:
 157:ili9341/ili9341.c **** {
 2143              		.loc 1 157 20 view .LVU611
 2144              	.LBB320:
 159:ili9341/ili9341.c ****     WR_ACTIVE();
 2145              		.loc 1 159 5 view .LVU612
 2146 00ec 0022     		movs	r2, #0
 2147 00ee 4FF48041 		mov	r1, #16384
 2148 00f2 2046     		mov	r0, r4
 2149 00f4 FFF7FEFF 		bl	HAL_GPIO_WritePin
 2150              	.LVL181:
 160:ili9341/ili9341.c ****     GPIOA->ODR = (GPIOA->ODR & 0xFF00) | cmd;
 2151              		.loc 1 160 5 view .LVU613
 2152 00f8 0022     		movs	r2, #0
 2153 00fa 4FF40041 		mov	r1, #32768
 2154 00fe 2046     		mov	r0, r4
 2155 0100 FFF7FEFF 		bl	HAL_GPIO_WritePin
 2156              	.LVL182:
 161:ili9341/ili9341.c ****     WR_PAUSE();
 2157              		.loc 1 161 5 view .LVU614
 161:ili9341/ili9341.c ****     WR_PAUSE();
 2158              		.loc 1 161 24 is_stmt 0 view .LVU615
 2159 0104 EB68     		ldr	r3, [r5, #12]
 161:ili9341/ili9341.c ****     WR_PAUSE();
 2160              		.loc 1 161 30 view .LVU616
 2161 0106 03F47F43 		and	r3, r3, #65280
 161:ili9341/ili9341.c ****     WR_PAUSE();
 2162              		.loc 1 161 40 view .LVU617
 2163 010a 43F02B03 		orr	r3, r3, #43
 161:ili9341/ili9341.c ****     WR_PAUSE();
 2164              		.loc 1 161 16 view .LVU618
 2165 010e EB60     		str	r3, [r5, #12]
 162:ili9341/ili9341.c ****     WR_IDLE();
 2166              		.loc 1 162 15 is_stmt 1 view .LVU619
 163:ili9341/ili9341.c ****     RS_DATA();
 2167              		.loc 1 163 5 view .LVU620
 2168 0110 0122     		movs	r2, #1
 2169 0112 4FF40041 		mov	r1, #32768
 2170 0116 2046     		mov	r0, r4
 2171 0118 FFF7FEFF 		bl	HAL_GPIO_WritePin
 2172              	.LVL183:
 164:ili9341/ili9341.c **** }
 2173              		.loc 1 164 5 view .LVU621
 2174 011c 0122     		movs	r2, #1
 2175 011e 4FF48041 		mov	r1, #16384
 2176 0122 2046     		mov	r0, r4
 2177 0124 FFF7FEFF 		bl	HAL_GPIO_WritePin
 2178              	.LVL184:
 164:ili9341/ili9341.c **** }
 2179              		.loc 1 164 5 is_stmt 0 view .LVU622
ARM GAS  /tmp/cc0CFvsY.s 			page 56


 2180              	.LBE320:
 2181              	.LBE319:
 405:ili9341/ili9341.c ****     send_data16(y);
 2182              		.loc 1 405 5 is_stmt 1 view .LVU623
 2183              	.LBB321:
 2184              	.LBI321:
 212:ili9341/ili9341.c **** {
 2185              		.loc 1 212 20 view .LVU624
 2186              	.LBB322:
 214:ili9341/ili9341.c ****     GPIOA->ODR = (GPIOA->ODR & 0xFF00) | (data >> 8);
 2187              		.loc 1 214 5 view .LVU625
 2188 0128 0022     		movs	r2, #0
 2189 012a 4FF40041 		mov	r1, #32768
 2190 012e 2046     		mov	r0, r4
 2191 0130 FFF7FEFF 		bl	HAL_GPIO_WritePin
 2192              	.LVL185:
 215:ili9341/ili9341.c ****     WR_IDLE();
 2193              		.loc 1 215 5 view .LVU626
 215:ili9341/ili9341.c ****     WR_IDLE();
 2194              		.loc 1 215 24 is_stmt 0 view .LVU627
 2195 0134 EB68     		ldr	r3, [r5, #12]
 215:ili9341/ili9341.c ****     WR_IDLE();
 2196              		.loc 1 215 30 view .LVU628
 2197 0136 03F47F43 		and	r3, r3, #65280
 215:ili9341/ili9341.c ****     WR_IDLE();
 2198              		.loc 1 215 40 view .LVU629
 2199 013a 43EA1623 		orr	r3, r3, r6, lsr #8
 215:ili9341/ili9341.c ****     WR_IDLE();
 2200              		.loc 1 215 16 view .LVU630
 2201 013e EB60     		str	r3, [r5, #12]
 216:ili9341/ili9341.c **** 
 2202              		.loc 1 216 5 is_stmt 1 view .LVU631
 2203 0140 0122     		movs	r2, #1
 2204 0142 4FF40041 		mov	r1, #32768
 2205 0146 2046     		mov	r0, r4
 2206 0148 FFF7FEFF 		bl	HAL_GPIO_WritePin
 2207              	.LVL186:
 218:ili9341/ili9341.c ****     GPIOA->ODR = (GPIOA->ODR & 0xFF00) | (data & 0x00FF);
 2208              		.loc 1 218 5 view .LVU632
 2209 014c 0022     		movs	r2, #0
 2210 014e 4FF40041 		mov	r1, #32768
 2211 0152 2046     		mov	r0, r4
 2212 0154 FFF7FEFF 		bl	HAL_GPIO_WritePin
 2213              	.LVL187:
 219:ili9341/ili9341.c ****     WR_IDLE();
 2214              		.loc 1 219 5 view .LVU633
 219:ili9341/ili9341.c ****     WR_IDLE();
 2215              		.loc 1 219 24 is_stmt 0 view .LVU634
 2216 0158 E968     		ldr	r1, [r5, #12]
 219:ili9341/ili9341.c ****     WR_IDLE();
 2217              		.loc 1 219 30 view .LVU635
 2218 015a 01F47F41 		and	r1, r1, #65280
 219:ili9341/ili9341.c ****     WR_IDLE();
 2219              		.loc 1 219 48 view .LVU636
 2220 015e F3B2     		uxtb	r3, r6
 219:ili9341/ili9341.c ****     WR_IDLE();
 2221              		.loc 1 219 40 view .LVU637
ARM GAS  /tmp/cc0CFvsY.s 			page 57


 2222 0160 1943     		orrs	r1, r1, r3
 219:ili9341/ili9341.c ****     WR_IDLE();
 2223              		.loc 1 219 16 view .LVU638
 2224 0162 E960     		str	r1, [r5, #12]
 220:ili9341/ili9341.c **** }
 2225              		.loc 1 220 5 is_stmt 1 view .LVU639
 2226 0164 0122     		movs	r2, #1
 2227 0166 4FF40041 		mov	r1, #32768
 2228 016a 2046     		mov	r0, r4
 2229 016c FFF7FEFF 		bl	HAL_GPIO_WritePin
 2230              	.LVL188:
 220:ili9341/ili9341.c **** }
 2231              		.loc 1 220 5 is_stmt 0 view .LVU640
 2232              	.LBE322:
 2233              	.LBE321:
 406:ili9341/ili9341.c ****     send_data16(y + h);
 2234              		.loc 1 406 5 is_stmt 1 view .LVU641
 2235 0170 4644     		add	r6, r6, r8
 2236 0172 B6B2     		uxth	r6, r6
 2237              	.LVL189:
 2238              	.LBB323:
 2239              	.LBI323:
 212:ili9341/ili9341.c **** {
 2240              		.loc 1 212 20 view .LVU642
 2241              	.LBB324:
 214:ili9341/ili9341.c ****     GPIOA->ODR = (GPIOA->ODR & 0xFF00) | (data >> 8);
 2242              		.loc 1 214 5 view .LVU643
 2243 0174 0022     		movs	r2, #0
 2244 0176 4FF40041 		mov	r1, #32768
 2245 017a 2046     		mov	r0, r4
 2246 017c FFF7FEFF 		bl	HAL_GPIO_WritePin
 2247              	.LVL190:
 215:ili9341/ili9341.c ****     WR_IDLE();
 2248              		.loc 1 215 5 view .LVU644
 215:ili9341/ili9341.c ****     WR_IDLE();
 2249              		.loc 1 215 24 is_stmt 0 view .LVU645
 2250 0180 EB68     		ldr	r3, [r5, #12]
 215:ili9341/ili9341.c ****     WR_IDLE();
 2251              		.loc 1 215 30 view .LVU646
 2252 0182 03F47F43 		and	r3, r3, #65280
 215:ili9341/ili9341.c ****     WR_IDLE();
 2253              		.loc 1 215 40 view .LVU647
 2254 0186 43EA1623 		orr	r3, r3, r6, lsr #8
 215:ili9341/ili9341.c ****     WR_IDLE();
 2255              		.loc 1 215 16 view .LVU648
 2256 018a EB60     		str	r3, [r5, #12]
 216:ili9341/ili9341.c **** 
 2257              		.loc 1 216 5 is_stmt 1 view .LVU649
 2258 018c 0122     		movs	r2, #1
 2259 018e 4FF40041 		mov	r1, #32768
 2260 0192 2046     		mov	r0, r4
 2261 0194 FFF7FEFF 		bl	HAL_GPIO_WritePin
 2262              	.LVL191:
 218:ili9341/ili9341.c ****     GPIOA->ODR = (GPIOA->ODR & 0xFF00) | (data & 0x00FF);
 2263              		.loc 1 218 5 view .LVU650
 2264 0198 0022     		movs	r2, #0
 2265 019a 4FF40041 		mov	r1, #32768
ARM GAS  /tmp/cc0CFvsY.s 			page 58


 2266 019e 2046     		mov	r0, r4
 2267 01a0 FFF7FEFF 		bl	HAL_GPIO_WritePin
 2268              	.LVL192:
 219:ili9341/ili9341.c ****     WR_IDLE();
 2269              		.loc 1 219 5 view .LVU651
 219:ili9341/ili9341.c ****     WR_IDLE();
 2270              		.loc 1 219 24 is_stmt 0 view .LVU652
 2271 01a4 EB68     		ldr	r3, [r5, #12]
 219:ili9341/ili9341.c ****     WR_IDLE();
 2272              		.loc 1 219 30 view .LVU653
 2273 01a6 03F47F43 		and	r3, r3, #65280
 219:ili9341/ili9341.c ****     WR_IDLE();
 2274              		.loc 1 219 48 view .LVU654
 2275 01aa F6B2     		uxtb	r6, r6
 2276              	.LVL193:
 219:ili9341/ili9341.c ****     WR_IDLE();
 2277              		.loc 1 219 40 view .LVU655
 2278 01ac 1E43     		orrs	r6, r6, r3
 219:ili9341/ili9341.c ****     WR_IDLE();
 2279              		.loc 1 219 16 view .LVU656
 2280 01ae EE60     		str	r6, [r5, #12]
 220:ili9341/ili9341.c **** }
 2281              		.loc 1 220 5 is_stmt 1 view .LVU657
 2282 01b0 0122     		movs	r2, #1
 2283 01b2 4FF40041 		mov	r1, #32768
 2284 01b6 2046     		mov	r0, r4
 2285 01b8 FFF7FEFF 		bl	HAL_GPIO_WritePin
 2286              	.LVL194:
 220:ili9341/ili9341.c **** }
 2287              		.loc 1 220 5 is_stmt 0 view .LVU658
 2288              	.LBE324:
 2289              	.LBE323:
 407:ili9341/ili9341.c **** 
 408:ili9341/ili9341.c ****     transmition_close();
 2290              		.loc 1 408 5 is_stmt 1 view .LVU659
 2291              	.LBB325:
 2292              	.LBI325:
 223:ili9341/ili9341.c **** {
 2293              		.loc 1 223 20 view .LVU660
 2294              	.LBB326:
 225:ili9341/ili9341.c **** }
 2295              		.loc 1 225 5 view .LVU661
 2296 01bc 0122     		movs	r2, #1
 2297 01be 4FF40051 		mov	r1, #8192
 2298 01c2 2046     		mov	r0, r4
 2299 01c4 FFF7FEFF 		bl	HAL_GPIO_WritePin
 2300              	.LVL195:
 2301              	.LBE326:
 2302              	.LBE325:
 409:ili9341/ili9341.c **** }
 2303              		.loc 1 409 1 is_stmt 0 view .LVU662
 2304 01c8 BDE8F883 		pop	{r3, r4, r5, r6, r7, r8, r9, pc}
 2305              	.L31:
 2306              		.align	2
 2307              	.L30:
 2308 01cc 000C0140 		.word	1073810432
 2309 01d0 00080140 		.word	1073809408
ARM GAS  /tmp/cc0CFvsY.s 			page 59


 2310              		.cfi_endproc
 2311              	.LFE82:
 2313              		.section	.text.ili9341_mem_read,"ax",%progbits
 2314              		.align	1
 2315              		.global	ili9341_mem_read
 2316              		.syntax unified
 2317              		.thumb
 2318              		.thumb_func
 2319              		.fpu softvfp
 2321              	ili9341_mem_read:
 2322              	.LVL196:
 2323              	.LFB83:
 410:ili9341/ili9341.c **** 
 411:ili9341/ili9341.c **** void ili9341_mem_read(uint8_t *data, uint16_t len, bool skip_first_byte)
 412:ili9341/ili9341.c **** {
 2324              		.loc 1 412 1 is_stmt 1 view -0
 2325              		.cfi_startproc
 2326              		@ args = 0, pretend = 0, frame = 8
 2327              		@ frame_needed = 0, uses_anonymous_args = 0
 2328              		.loc 1 412 1 is_stmt 0 view .LVU664
 2329 0000 2DE9F041 		push	{r4, r5, r6, r7, r8, lr}
 2330              	.LCFI11:
 2331              		.cfi_def_cfa_offset 24
 2332              		.cfi_offset 4, -24
 2333              		.cfi_offset 5, -20
 2334              		.cfi_offset 6, -16
 2335              		.cfi_offset 7, -12
 2336              		.cfi_offset 8, -8
 2337              		.cfi_offset 14, -4
 2338 0004 82B0     		sub	sp, sp, #8
 2339              	.LCFI12:
 2340              		.cfi_def_cfa_offset 32
 2341 0006 0546     		mov	r5, r0
 2342 0008 0E46     		mov	r6, r1
 2343 000a 1746     		mov	r7, r2
 413:ili9341/ili9341.c ****     transmition_open();
 2344              		.loc 1 413 5 is_stmt 1 view .LVU665
 2345              	.LBB348:
 2346              	.LBI348:
 179:ili9341/ili9341.c **** {
 2347              		.loc 1 179 20 view .LVU666
 2348              	.LBB349:
 181:ili9341/ili9341.c **** }
 2349              		.loc 1 181 5 view .LVU667
 2350 000c 414C     		ldr	r4, .L41
 2351 000e 0022     		movs	r2, #0
 2352              	.LVL197:
 181:ili9341/ili9341.c **** }
 2353              		.loc 1 181 5 is_stmt 0 view .LVU668
 2354 0010 4FF40051 		mov	r1, #8192
 2355              	.LVL198:
 181:ili9341/ili9341.c **** }
 2356              		.loc 1 181 5 view .LVU669
 2357 0014 2046     		mov	r0, r4
 2358              	.LVL199:
 181:ili9341/ili9341.c **** }
 2359              		.loc 1 181 5 view .LVU670
ARM GAS  /tmp/cc0CFvsY.s 			page 60


 2360 0016 FFF7FEFF 		bl	HAL_GPIO_WritePin
 2361              	.LVL200:
 2362              	.LBE349:
 2363              	.LBE348:
 414:ili9341/ili9341.c ****     send_cmd(LCD_RAMRD);
 2364              		.loc 1 414 5 is_stmt 1 view .LVU671
 2365              	.LBB350:
 2366              	.LBI350:
 157:ili9341/ili9341.c **** {
 2367              		.loc 1 157 20 view .LVU672
 2368              	.LBB351:
 159:ili9341/ili9341.c ****     WR_ACTIVE();
 2369              		.loc 1 159 5 view .LVU673
 2370 001a 0022     		movs	r2, #0
 2371 001c 4FF48041 		mov	r1, #16384
 2372 0020 2046     		mov	r0, r4
 2373 0022 FFF7FEFF 		bl	HAL_GPIO_WritePin
 2374              	.LVL201:
 160:ili9341/ili9341.c ****     GPIOA->ODR = (GPIOA->ODR & 0xFF00) | cmd;
 2375              		.loc 1 160 5 view .LVU674
 2376 0026 0022     		movs	r2, #0
 2377 0028 4FF40041 		mov	r1, #32768
 2378 002c 2046     		mov	r0, r4
 2379 002e FFF7FEFF 		bl	HAL_GPIO_WritePin
 2380              	.LVL202:
 161:ili9341/ili9341.c ****     WR_PAUSE();
 2381              		.loc 1 161 5 view .LVU675
 161:ili9341/ili9341.c ****     WR_PAUSE();
 2382              		.loc 1 161 24 is_stmt 0 view .LVU676
 2383 0032 394A     		ldr	r2, .L41+4
 2384 0034 D368     		ldr	r3, [r2, #12]
 161:ili9341/ili9341.c ****     WR_PAUSE();
 2385              		.loc 1 161 30 view .LVU677
 2386 0036 03F47F43 		and	r3, r3, #65280
 161:ili9341/ili9341.c ****     WR_PAUSE();
 2387              		.loc 1 161 40 view .LVU678
 2388 003a 43F02E03 		orr	r3, r3, #46
 161:ili9341/ili9341.c ****     WR_PAUSE();
 2389              		.loc 1 161 16 view .LVU679
 2390 003e D360     		str	r3, [r2, #12]
 162:ili9341/ili9341.c ****     WR_IDLE();
 2391              		.loc 1 162 15 is_stmt 1 view .LVU680
 163:ili9341/ili9341.c ****     RS_DATA();
 2392              		.loc 1 163 5 view .LVU681
 2393 0040 0122     		movs	r2, #1
 2394 0042 4FF40041 		mov	r1, #32768
 2395 0046 2046     		mov	r0, r4
 2396 0048 FFF7FEFF 		bl	HAL_GPIO_WritePin
 2397              	.LVL203:
 164:ili9341/ili9341.c **** }
 2398              		.loc 1 164 5 view .LVU682
 2399 004c 0122     		movs	r2, #1
 2400 004e 4FF48041 		mov	r1, #16384
 2401 0052 2046     		mov	r0, r4
 2402 0054 FFF7FEFF 		bl	HAL_GPIO_WritePin
 2403              	.LVL204:
 164:ili9341/ili9341.c **** }
ARM GAS  /tmp/cc0CFvsY.s 			page 61


 2404              		.loc 1 164 5 is_stmt 0 view .LVU683
 2405              	.LBE351:
 2406              	.LBE350:
 415:ili9341/ili9341.c **** 
 416:ili9341/ili9341.c ****     if (skip_first_byte)
 2407              		.loc 1 416 5 is_stmt 1 view .LVU684
 2408              		.loc 1 416 8 is_stmt 0 view .LVU685
 2409 0058 0FB9     		cbnz	r7, .L39
 2410              	.L33:
 2411              	.LBB352:
 2412              	.LBB353:
 2413              	.LBB354:
 2414              	.LBB355:
 170:ili9341/ili9341.c ****     {
 2415              		.loc 1 170 17 discriminator 1 view .LVU686
 2416 005a 0024     		movs	r4, #0
 2417 005c 46E0     		b	.L34
 2418              	.L39:
 2419              	.LBE355:
 2420              	.LBE354:
 2421              	.LBE353:
 2422              	.LBE352:
 417:ili9341/ili9341.c ****     {
 418:ili9341/ili9341.c ****         (void)read_data();
 2423              		.loc 1 418 9 is_stmt 1 view .LVU687
 2424              	.LBB372:
 2425              	.LBI372:
 184:ili9341/ili9341.c **** {   
 2426              		.loc 1 184 23 view .LVU688
 2427              	.LBB373:
 186:ili9341/ili9341.c **** 
 2428              		.loc 1 186 5 view .LVU689
 2429              	.LBB374:
 2430              	.LBI374:
 151:ili9341/ili9341.c **** {
 2431              		.loc 1 151 20 view .LVU690
 2432              	.LBB375:
 153:ili9341/ili9341.c ****     GPIOA->BSRR = 0xFF;
 2433              		.loc 1 153 5 view .LVU691
 153:ili9341/ili9341.c ****     GPIOA->BSRR = 0xFF;
 2434              		.loc 1 153 17 is_stmt 0 view .LVU692
 2435 005e A4F58064 		sub	r4, r4, #1024
 2436 0062 4FF08833 		mov	r3, #-2004318072
 2437 0066 2360     		str	r3, [r4]
 154:ili9341/ili9341.c **** }
 2438              		.loc 1 154 5 is_stmt 1 view .LVU693
 154:ili9341/ili9341.c **** }
 2439              		.loc 1 154 17 is_stmt 0 view .LVU694
 2440 0068 FF23     		movs	r3, #255
 2441 006a 2361     		str	r3, [r4, #16]
 2442              	.LBE375:
 2443              	.LBE374:
 188:ili9341/ili9341.c ****     uint8_t data = (uint8_t)(GPIOA->IDR);
 2444              		.loc 1 188 5 is_stmt 1 view .LVU695
 2445 006c 294F     		ldr	r7, .L41
 2446 006e 0022     		movs	r2, #0
 2447 0070 4FF40061 		mov	r1, #2048
ARM GAS  /tmp/cc0CFvsY.s 			page 62


 2448 0074 3846     		mov	r0, r7
 2449 0076 FFF7FEFF 		bl	HAL_GPIO_WritePin
 2450              	.LVL205:
 189:ili9341/ili9341.c ****     RD_IDLE();
 2451              		.loc 1 189 5 view .LVU696
 189:ili9341/ili9341.c ****     RD_IDLE();
 2452              		.loc 1 189 35 is_stmt 0 view .LVU697
 2453 007a A368     		ldr	r3, [r4, #8]
 190:ili9341/ili9341.c ****     set_write_bus();
 2454              		.loc 1 190 5 is_stmt 1 view .LVU698
 2455 007c 0122     		movs	r2, #1
 2456 007e 4FF40061 		mov	r1, #2048
 2457 0082 3846     		mov	r0, r7
 2458 0084 FFF7FEFF 		bl	HAL_GPIO_WritePin
 2459              	.LVL206:
 191:ili9341/ili9341.c ****     return data;
 2460              		.loc 1 191 5 view .LVU699
 2461              	.LBB376:
 2462              	.LBI376:
 146:ili9341/ili9341.c **** {
 2463              		.loc 1 146 20 view .LVU700
 2464              	.LBB377:
 148:ili9341/ili9341.c **** }
 2465              		.loc 1 148 5 view .LVU701
 148:ili9341/ili9341.c **** }
 2466              		.loc 1 148 16 is_stmt 0 view .LVU702
 2467 0088 4FF03333 		mov	r3, #858993459
 2468 008c 2360     		str	r3, [r4]
 2469              	.LBE377:
 2470              	.LBE376:
 192:ili9341/ili9341.c **** }
 2471              		.loc 1 192 5 is_stmt 1 view .LVU703
 192:ili9341/ili9341.c **** }
 2472              		.loc 1 192 12 is_stmt 0 view .LVU704
 2473 008e E4E7     		b	.L33
 2474              	.LVL207:
 2475              	.L36:
 192:ili9341/ili9341.c **** }
 2476              		.loc 1 192 12 view .LVU705
 2477              	.LBE373:
 2478              	.LBE372:
 2479              	.LBB378:
 2480              	.LBB367:
 2481              	.LBB362:
 2482              	.LBB356:
 172:ili9341/ili9341.c ****         data[i] = (uint8_t)(GPIOA->IDR);
 2483              		.loc 1 172 9 is_stmt 1 view .LVU706
 2484 0090 DFF88080 		ldr	r8, .L41
 2485 0094 0022     		movs	r2, #0
 2486 0096 4FF40061 		mov	r1, #2048
 2487 009a 4046     		mov	r0, r8
 2488 009c FFF7FEFF 		bl	HAL_GPIO_WritePin
 2489              	.LVL208:
 173:ili9341/ili9341.c ****         RD_IDLE();
 2490              		.loc 1 173 9 view .LVU707
 173:ili9341/ili9341.c ****         RD_IDLE();
 2491              		.loc 1 173 34 is_stmt 0 view .LVU708
ARM GAS  /tmp/cc0CFvsY.s 			page 63


 2492 00a0 1D4B     		ldr	r3, .L41+4
 2493 00a2 9A68     		ldr	r2, [r3, #8]
 173:ili9341/ili9341.c ****         RD_IDLE();
 2494              		.loc 1 173 17 view .LVU709
 2495 00a4 01AB     		add	r3, sp, #4
 2496              	.LVL209:
 173:ili9341/ili9341.c ****         RD_IDLE();
 2497              		.loc 1 173 17 view .LVU710
 2498 00a6 DA55     		strb	r2, [r3, r7]
 174:ili9341/ili9341.c ****     }
 2499              		.loc 1 174 9 is_stmt 1 view .LVU711
 2500 00a8 0122     		movs	r2, #1
 2501 00aa 4FF40061 		mov	r1, #2048
 2502 00ae 4046     		mov	r0, r8
 2503 00b0 FFF7FEFF 		bl	HAL_GPIO_WritePin
 2504              	.LVL210:
 170:ili9341/ili9341.c ****     {
 2505              		.loc 1 170 33 view .LVU712
 170:ili9341/ili9341.c ****     {
 2506              		.loc 1 170 34 is_stmt 0 view .LVU713
 2507 00b4 0137     		adds	r7, r7, #1
 2508              	.LVL211:
 2509              	.L35:
 170:ili9341/ili9341.c ****     {
 2510              		.loc 1 170 24 is_stmt 1 view .LVU714
 170:ili9341/ili9341.c ****     {
 2511              		.loc 1 170 5 is_stmt 0 view .LVU715
 2512 00b6 022F     		cmp	r7, #2
 2513 00b8 EAD9     		bls	.L36
 2514              	.LBE356:
 2515              	.LBE362:
 2516              	.LBE367:
 2517              	.LBE378:
 177:ili9341/ili9341.c **** }
 2518              		.loc 1 177 5 is_stmt 1 view .LVU716
 2519              	.LBB379:
 2520              	.LBB368:
 2521              	.LBB363:
 2522              	.LBB357:
 2523              	.LBI357:
 146:ili9341/ili9341.c **** {
 2524              		.loc 1 146 20 view .LVU717
 2525              	.LBB358:
 148:ili9341/ili9341.c **** }
 2526              		.loc 1 148 5 view .LVU718
 148:ili9341/ili9341.c **** }
 2527              		.loc 1 148 16 is_stmt 0 view .LVU719
 2528 00ba 174B     		ldr	r3, .L41+4
 2529 00bc 4FF03332 		mov	r2, #858993459
 2530 00c0 1A60     		str	r2, [r3]
 2531              	.LVL212:
 148:ili9341/ili9341.c **** }
 2532              		.loc 1 148 16 view .LVU720
 2533              	.LBE358:
 2534              	.LBE357:
 2535              	.LBE363:
 419:ili9341/ili9341.c ****     }
ARM GAS  /tmp/cc0CFvsY.s 			page 64


 420:ili9341/ili9341.c **** 
 421:ili9341/ili9341.c ****     uint16_t *data_u16 = (uint16_t *)data;
 422:ili9341/ili9341.c ****     for (uint16_t i = 0; i < len / 2; i++)
 423:ili9341/ili9341.c ****     {
 424:ili9341/ili9341.c ****         uint8_t raw[3];
 425:ili9341/ili9341.c ****         read_multi_data(raw, sizeof(raw));
 426:ili9341/ili9341.c ****         data_u16[i]  = (raw[0] >> 3) << 11;
 2536              		.loc 1 426 9 is_stmt 1 view .LVU721
 2537              		.loc 1 426 28 is_stmt 0 view .LVU722
 2538 00c2 9DF80430 		ldrb	r3, [sp, #4]	@ zero_extendqisi2
 2539              		.loc 1 426 38 view .LVU723
 2540 00c6 DB08     		lsrs	r3, r3, #3
 2541 00c8 DB02     		lsls	r3, r3, #11
 2542              		.loc 1 426 22 view .LVU724
 2543 00ca 25F81430 		strh	r3, [r5, r4, lsl #1]	@ movhi
 427:ili9341/ili9341.c ****         data_u16[i] |= (raw[1] >> 2) << 5;
 2544              		.loc 1 427 9 is_stmt 1 view .LVU725
 2545              		.loc 1 427 28 is_stmt 0 view .LVU726
 2546 00ce 9DF80520 		ldrb	r2, [sp, #5]	@ zero_extendqisi2
 2547              		.loc 1 427 32 view .LVU727
 2548 00d2 9208     		lsrs	r2, r2, #2
 2549              		.loc 1 427 21 view .LVU728
 2550 00d4 43EA4213 		orr	r3, r3, r2, lsl #5
 2551 00d8 25F81430 		strh	r3, [r5, r4, lsl #1]	@ movhi
 428:ili9341/ili9341.c ****         data_u16[i] |= (raw[2] >> 3);
 2552              		.loc 1 428 9 is_stmt 1 view .LVU729
 2553              		.loc 1 428 28 is_stmt 0 view .LVU730
 2554 00dc 9DF80620 		ldrb	r2, [sp, #6]	@ zero_extendqisi2
 2555              		.loc 1 428 21 view .LVU731
 2556 00e0 43EAD203 		orr	r3, r3, r2, lsr #3
 2557 00e4 25F81430 		strh	r3, [r5, r4, lsl #1]	@ movhi
 2558              	.LBE368:
 422:ili9341/ili9341.c ****     {
 2559              		.loc 1 422 39 is_stmt 1 view .LVU732
 422:ili9341/ili9341.c ****     {
 2560              		.loc 1 422 40 is_stmt 0 view .LVU733
 2561 00e8 0134     		adds	r4, r4, #1
 2562              	.LVL213:
 422:ili9341/ili9341.c ****     {
 2563              		.loc 1 422 40 view .LVU734
 2564 00ea A4B2     		uxth	r4, r4
 2565              	.LVL214:
 2566              	.L34:
 422:ili9341/ili9341.c ****     {
 2567              		.loc 1 422 26 is_stmt 1 discriminator 1 view .LVU735
 422:ili9341/ili9341.c ****     {
 2568              		.loc 1 422 5 is_stmt 0 discriminator 1 view .LVU736
 2569 00ec B4EB560F 		cmp	r4, r6, lsr #1
 2570 00f0 07D2     		bcs	.L40
 2571              	.LBB369:
 424:ili9341/ili9341.c ****         read_multi_data(raw, sizeof(raw));
 2572              		.loc 1 424 9 is_stmt 1 view .LVU737
 425:ili9341/ili9341.c ****         data_u16[i]  = (raw[0] >> 3) << 11;
 2573              		.loc 1 425 9 view .LVU738
 2574              	.LVL215:
 2575              	.LBB364:
 2576              	.LBI354:
ARM GAS  /tmp/cc0CFvsY.s 			page 65


 166:ili9341/ili9341.c **** {
 2577              		.loc 1 166 20 view .LVU739
 2578              	.LBE364:
 2579              	.LBE369:
 2580              	.LBE379:
 168:ili9341/ili9341.c **** 
 2581              		.loc 1 168 5 view .LVU740
 2582              	.LBB380:
 2583              	.LBB370:
 2584              	.LBB365:
 2585              	.LBB359:
 2586              	.LBI359:
 151:ili9341/ili9341.c **** {
 2587              		.loc 1 151 20 view .LVU741
 2588              	.LBB360:
 153:ili9341/ili9341.c ****     GPIOA->BSRR = 0xFF;
 2589              		.loc 1 153 5 view .LVU742
 153:ili9341/ili9341.c ****     GPIOA->BSRR = 0xFF;
 2590              		.loc 1 153 17 is_stmt 0 view .LVU743
 2591 00f2 094B     		ldr	r3, .L41+4
 2592 00f4 4FF08832 		mov	r2, #-2004318072
 2593 00f8 1A60     		str	r2, [r3]
 154:ili9341/ili9341.c **** }
 2594              		.loc 1 154 5 is_stmt 1 view .LVU744
 154:ili9341/ili9341.c **** }
 2595              		.loc 1 154 17 is_stmt 0 view .LVU745
 2596 00fa FF22     		movs	r2, #255
 2597 00fc 1A61     		str	r2, [r3, #16]
 2598              	.LBE360:
 2599              	.LBE359:
 2600              	.LBE365:
 2601              	.LBE370:
 2602              	.LBE380:
 170:ili9341/ili9341.c ****     {
 2603              		.loc 1 170 5 is_stmt 1 view .LVU746
 2604              	.LBB381:
 2605              	.LBB371:
 2606              	.LBB366:
 2607              	.LBB361:
 170:ili9341/ili9341.c ****     {
 2608              		.loc 1 170 10 view .LVU747
 2609              	.LVL216:
 170:ili9341/ili9341.c ****     {
 2610              		.loc 1 170 17 is_stmt 0 view .LVU748
 2611 00fe 0027     		movs	r7, #0
 170:ili9341/ili9341.c ****     {
 2612              		.loc 1 170 5 view .LVU749
 2613 0100 D9E7     		b	.L35
 2614              	.LVL217:
 2615              	.L40:
 170:ili9341/ili9341.c ****     {
 2616              		.loc 1 170 5 view .LVU750
 2617              	.LBE361:
 2618              	.LBE366:
 2619              	.LBE371:
 2620              	.LBE381:
 429:ili9341/ili9341.c ****     }
ARM GAS  /tmp/cc0CFvsY.s 			page 66


 430:ili9341/ili9341.c ****     
 431:ili9341/ili9341.c ****     transmition_close();
 2621              		.loc 1 431 5 is_stmt 1 view .LVU751
 2622              	.LBB382:
 2623              	.LBI382:
 223:ili9341/ili9341.c **** {
 2624              		.loc 1 223 20 view .LVU752
 2625              	.LBB383:
 225:ili9341/ili9341.c **** }
 2626              		.loc 1 225 5 view .LVU753
 2627 0102 0122     		movs	r2, #1
 2628 0104 4FF40051 		mov	r1, #8192
 2629 0108 0248     		ldr	r0, .L41
 2630 010a FFF7FEFF 		bl	HAL_GPIO_WritePin
 2631              	.LVL218:
 2632              	.LBE383:
 2633              	.LBE382:
 432:ili9341/ili9341.c **** }
 2634              		.loc 1 432 1 is_stmt 0 view .LVU754
 2635 010e 02B0     		add	sp, sp, #8
 2636              	.LCFI13:
 2637              		.cfi_def_cfa_offset 24
 2638              		@ sp needed
 2639 0110 BDE8F081 		pop	{r4, r5, r6, r7, r8, pc}
 2640              	.LVL219:
 2641              	.L42:
 2642              		.loc 1 432 1 view .LVU755
 2643              		.align	2
 2644              	.L41:
 2645 0114 000C0140 		.word	1073810432
 2646 0118 00080140 		.word	1073809408
 2647              		.cfi_endproc
 2648              	.LFE83:
 2650              		.section	.text.ili9341_mem_write,"ax",%progbits
 2651              		.align	1
 2652              		.global	ili9341_mem_write
 2653              		.syntax unified
 2654              		.thumb
 2655              		.thumb_func
 2656              		.fpu softvfp
 2658              	ili9341_mem_write:
 2659              	.LVL220:
 2660              	.LFB84:
 433:ili9341/ili9341.c **** 
 434:ili9341/ili9341.c **** void ili9341_mem_write(const uint8_t *data, uint16_t len)
 435:ili9341/ili9341.c **** {
 2661              		.loc 1 435 1 is_stmt 1 view -0
 2662              		.cfi_startproc
 2663              		@ args = 0, pretend = 0, frame = 0
 2664              		@ frame_needed = 0, uses_anonymous_args = 0
 2665              		.loc 1 435 1 is_stmt 0 view .LVU757
 2666 0000 2DE9F041 		push	{r4, r5, r6, r7, r8, lr}
 2667              	.LCFI14:
 2668              		.cfi_def_cfa_offset 24
 2669              		.cfi_offset 4, -24
 2670              		.cfi_offset 5, -20
 2671              		.cfi_offset 6, -16
ARM GAS  /tmp/cc0CFvsY.s 			page 67


 2672              		.cfi_offset 7, -12
 2673              		.cfi_offset 8, -8
 2674              		.cfi_offset 14, -4
 2675 0004 0446     		mov	r4, r0
 436:ili9341/ili9341.c ****     transmition_open();
 2676              		.loc 1 436 5 is_stmt 1 view .LVU758
 2677              	.LBB393:
 2678              	.LBI393:
 179:ili9341/ili9341.c **** {
 2679              		.loc 1 179 20 view .LVU759
 2680              	.LBB394:
 181:ili9341/ili9341.c **** }
 2681              		.loc 1 181 5 view .LVU760
 2682 0006 2F4D     		ldr	r5, .L48
 2683 0008 0022     		movs	r2, #0
 2684 000a 4FF40051 		mov	r1, #8192
 2685              	.LVL221:
 181:ili9341/ili9341.c **** }
 2686              		.loc 1 181 5 is_stmt 0 view .LVU761
 2687 000e 2846     		mov	r0, r5
 2688              	.LVL222:
 181:ili9341/ili9341.c **** }
 2689              		.loc 1 181 5 view .LVU762
 2690 0010 FFF7FEFF 		bl	HAL_GPIO_WritePin
 2691              	.LVL223:
 2692              	.LBE394:
 2693              	.LBE393:
 437:ili9341/ili9341.c ****     send_cmd(LCD_GRAM);
 2694              		.loc 1 437 5 is_stmt 1 view .LVU763
 2695              	.LBB395:
 2696              	.LBI395:
 157:ili9341/ili9341.c **** {
 2697              		.loc 1 157 20 view .LVU764
 2698              	.LBB396:
 159:ili9341/ili9341.c ****     WR_ACTIVE();
 2699              		.loc 1 159 5 view .LVU765
 2700 0014 0022     		movs	r2, #0
 2701 0016 4FF48041 		mov	r1, #16384
 2702 001a 2846     		mov	r0, r5
 2703 001c FFF7FEFF 		bl	HAL_GPIO_WritePin
 2704              	.LVL224:
 160:ili9341/ili9341.c ****     GPIOA->ODR = (GPIOA->ODR & 0xFF00) | cmd;
 2705              		.loc 1 160 5 view .LVU766
 2706 0020 0022     		movs	r2, #0
 2707 0022 4FF40041 		mov	r1, #32768
 2708 0026 2846     		mov	r0, r5
 2709 0028 FFF7FEFF 		bl	HAL_GPIO_WritePin
 2710              	.LVL225:
 161:ili9341/ili9341.c ****     WR_PAUSE();
 2711              		.loc 1 161 5 view .LVU767
 161:ili9341/ili9341.c ****     WR_PAUSE();
 2712              		.loc 1 161 24 is_stmt 0 view .LVU768
 2713 002c 264A     		ldr	r2, .L48+4
 2714 002e D368     		ldr	r3, [r2, #12]
 161:ili9341/ili9341.c ****     WR_PAUSE();
 2715              		.loc 1 161 30 view .LVU769
 2716 0030 03F47F43 		and	r3, r3, #65280
ARM GAS  /tmp/cc0CFvsY.s 			page 68


 161:ili9341/ili9341.c ****     WR_PAUSE();
 2717              		.loc 1 161 40 view .LVU770
 2718 0034 43F02C03 		orr	r3, r3, #44
 161:ili9341/ili9341.c ****     WR_PAUSE();
 2719              		.loc 1 161 16 view .LVU771
 2720 0038 D360     		str	r3, [r2, #12]
 162:ili9341/ili9341.c ****     WR_IDLE();
 2721              		.loc 1 162 15 is_stmt 1 view .LVU772
 163:ili9341/ili9341.c ****     RS_DATA();
 2722              		.loc 1 163 5 view .LVU773
 2723 003a 0122     		movs	r2, #1
 2724 003c 4FF40041 		mov	r1, #32768
 2725 0040 2846     		mov	r0, r5
 2726 0042 FFF7FEFF 		bl	HAL_GPIO_WritePin
 2727              	.LVL226:
 164:ili9341/ili9341.c **** }
 2728              		.loc 1 164 5 view .LVU774
 2729 0046 0122     		movs	r2, #1
 2730 0048 4FF48041 		mov	r1, #16384
 2731 004c 2846     		mov	r0, r5
 2732 004e FFF7FEFF 		bl	HAL_GPIO_WritePin
 2733              	.LVL227:
 2734              	.LBE396:
 2735              	.LBE395:
 2736              	.LBB397:
 438:ili9341/ili9341.c **** 
 439:ili9341/ili9341.c ****     uint16_t *data_u16 = (uint16_t *) data;
 440:ili9341/ili9341.c **** 
 441:ili9341/ili9341.c ****     for (uint16_t i = 0; i < 64 / sizeof(uint16_t); ++i)
 2737              		.loc 1 441 19 is_stmt 0 view .LVU775
 2738 0052 0025     		movs	r5, #0
 2739              	.LVL228:
 2740              	.L44:
 2741              		.loc 1 441 26 is_stmt 1 discriminator 1 view .LVU776
 2742              		.loc 1 441 5 is_stmt 0 discriminator 1 view .LVU777
 2743 0054 1F2D     		cmp	r5, #31
 2744 0056 2CD8     		bhi	.L47
 442:ili9341/ili9341.c ****     {
 443:ili9341/ili9341.c ****         send_data16(*data_u16++);
 2745              		.loc 1 443 9 is_stmt 1 discriminator 3 view .LVU778
 2746              	.LVL229:
 2747              		.loc 1 443 9 is_stmt 0 discriminator 3 view .LVU779
 2748 0058 34F8028B 		ldrh	r8, [r4], #2
 2749              	.LVL230:
 2750              	.LBB398:
 2751              	.LBI398:
 212:ili9341/ili9341.c **** {
 2752              		.loc 1 212 20 is_stmt 1 discriminator 3 view .LVU780
 2753              	.LBB399:
 214:ili9341/ili9341.c ****     GPIOA->ODR = (GPIOA->ODR & 0xFF00) | (data >> 8);
 2754              		.loc 1 214 5 discriminator 3 view .LVU781
 2755 005c 194E     		ldr	r6, .L48
 2756 005e 0022     		movs	r2, #0
 2757 0060 4FF40041 		mov	r1, #32768
 2758 0064 3046     		mov	r0, r6
 2759 0066 FFF7FEFF 		bl	HAL_GPIO_WritePin
 2760              	.LVL231:
ARM GAS  /tmp/cc0CFvsY.s 			page 69


 215:ili9341/ili9341.c ****     WR_IDLE();
 2761              		.loc 1 215 5 discriminator 3 view .LVU782
 215:ili9341/ili9341.c ****     WR_IDLE();
 2762              		.loc 1 215 24 is_stmt 0 discriminator 3 view .LVU783
 2763 006a 174F     		ldr	r7, .L48+4
 2764 006c FB68     		ldr	r3, [r7, #12]
 215:ili9341/ili9341.c ****     WR_IDLE();
 2765              		.loc 1 215 30 discriminator 3 view .LVU784
 2766 006e 03F47F43 		and	r3, r3, #65280
 215:ili9341/ili9341.c ****     WR_IDLE();
 2767              		.loc 1 215 40 discriminator 3 view .LVU785
 2768 0072 43EA1823 		orr	r3, r3, r8, lsr #8
 215:ili9341/ili9341.c ****     WR_IDLE();
 2769              		.loc 1 215 16 discriminator 3 view .LVU786
 2770 0076 FB60     		str	r3, [r7, #12]
 216:ili9341/ili9341.c **** 
 2771              		.loc 1 216 5 is_stmt 1 discriminator 3 view .LVU787
 2772 0078 0122     		movs	r2, #1
 2773 007a 4FF40041 		mov	r1, #32768
 2774 007e 3046     		mov	r0, r6
 2775 0080 FFF7FEFF 		bl	HAL_GPIO_WritePin
 2776              	.LVL232:
 218:ili9341/ili9341.c ****     GPIOA->ODR = (GPIOA->ODR & 0xFF00) | (data & 0x00FF);
 2777              		.loc 1 218 5 discriminator 3 view .LVU788
 2778 0084 0022     		movs	r2, #0
 2779 0086 4FF40041 		mov	r1, #32768
 2780 008a 3046     		mov	r0, r6
 2781 008c FFF7FEFF 		bl	HAL_GPIO_WritePin
 2782              	.LVL233:
 219:ili9341/ili9341.c ****     WR_IDLE();
 2783              		.loc 1 219 5 discriminator 3 view .LVU789
 219:ili9341/ili9341.c ****     WR_IDLE();
 2784              		.loc 1 219 24 is_stmt 0 discriminator 3 view .LVU790
 2785 0090 FB68     		ldr	r3, [r7, #12]
 219:ili9341/ili9341.c ****     WR_IDLE();
 2786              		.loc 1 219 30 discriminator 3 view .LVU791
 2787 0092 03F47F43 		and	r3, r3, #65280
 219:ili9341/ili9341.c ****     WR_IDLE();
 2788              		.loc 1 219 48 discriminator 3 view .LVU792
 2789 0096 5FFA88F8 		uxtb	r8, r8
 2790              	.LVL234:
 219:ili9341/ili9341.c ****     WR_IDLE();
 2791              		.loc 1 219 40 discriminator 3 view .LVU793
 2792 009a 43EA0803 		orr	r3, r3, r8
 219:ili9341/ili9341.c ****     WR_IDLE();
 2793              		.loc 1 219 16 discriminator 3 view .LVU794
 2794 009e FB60     		str	r3, [r7, #12]
 220:ili9341/ili9341.c **** }
 2795              		.loc 1 220 5 is_stmt 1 discriminator 3 view .LVU795
 2796 00a0 0122     		movs	r2, #1
 2797 00a2 4FF40041 		mov	r1, #32768
 2798 00a6 3046     		mov	r0, r6
 2799 00a8 FFF7FEFF 		bl	HAL_GPIO_WritePin
 2800              	.LVL235:
 220:ili9341/ili9341.c **** }
 2801              		.loc 1 220 5 is_stmt 0 discriminator 3 view .LVU796
 2802              	.LBE399:
ARM GAS  /tmp/cc0CFvsY.s 			page 70


 2803              	.LBE398:
 441:ili9341/ili9341.c ****     {
 2804              		.loc 1 441 53 is_stmt 1 discriminator 3 view .LVU797
 2805 00ac 0135     		adds	r5, r5, #1
 2806              	.LVL236:
 441:ili9341/ili9341.c ****     {
 2807              		.loc 1 441 53 is_stmt 0 discriminator 3 view .LVU798
 2808 00ae ADB2     		uxth	r5, r5
 2809              	.LVL237:
 441:ili9341/ili9341.c ****     {
 2810              		.loc 1 441 53 discriminator 3 view .LVU799
 2811 00b0 D0E7     		b	.L44
 2812              	.L47:
 441:ili9341/ili9341.c ****     {
 2813              		.loc 1 441 53 discriminator 3 view .LVU800
 2814              	.LBE397:
 444:ili9341/ili9341.c ****     }
 445:ili9341/ili9341.c **** 
 446:ili9341/ili9341.c ****     transmition_close();
 2815              		.loc 1 446 5 is_stmt 1 view .LVU801
 2816              	.LBB400:
 2817              	.LBI400:
 223:ili9341/ili9341.c **** {
 2818              		.loc 1 223 20 view .LVU802
 2819              	.LBB401:
 225:ili9341/ili9341.c **** }
 2820              		.loc 1 225 5 view .LVU803
 2821 00b2 0122     		movs	r2, #1
 2822 00b4 4FF40051 		mov	r1, #8192
 2823 00b8 0248     		ldr	r0, .L48
 2824 00ba FFF7FEFF 		bl	HAL_GPIO_WritePin
 2825              	.LVL238:
 2826              	.LBE401:
 2827              	.LBE400:
 447:ili9341/ili9341.c **** }
 2828              		.loc 1 447 1 is_stmt 0 view .LVU804
 2829 00be BDE8F081 		pop	{r4, r5, r6, r7, r8, pc}
 2830              	.LVL239:
 2831              	.L49:
 2832              		.loc 1 447 1 view .LVU805
 2833 00c2 00BF     		.align	2
 2834              	.L48:
 2835 00c4 000C0140 		.word	1073810432
 2836 00c8 00080140 		.word	1073809408
 2837              		.cfi_endproc
 2838              	.LFE84:
 2840              		.section	.text.ili9341_8x8block_draw,"ax",%progbits
 2841              		.align	1
 2842              		.global	ili9341_8x8block_draw
 2843              		.syntax unified
 2844              		.thumb
 2845              		.thumb_func
 2846              		.fpu softvfp
 2848              	ili9341_8x8block_draw:
 2849              	.LVL240:
 2850              	.LFB85:
 448:ili9341/ili9341.c **** 
ARM GAS  /tmp/cc0CFvsY.s 			page 71


 449:ili9341/ili9341.c **** void ili9341_8x8block_draw(uint16_t x, uint16_t y, const uint16_t *data)
 450:ili9341/ili9341.c **** {
 2851              		.loc 1 450 1 is_stmt 1 view -0
 2852              		.cfi_startproc
 2853              		@ args = 0, pretend = 0, frame = 0
 2854              		@ frame_needed = 0, uses_anonymous_args = 0
 2855              		.loc 1 450 1 is_stmt 0 view .LVU807
 2856 0000 2DE9F041 		push	{r4, r5, r6, r7, r8, lr}
 2857              	.LCFI15:
 2858              		.cfi_def_cfa_offset 24
 2859              		.cfi_offset 4, -24
 2860              		.cfi_offset 5, -20
 2861              		.cfi_offset 6, -16
 2862              		.cfi_offset 7, -12
 2863              		.cfi_offset 8, -8
 2864              		.cfi_offset 14, -4
 2865 0004 0646     		mov	r6, r0
 2866 0006 8846     		mov	r8, r1
 2867 0008 1746     		mov	r7, r2
 451:ili9341/ili9341.c ****     transmition_open();
 2868              		.loc 1 451 5 is_stmt 1 view .LVU808
 2869              	.LBB423:
 2870              	.LBI423:
 179:ili9341/ili9341.c **** {
 2871              		.loc 1 179 20 view .LVU809
 2872              	.LBB424:
 181:ili9341/ili9341.c **** }
 2873              		.loc 1 181 5 view .LVU810
 2874 000a 984C     		ldr	r4, .L54
 2875 000c 0022     		movs	r2, #0
 2876              	.LVL241:
 181:ili9341/ili9341.c **** }
 2877              		.loc 1 181 5 is_stmt 0 view .LVU811
 2878 000e 4FF40051 		mov	r1, #8192
 2879              	.LVL242:
 181:ili9341/ili9341.c **** }
 2880              		.loc 1 181 5 view .LVU812
 2881 0012 2046     		mov	r0, r4
 2882              	.LVL243:
 181:ili9341/ili9341.c **** }
 2883              		.loc 1 181 5 view .LVU813
 2884 0014 FFF7FEFF 		bl	HAL_GPIO_WritePin
 2885              	.LVL244:
 2886              	.LBE424:
 2887              	.LBE423:
 452:ili9341/ili9341.c ****     send_cmd(LCD_COLUMN_ADDR);
 2888              		.loc 1 452 5 is_stmt 1 view .LVU814
 2889              	.LBB425:
 2890              	.LBI425:
 157:ili9341/ili9341.c **** {
 2891              		.loc 1 157 20 view .LVU815
 2892              	.LBB426:
 159:ili9341/ili9341.c ****     WR_ACTIVE();
 2893              		.loc 1 159 5 view .LVU816
 2894 0018 0022     		movs	r2, #0
 2895 001a 4FF48041 		mov	r1, #16384
 2896 001e 2046     		mov	r0, r4
ARM GAS  /tmp/cc0CFvsY.s 			page 72


 2897 0020 FFF7FEFF 		bl	HAL_GPIO_WritePin
 2898              	.LVL245:
 160:ili9341/ili9341.c ****     GPIOA->ODR = (GPIOA->ODR & 0xFF00) | cmd;
 2899              		.loc 1 160 5 view .LVU817
 2900 0024 0022     		movs	r2, #0
 2901 0026 4FF40041 		mov	r1, #32768
 2902 002a 2046     		mov	r0, r4
 2903 002c FFF7FEFF 		bl	HAL_GPIO_WritePin
 2904              	.LVL246:
 161:ili9341/ili9341.c ****     WR_PAUSE();
 2905              		.loc 1 161 5 view .LVU818
 161:ili9341/ili9341.c ****     WR_PAUSE();
 2906              		.loc 1 161 24 is_stmt 0 view .LVU819
 2907 0030 8F4D     		ldr	r5, .L54+4
 2908 0032 EB68     		ldr	r3, [r5, #12]
 161:ili9341/ili9341.c ****     WR_PAUSE();
 2909              		.loc 1 161 30 view .LVU820
 2910 0034 03F47F43 		and	r3, r3, #65280
 161:ili9341/ili9341.c ****     WR_PAUSE();
 2911              		.loc 1 161 40 view .LVU821
 2912 0038 43F02A03 		orr	r3, r3, #42
 161:ili9341/ili9341.c ****     WR_PAUSE();
 2913              		.loc 1 161 16 view .LVU822
 2914 003c EB60     		str	r3, [r5, #12]
 162:ili9341/ili9341.c ****     WR_IDLE();
 2915              		.loc 1 162 15 is_stmt 1 view .LVU823
 163:ili9341/ili9341.c ****     RS_DATA();
 2916              		.loc 1 163 5 view .LVU824
 2917 003e 0122     		movs	r2, #1
 2918 0040 4FF40041 		mov	r1, #32768
 2919 0044 2046     		mov	r0, r4
 2920 0046 FFF7FEFF 		bl	HAL_GPIO_WritePin
 2921              	.LVL247:
 164:ili9341/ili9341.c **** }
 2922              		.loc 1 164 5 view .LVU825
 2923 004a 0122     		movs	r2, #1
 2924 004c 4FF48041 		mov	r1, #16384
 2925 0050 2046     		mov	r0, r4
 2926 0052 FFF7FEFF 		bl	HAL_GPIO_WritePin
 2927              	.LVL248:
 164:ili9341/ili9341.c **** }
 2928              		.loc 1 164 5 is_stmt 0 view .LVU826
 2929              	.LBE426:
 2930              	.LBE425:
 453:ili9341/ili9341.c **** 
 454:ili9341/ili9341.c ****     send_data16(x);
 2931              		.loc 1 454 5 is_stmt 1 view .LVU827
 2932              	.LBB427:
 2933              	.LBI427:
 212:ili9341/ili9341.c **** {
 2934              		.loc 1 212 20 view .LVU828
 2935              	.LBB428:
 214:ili9341/ili9341.c ****     GPIOA->ODR = (GPIOA->ODR & 0xFF00) | (data >> 8);
 2936              		.loc 1 214 5 view .LVU829
 2937 0056 0022     		movs	r2, #0
 2938 0058 4FF40041 		mov	r1, #32768
 2939 005c 2046     		mov	r0, r4
ARM GAS  /tmp/cc0CFvsY.s 			page 73


 2940 005e FFF7FEFF 		bl	HAL_GPIO_WritePin
 2941              	.LVL249:
 215:ili9341/ili9341.c ****     WR_IDLE();
 2942              		.loc 1 215 5 view .LVU830
 215:ili9341/ili9341.c ****     WR_IDLE();
 2943              		.loc 1 215 24 is_stmt 0 view .LVU831
 2944 0062 EB68     		ldr	r3, [r5, #12]
 215:ili9341/ili9341.c ****     WR_IDLE();
 2945              		.loc 1 215 30 view .LVU832
 2946 0064 03F47F43 		and	r3, r3, #65280
 215:ili9341/ili9341.c ****     WR_IDLE();
 2947              		.loc 1 215 40 view .LVU833
 2948 0068 43EA1623 		orr	r3, r3, r6, lsr #8
 215:ili9341/ili9341.c ****     WR_IDLE();
 2949              		.loc 1 215 16 view .LVU834
 2950 006c EB60     		str	r3, [r5, #12]
 216:ili9341/ili9341.c **** 
 2951              		.loc 1 216 5 is_stmt 1 view .LVU835
 2952 006e 0122     		movs	r2, #1
 2953 0070 4FF40041 		mov	r1, #32768
 2954 0074 2046     		mov	r0, r4
 2955 0076 FFF7FEFF 		bl	HAL_GPIO_WritePin
 2956              	.LVL250:
 218:ili9341/ili9341.c ****     GPIOA->ODR = (GPIOA->ODR & 0xFF00) | (data & 0x00FF);
 2957              		.loc 1 218 5 view .LVU836
 2958 007a 0022     		movs	r2, #0
 2959 007c 4FF40041 		mov	r1, #32768
 2960 0080 2046     		mov	r0, r4
 2961 0082 FFF7FEFF 		bl	HAL_GPIO_WritePin
 2962              	.LVL251:
 219:ili9341/ili9341.c ****     WR_IDLE();
 2963              		.loc 1 219 5 view .LVU837
 219:ili9341/ili9341.c ****     WR_IDLE();
 2964              		.loc 1 219 24 is_stmt 0 view .LVU838
 2965 0086 EB68     		ldr	r3, [r5, #12]
 219:ili9341/ili9341.c ****     WR_IDLE();
 2966              		.loc 1 219 30 view .LVU839
 2967 0088 03F47F43 		and	r3, r3, #65280
 219:ili9341/ili9341.c ****     WR_IDLE();
 2968              		.loc 1 219 48 view .LVU840
 2969 008c F2B2     		uxtb	r2, r6
 219:ili9341/ili9341.c ****     WR_IDLE();
 2970              		.loc 1 219 40 view .LVU841
 2971 008e 1343     		orrs	r3, r3, r2
 219:ili9341/ili9341.c ****     WR_IDLE();
 2972              		.loc 1 219 16 view .LVU842
 2973 0090 EB60     		str	r3, [r5, #12]
 220:ili9341/ili9341.c **** }
 2974              		.loc 1 220 5 is_stmt 1 view .LVU843
 2975 0092 0122     		movs	r2, #1
 2976 0094 4FF40041 		mov	r1, #32768
 2977 0098 2046     		mov	r0, r4
 2978 009a FFF7FEFF 		bl	HAL_GPIO_WritePin
 2979              	.LVL252:
 220:ili9341/ili9341.c **** }
 2980              		.loc 1 220 5 is_stmt 0 view .LVU844
 2981              	.LBE428:
ARM GAS  /tmp/cc0CFvsY.s 			page 74


 2982              	.LBE427:
 455:ili9341/ili9341.c ****     send_data16(x + 7);
 2983              		.loc 1 455 5 is_stmt 1 view .LVU845
 2984 009e 0736     		adds	r6, r6, #7
 2985 00a0 B6B2     		uxth	r6, r6
 2986              	.LVL253:
 2987              	.LBB429:
 2988              	.LBI429:
 212:ili9341/ili9341.c **** {
 2989              		.loc 1 212 20 view .LVU846
 2990              	.LBB430:
 214:ili9341/ili9341.c ****     GPIOA->ODR = (GPIOA->ODR & 0xFF00) | (data >> 8);
 2991              		.loc 1 214 5 view .LVU847
 2992 00a2 0022     		movs	r2, #0
 2993 00a4 4FF40041 		mov	r1, #32768
 2994 00a8 2046     		mov	r0, r4
 2995 00aa FFF7FEFF 		bl	HAL_GPIO_WritePin
 2996              	.LVL254:
 215:ili9341/ili9341.c ****     WR_IDLE();
 2997              		.loc 1 215 5 view .LVU848
 215:ili9341/ili9341.c ****     WR_IDLE();
 2998              		.loc 1 215 24 is_stmt 0 view .LVU849
 2999 00ae EB68     		ldr	r3, [r5, #12]
 215:ili9341/ili9341.c ****     WR_IDLE();
 3000              		.loc 1 215 30 view .LVU850
 3001 00b0 03F47F43 		and	r3, r3, #65280
 215:ili9341/ili9341.c ****     WR_IDLE();
 3002              		.loc 1 215 40 view .LVU851
 3003 00b4 43EA1623 		orr	r3, r3, r6, lsr #8
 215:ili9341/ili9341.c ****     WR_IDLE();
 3004              		.loc 1 215 16 view .LVU852
 3005 00b8 EB60     		str	r3, [r5, #12]
 216:ili9341/ili9341.c **** 
 3006              		.loc 1 216 5 is_stmt 1 view .LVU853
 3007 00ba 0122     		movs	r2, #1
 3008 00bc 4FF40041 		mov	r1, #32768
 3009 00c0 2046     		mov	r0, r4
 3010 00c2 FFF7FEFF 		bl	HAL_GPIO_WritePin
 3011              	.LVL255:
 218:ili9341/ili9341.c ****     GPIOA->ODR = (GPIOA->ODR & 0xFF00) | (data & 0x00FF);
 3012              		.loc 1 218 5 view .LVU854
 3013 00c6 0022     		movs	r2, #0
 3014 00c8 4FF40041 		mov	r1, #32768
 3015 00cc 2046     		mov	r0, r4
 3016 00ce FFF7FEFF 		bl	HAL_GPIO_WritePin
 3017              	.LVL256:
 219:ili9341/ili9341.c ****     WR_IDLE();
 3018              		.loc 1 219 5 view .LVU855
 219:ili9341/ili9341.c ****     WR_IDLE();
 3019              		.loc 1 219 24 is_stmt 0 view .LVU856
 3020 00d2 EB68     		ldr	r3, [r5, #12]
 219:ili9341/ili9341.c ****     WR_IDLE();
 3021              		.loc 1 219 30 view .LVU857
 3022 00d4 03F47F43 		and	r3, r3, #65280
 219:ili9341/ili9341.c ****     WR_IDLE();
 3023              		.loc 1 219 48 view .LVU858
 3024 00d8 F6B2     		uxtb	r6, r6
ARM GAS  /tmp/cc0CFvsY.s 			page 75


 3025              	.LVL257:
 219:ili9341/ili9341.c ****     WR_IDLE();
 3026              		.loc 1 219 40 view .LVU859
 3027 00da 3343     		orrs	r3, r3, r6
 219:ili9341/ili9341.c ****     WR_IDLE();
 3028              		.loc 1 219 16 view .LVU860
 3029 00dc EB60     		str	r3, [r5, #12]
 220:ili9341/ili9341.c **** }
 3030              		.loc 1 220 5 is_stmt 1 view .LVU861
 3031 00de 0122     		movs	r2, #1
 3032 00e0 4FF40041 		mov	r1, #32768
 3033 00e4 2046     		mov	r0, r4
 3034 00e6 FFF7FEFF 		bl	HAL_GPIO_WritePin
 3035              	.LVL258:
 220:ili9341/ili9341.c **** }
 3036              		.loc 1 220 5 is_stmt 0 view .LVU862
 3037              	.LBE430:
 3038              	.LBE429:
 456:ili9341/ili9341.c **** 
 457:ili9341/ili9341.c **** 
 458:ili9341/ili9341.c ****     send_cmd(LCD_PAGE_ADDR);
 3039              		.loc 1 458 5 is_stmt 1 view .LVU863
 3040              	.LBB431:
 3041              	.LBI431:
 157:ili9341/ili9341.c **** {
 3042              		.loc 1 157 20 view .LVU864
 3043              	.LBB432:
 159:ili9341/ili9341.c ****     WR_ACTIVE();
 3044              		.loc 1 159 5 view .LVU865
 3045 00ea 0022     		movs	r2, #0
 3046 00ec 4FF48041 		mov	r1, #16384
 3047 00f0 2046     		mov	r0, r4
 3048 00f2 FFF7FEFF 		bl	HAL_GPIO_WritePin
 3049              	.LVL259:
 160:ili9341/ili9341.c ****     GPIOA->ODR = (GPIOA->ODR & 0xFF00) | cmd;
 3050              		.loc 1 160 5 view .LVU866
 3051 00f6 0022     		movs	r2, #0
 3052 00f8 4FF40041 		mov	r1, #32768
 3053 00fc 2046     		mov	r0, r4
 3054 00fe FFF7FEFF 		bl	HAL_GPIO_WritePin
 3055              	.LVL260:
 161:ili9341/ili9341.c ****     WR_PAUSE();
 3056              		.loc 1 161 5 view .LVU867
 161:ili9341/ili9341.c ****     WR_PAUSE();
 3057              		.loc 1 161 24 is_stmt 0 view .LVU868
 3058 0102 EB68     		ldr	r3, [r5, #12]
 161:ili9341/ili9341.c ****     WR_PAUSE();
 3059              		.loc 1 161 30 view .LVU869
 3060 0104 03F47F43 		and	r3, r3, #65280
 161:ili9341/ili9341.c ****     WR_PAUSE();
 3061              		.loc 1 161 40 view .LVU870
 3062 0108 43F02B03 		orr	r3, r3, #43
 161:ili9341/ili9341.c ****     WR_PAUSE();
 3063              		.loc 1 161 16 view .LVU871
 3064 010c EB60     		str	r3, [r5, #12]
 162:ili9341/ili9341.c ****     WR_IDLE();
 3065              		.loc 1 162 15 is_stmt 1 view .LVU872
ARM GAS  /tmp/cc0CFvsY.s 			page 76


 163:ili9341/ili9341.c ****     RS_DATA();
 3066              		.loc 1 163 5 view .LVU873
 3067 010e 0122     		movs	r2, #1
 3068 0110 4FF40041 		mov	r1, #32768
 3069 0114 2046     		mov	r0, r4
 3070 0116 FFF7FEFF 		bl	HAL_GPIO_WritePin
 3071              	.LVL261:
 164:ili9341/ili9341.c **** }
 3072              		.loc 1 164 5 view .LVU874
 3073 011a 0122     		movs	r2, #1
 3074 011c 4FF48041 		mov	r1, #16384
 3075 0120 2046     		mov	r0, r4
 3076 0122 FFF7FEFF 		bl	HAL_GPIO_WritePin
 3077              	.LVL262:
 164:ili9341/ili9341.c **** }
 3078              		.loc 1 164 5 is_stmt 0 view .LVU875
 3079              	.LBE432:
 3080              	.LBE431:
 459:ili9341/ili9341.c ****     send_data16(y);
 3081              		.loc 1 459 5 is_stmt 1 view .LVU876
 3082              	.LBB433:
 3083              	.LBI433:
 212:ili9341/ili9341.c **** {
 3084              		.loc 1 212 20 view .LVU877
 3085              	.LBB434:
 214:ili9341/ili9341.c ****     GPIOA->ODR = (GPIOA->ODR & 0xFF00) | (data >> 8);
 3086              		.loc 1 214 5 view .LVU878
 3087 0126 0022     		movs	r2, #0
 3088 0128 4FF40041 		mov	r1, #32768
 3089 012c 2046     		mov	r0, r4
 3090 012e FFF7FEFF 		bl	HAL_GPIO_WritePin
 3091              	.LVL263:
 215:ili9341/ili9341.c ****     WR_IDLE();
 3092              		.loc 1 215 5 view .LVU879
 215:ili9341/ili9341.c ****     WR_IDLE();
 3093              		.loc 1 215 24 is_stmt 0 view .LVU880
 3094 0132 EB68     		ldr	r3, [r5, #12]
 215:ili9341/ili9341.c ****     WR_IDLE();
 3095              		.loc 1 215 30 view .LVU881
 3096 0134 03F47F43 		and	r3, r3, #65280
 215:ili9341/ili9341.c ****     WR_IDLE();
 3097              		.loc 1 215 40 view .LVU882
 3098 0138 43EA1823 		orr	r3, r3, r8, lsr #8
 215:ili9341/ili9341.c ****     WR_IDLE();
 3099              		.loc 1 215 16 view .LVU883
 3100 013c EB60     		str	r3, [r5, #12]
 216:ili9341/ili9341.c **** 
 3101              		.loc 1 216 5 is_stmt 1 view .LVU884
 3102 013e 0122     		movs	r2, #1
 3103 0140 4FF40041 		mov	r1, #32768
 3104 0144 2046     		mov	r0, r4
 3105 0146 FFF7FEFF 		bl	HAL_GPIO_WritePin
 3106              	.LVL264:
 218:ili9341/ili9341.c ****     GPIOA->ODR = (GPIOA->ODR & 0xFF00) | (data & 0x00FF);
 3107              		.loc 1 218 5 view .LVU885
 3108 014a 0022     		movs	r2, #0
 3109 014c 4FF40041 		mov	r1, #32768
ARM GAS  /tmp/cc0CFvsY.s 			page 77


 3110 0150 2046     		mov	r0, r4
 3111 0152 FFF7FEFF 		bl	HAL_GPIO_WritePin
 3112              	.LVL265:
 219:ili9341/ili9341.c ****     WR_IDLE();
 3113              		.loc 1 219 5 view .LVU886
 219:ili9341/ili9341.c ****     WR_IDLE();
 3114              		.loc 1 219 24 is_stmt 0 view .LVU887
 3115 0156 EB68     		ldr	r3, [r5, #12]
 219:ili9341/ili9341.c ****     WR_IDLE();
 3116              		.loc 1 219 30 view .LVU888
 3117 0158 03F47F43 		and	r3, r3, #65280
 219:ili9341/ili9341.c ****     WR_IDLE();
 3118              		.loc 1 219 48 view .LVU889
 3119 015c 5FFA88F2 		uxtb	r2, r8
 219:ili9341/ili9341.c ****     WR_IDLE();
 3120              		.loc 1 219 40 view .LVU890
 3121 0160 1343     		orrs	r3, r3, r2
 219:ili9341/ili9341.c ****     WR_IDLE();
 3122              		.loc 1 219 16 view .LVU891
 3123 0162 EB60     		str	r3, [r5, #12]
 220:ili9341/ili9341.c **** }
 3124              		.loc 1 220 5 is_stmt 1 view .LVU892
 3125 0164 0122     		movs	r2, #1
 3126 0166 4FF40041 		mov	r1, #32768
 3127 016a 2046     		mov	r0, r4
 3128 016c FFF7FEFF 		bl	HAL_GPIO_WritePin
 3129              	.LVL266:
 220:ili9341/ili9341.c **** }
 3130              		.loc 1 220 5 is_stmt 0 view .LVU893
 3131              	.LBE434:
 3132              	.LBE433:
 460:ili9341/ili9341.c ****     send_data16(y + 7);
 3133              		.loc 1 460 5 is_stmt 1 view .LVU894
 3134 0170 08F10706 		add	r6, r8, #7
 3135 0174 B6B2     		uxth	r6, r6
 3136              	.LVL267:
 3137              	.LBB435:
 3138              	.LBI435:
 212:ili9341/ili9341.c **** {
 3139              		.loc 1 212 20 view .LVU895
 3140              	.LBB436:
 214:ili9341/ili9341.c ****     GPIOA->ODR = (GPIOA->ODR & 0xFF00) | (data >> 8);
 3141              		.loc 1 214 5 view .LVU896
 3142 0176 0022     		movs	r2, #0
 3143 0178 4FF40041 		mov	r1, #32768
 3144 017c 2046     		mov	r0, r4
 3145 017e FFF7FEFF 		bl	HAL_GPIO_WritePin
 3146              	.LVL268:
 215:ili9341/ili9341.c ****     WR_IDLE();
 3147              		.loc 1 215 5 view .LVU897
 215:ili9341/ili9341.c ****     WR_IDLE();
 3148              		.loc 1 215 24 is_stmt 0 view .LVU898
 3149 0182 EB68     		ldr	r3, [r5, #12]
 215:ili9341/ili9341.c ****     WR_IDLE();
 3150              		.loc 1 215 30 view .LVU899
 3151 0184 03F47F43 		and	r3, r3, #65280
 215:ili9341/ili9341.c ****     WR_IDLE();
ARM GAS  /tmp/cc0CFvsY.s 			page 78


 3152              		.loc 1 215 40 view .LVU900
 3153 0188 43EA1623 		orr	r3, r3, r6, lsr #8
 215:ili9341/ili9341.c ****     WR_IDLE();
 3154              		.loc 1 215 16 view .LVU901
 3155 018c EB60     		str	r3, [r5, #12]
 216:ili9341/ili9341.c **** 
 3156              		.loc 1 216 5 is_stmt 1 view .LVU902
 3157 018e 0122     		movs	r2, #1
 3158 0190 4FF40041 		mov	r1, #32768
 3159 0194 2046     		mov	r0, r4
 3160 0196 FFF7FEFF 		bl	HAL_GPIO_WritePin
 3161              	.LVL269:
 218:ili9341/ili9341.c ****     GPIOA->ODR = (GPIOA->ODR & 0xFF00) | (data & 0x00FF);
 3162              		.loc 1 218 5 view .LVU903
 3163 019a 0022     		movs	r2, #0
 3164 019c 4FF40041 		mov	r1, #32768
 3165 01a0 2046     		mov	r0, r4
 3166 01a2 FFF7FEFF 		bl	HAL_GPIO_WritePin
 3167              	.LVL270:
 219:ili9341/ili9341.c ****     WR_IDLE();
 3168              		.loc 1 219 5 view .LVU904
 219:ili9341/ili9341.c ****     WR_IDLE();
 3169              		.loc 1 219 24 is_stmt 0 view .LVU905
 3170 01a6 EB68     		ldr	r3, [r5, #12]
 219:ili9341/ili9341.c ****     WR_IDLE();
 3171              		.loc 1 219 30 view .LVU906
 3172 01a8 03F47F43 		and	r3, r3, #65280
 219:ili9341/ili9341.c ****     WR_IDLE();
 3173              		.loc 1 219 48 view .LVU907
 3174 01ac F6B2     		uxtb	r6, r6
 3175              	.LVL271:
 219:ili9341/ili9341.c ****     WR_IDLE();
 3176              		.loc 1 219 40 view .LVU908
 3177 01ae 3343     		orrs	r3, r3, r6
 219:ili9341/ili9341.c ****     WR_IDLE();
 3178              		.loc 1 219 16 view .LVU909
 3179 01b0 EB60     		str	r3, [r5, #12]
 220:ili9341/ili9341.c **** }
 3180              		.loc 1 220 5 is_stmt 1 view .LVU910
 3181 01b2 0122     		movs	r2, #1
 3182 01b4 4FF40041 		mov	r1, #32768
 3183 01b8 2046     		mov	r0, r4
 3184 01ba FFF7FEFF 		bl	HAL_GPIO_WritePin
 3185              	.LVL272:
 220:ili9341/ili9341.c **** }
 3186              		.loc 1 220 5 is_stmt 0 view .LVU911
 3187              	.LBE436:
 3188              	.LBE435:
 461:ili9341/ili9341.c **** 
 462:ili9341/ili9341.c ****     send_cmd(LCD_GRAM);
 3189              		.loc 1 462 5 is_stmt 1 view .LVU912
 3190              	.LBB437:
 3191              	.LBI437:
 157:ili9341/ili9341.c **** {
 3192              		.loc 1 157 20 view .LVU913
 3193              	.LBB438:
 159:ili9341/ili9341.c ****     WR_ACTIVE();
ARM GAS  /tmp/cc0CFvsY.s 			page 79


 3194              		.loc 1 159 5 view .LVU914
 3195 01be 0022     		movs	r2, #0
 3196 01c0 4FF48041 		mov	r1, #16384
 3197 01c4 2046     		mov	r0, r4
 3198 01c6 FFF7FEFF 		bl	HAL_GPIO_WritePin
 3199              	.LVL273:
 160:ili9341/ili9341.c ****     GPIOA->ODR = (GPIOA->ODR & 0xFF00) | cmd;
 3200              		.loc 1 160 5 view .LVU915
 3201 01ca 0022     		movs	r2, #0
 3202 01cc 4FF40041 		mov	r1, #32768
 3203 01d0 2046     		mov	r0, r4
 3204 01d2 FFF7FEFF 		bl	HAL_GPIO_WritePin
 3205              	.LVL274:
 161:ili9341/ili9341.c ****     WR_PAUSE();
 3206              		.loc 1 161 5 view .LVU916
 161:ili9341/ili9341.c ****     WR_PAUSE();
 3207              		.loc 1 161 24 is_stmt 0 view .LVU917
 3208 01d6 EB68     		ldr	r3, [r5, #12]
 161:ili9341/ili9341.c ****     WR_PAUSE();
 3209              		.loc 1 161 30 view .LVU918
 3210 01d8 03F47F43 		and	r3, r3, #65280
 161:ili9341/ili9341.c ****     WR_PAUSE();
 3211              		.loc 1 161 40 view .LVU919
 3212 01dc 43F02C03 		orr	r3, r3, #44
 161:ili9341/ili9341.c ****     WR_PAUSE();
 3213              		.loc 1 161 16 view .LVU920
 3214 01e0 EB60     		str	r3, [r5, #12]
 162:ili9341/ili9341.c ****     WR_IDLE();
 3215              		.loc 1 162 15 is_stmt 1 view .LVU921
 163:ili9341/ili9341.c ****     RS_DATA();
 3216              		.loc 1 163 5 view .LVU922
 3217 01e2 0122     		movs	r2, #1
 3218 01e4 4FF40041 		mov	r1, #32768
 3219 01e8 2046     		mov	r0, r4
 3220 01ea FFF7FEFF 		bl	HAL_GPIO_WritePin
 3221              	.LVL275:
 164:ili9341/ili9341.c **** }
 3222              		.loc 1 164 5 view .LVU923
 3223 01ee 0122     		movs	r2, #1
 3224 01f0 4FF48041 		mov	r1, #16384
 3225 01f4 2046     		mov	r0, r4
 3226 01f6 FFF7FEFF 		bl	HAL_GPIO_WritePin
 3227              	.LVL276:
 3228              	.LBE438:
 3229              	.LBE437:
 3230              	.LBB440:
 463:ili9341/ili9341.c **** 
 464:ili9341/ili9341.c ****     for (uint16_t i = 0; i < (8 * 8); ++i)
 3231              		.loc 1 464 19 is_stmt 0 view .LVU924
 3232 01fa 0024     		movs	r4, #0
 3233              	.LBE440:
 3234              	.LBB443:
 3235              	.LBB439:
 165:ili9341/ili9341.c **** static void inline read_multi_data(uint8_t *data, uint8_t len)
 3236              		.loc 1 165 1 view .LVU925
 3237 01fc 2BE0     		b	.L51
 3238              	.LVL277:
ARM GAS  /tmp/cc0CFvsY.s 			page 80


 3239              	.L52:
 165:ili9341/ili9341.c **** static void inline read_multi_data(uint8_t *data, uint8_t len)
 3240              		.loc 1 165 1 view .LVU926
 3241              	.LBE439:
 3242              	.LBE443:
 3243              	.LBB444:
 465:ili9341/ili9341.c ****     {
 466:ili9341/ili9341.c ****         send_data16(*data);
 3244              		.loc 1 466 9 is_stmt 1 discriminator 3 view .LVU927
 3245 01fe 37F8028B 		ldrh	r8, [r7], #2
 3246              	.LVL278:
 3247              	.LBB441:
 3248              	.LBI441:
 212:ili9341/ili9341.c **** {
 3249              		.loc 1 212 20 discriminator 3 view .LVU928
 3250              	.LBB442:
 214:ili9341/ili9341.c ****     GPIOA->ODR = (GPIOA->ODR & 0xFF00) | (data >> 8);
 3251              		.loc 1 214 5 discriminator 3 view .LVU929
 3252 0202 1A4D     		ldr	r5, .L54
 3253 0204 0022     		movs	r2, #0
 3254 0206 4FF40041 		mov	r1, #32768
 3255 020a 2846     		mov	r0, r5
 3256 020c FFF7FEFF 		bl	HAL_GPIO_WritePin
 3257              	.LVL279:
 215:ili9341/ili9341.c ****     WR_IDLE();
 3258              		.loc 1 215 5 discriminator 3 view .LVU930
 215:ili9341/ili9341.c ****     WR_IDLE();
 3259              		.loc 1 215 24 is_stmt 0 discriminator 3 view .LVU931
 3260 0210 174E     		ldr	r6, .L54+4
 3261 0212 F368     		ldr	r3, [r6, #12]
 215:ili9341/ili9341.c ****     WR_IDLE();
 3262              		.loc 1 215 30 discriminator 3 view .LVU932
 3263 0214 03F47F43 		and	r3, r3, #65280
 215:ili9341/ili9341.c ****     WR_IDLE();
 3264              		.loc 1 215 40 discriminator 3 view .LVU933
 3265 0218 43EA1823 		orr	r3, r3, r8, lsr #8
 215:ili9341/ili9341.c ****     WR_IDLE();
 3266              		.loc 1 215 16 discriminator 3 view .LVU934
 3267 021c F360     		str	r3, [r6, #12]
 216:ili9341/ili9341.c **** 
 3268              		.loc 1 216 5 is_stmt 1 discriminator 3 view .LVU935
 3269 021e 0122     		movs	r2, #1
 3270 0220 4FF40041 		mov	r1, #32768
 3271 0224 2846     		mov	r0, r5
 3272 0226 FFF7FEFF 		bl	HAL_GPIO_WritePin
 3273              	.LVL280:
 218:ili9341/ili9341.c ****     GPIOA->ODR = (GPIOA->ODR & 0xFF00) | (data & 0x00FF);
 3274              		.loc 1 218 5 discriminator 3 view .LVU936
 3275 022a 0022     		movs	r2, #0
 3276 022c 4FF40041 		mov	r1, #32768
 3277 0230 2846     		mov	r0, r5
 3278 0232 FFF7FEFF 		bl	HAL_GPIO_WritePin
 3279              	.LVL281:
 219:ili9341/ili9341.c ****     WR_IDLE();
 3280              		.loc 1 219 5 discriminator 3 view .LVU937
 219:ili9341/ili9341.c ****     WR_IDLE();
 3281              		.loc 1 219 24 is_stmt 0 discriminator 3 view .LVU938
ARM GAS  /tmp/cc0CFvsY.s 			page 81


 3282 0236 F368     		ldr	r3, [r6, #12]
 219:ili9341/ili9341.c ****     WR_IDLE();
 3283              		.loc 1 219 30 discriminator 3 view .LVU939
 3284 0238 03F47F43 		and	r3, r3, #65280
 219:ili9341/ili9341.c ****     WR_IDLE();
 3285              		.loc 1 219 48 discriminator 3 view .LVU940
 3286 023c 5FFA88F8 		uxtb	r8, r8
 3287              	.LVL282:
 219:ili9341/ili9341.c ****     WR_IDLE();
 3288              		.loc 1 219 40 discriminator 3 view .LVU941
 3289 0240 43EA0803 		orr	r3, r3, r8
 219:ili9341/ili9341.c ****     WR_IDLE();
 3290              		.loc 1 219 16 discriminator 3 view .LVU942
 3291 0244 F360     		str	r3, [r6, #12]
 220:ili9341/ili9341.c **** }
 3292              		.loc 1 220 5 is_stmt 1 discriminator 3 view .LVU943
 3293 0246 0122     		movs	r2, #1
 3294 0248 4FF40041 		mov	r1, #32768
 3295 024c 2846     		mov	r0, r5
 3296 024e FFF7FEFF 		bl	HAL_GPIO_WritePin
 3297              	.LVL283:
 220:ili9341/ili9341.c **** }
 3298              		.loc 1 220 5 is_stmt 0 discriminator 3 view .LVU944
 3299              	.LBE442:
 3300              	.LBE441:
 467:ili9341/ili9341.c ****         data++;
 3301              		.loc 1 467 9 is_stmt 1 discriminator 3 view .LVU945
 464:ili9341/ili9341.c ****     {
 3302              		.loc 1 464 39 discriminator 3 view .LVU946
 3303 0252 0134     		adds	r4, r4, #1
 3304              	.LVL284:
 464:ili9341/ili9341.c ****     {
 3305              		.loc 1 464 39 is_stmt 0 discriminator 3 view .LVU947
 3306 0254 A4B2     		uxth	r4, r4
 3307              	.LVL285:
 3308              	.L51:
 464:ili9341/ili9341.c ****     {
 3309              		.loc 1 464 26 is_stmt 1 discriminator 1 view .LVU948
 464:ili9341/ili9341.c ****     {
 3310              		.loc 1 464 5 is_stmt 0 discriminator 1 view .LVU949
 3311 0256 3F2C     		cmp	r4, #63
 3312 0258 D1D9     		bls	.L52
 464:ili9341/ili9341.c ****     {
 3313              		.loc 1 464 5 discriminator 1 view .LVU950
 3314              	.LBE444:
 468:ili9341/ili9341.c ****     }
 469:ili9341/ili9341.c ****     transmition_close();
 3315              		.loc 1 469 5 is_stmt 1 view .LVU951
 3316              	.LBB445:
 3317              	.LBI445:
 223:ili9341/ili9341.c **** {
 3318              		.loc 1 223 20 view .LVU952
 3319              	.LBB446:
 225:ili9341/ili9341.c **** }
 3320              		.loc 1 225 5 view .LVU953
 3321 025a 0122     		movs	r2, #1
 3322 025c 4FF40051 		mov	r1, #8192
ARM GAS  /tmp/cc0CFvsY.s 			page 82


 3323 0260 0248     		ldr	r0, .L54
 3324 0262 FFF7FEFF 		bl	HAL_GPIO_WritePin
 3325              	.LVL286:
 3326              	.LBE446:
 3327              	.LBE445:
 470:ili9341/ili9341.c **** }
 3328              		.loc 1 470 1 is_stmt 0 view .LVU954
 3329 0266 BDE8F081 		pop	{r4, r5, r6, r7, r8, pc}
 3330              	.LVL287:
 3331              	.L55:
 3332              		.loc 1 470 1 view .LVU955
 3333 026a 00BF     		.align	2
 3334              	.L54:
 3335 026c 000C0140 		.word	1073810432
 3336 0270 00080140 		.word	1073809408
 3337              		.cfi_endproc
 3338              	.LFE85:
 3340              		.section	.text.ili9341_mem_read_rect,"ax",%progbits
 3341              		.align	1
 3342              		.global	ili9341_mem_read_rect
 3343              		.syntax unified
 3344              		.thumb
 3345              		.thumb_func
 3346              		.fpu softvfp
 3348              	ili9341_mem_read_rect:
 3349              	.LVL288:
 3350              	.LFB86:
 471:ili9341/ili9341.c **** 
 472:ili9341/ili9341.c **** #if 0
 473:ili9341/ili9341.c **** void ili9341_64block_mem_read(uint16_t x, uint16_t y, uint8_t *data)
 474:ili9341/ili9341.c **** {
 475:ili9341/ili9341.c ****     // logger("%s x %d y %d\r\n", __func__, x, y);
 476:ili9341/ili9341.c ****     transmition_open();
 477:ili9341/ili9341.c ****     send_cmd(LCD_COLUMN_ADDR);
 478:ili9341/ili9341.c **** 
 479:ili9341/ili9341.c ****     send_data16(x);
 480:ili9341/ili9341.c ****     send_data16(x + 7);
 481:ili9341/ili9341.c **** 
 482:ili9341/ili9341.c **** 
 483:ili9341/ili9341.c ****     send_cmd(LCD_PAGE_ADDR);
 484:ili9341/ili9341.c ****     send_data16(y);
 485:ili9341/ili9341.c ****     send_data16(y + 3);
 486:ili9341/ili9341.c **** 
 487:ili9341/ili9341.c ****     send_cmd(LCD_RAMRD);
 488:ili9341/ili9341.c ****     (void)read_data();  /* Dummy data. */
 489:ili9341/ili9341.c ****     uint16_t *data_u16 = (uint16_t *)data;
 490:ili9341/ili9341.c ****     for (size_t i = 0; i < 64 / sizeof(uint16_t); i++)
 491:ili9341/ili9341.c ****     {
 492:ili9341/ili9341.c ****         uint8_t raw[3];
 493:ili9341/ili9341.c ****         read_multi_data(raw, sizeof(raw));
 494:ili9341/ili9341.c ****         data_u16[i]  = (raw[0] >> 3) << 11;
 495:ili9341/ili9341.c ****         data_u16[i] |= (raw[1] >> 2) << 5;
 496:ili9341/ili9341.c ****         data_u16[i] |= (raw[2] >> 3);
 497:ili9341/ili9341.c ****     }
 498:ili9341/ili9341.c **** 
 499:ili9341/ili9341.c ****     transmition_close();
 500:ili9341/ili9341.c **** }
ARM GAS  /tmp/cc0CFvsY.s 			page 83


 501:ili9341/ili9341.c **** 
 502:ili9341/ili9341.c **** void ili9341_8kblock_mem_write(uint16_t x, uint16_t y, const uint8_t *data)
 503:ili9341/ili9341.c **** {
 504:ili9341/ili9341.c ****     // logger("%s x %d y %d\r\n", __func__, x, y);
 505:ili9341/ili9341.c ****     transmition_open();
 506:ili9341/ili9341.c ****     send_cmd(LCD_COLUMN_ADDR);
 507:ili9341/ili9341.c **** 
 508:ili9341/ili9341.c ****     send_data16(x);
 509:ili9341/ili9341.c ****     send_data16(x + 7);
 510:ili9341/ili9341.c **** 
 511:ili9341/ili9341.c **** 
 512:ili9341/ili9341.c ****     send_cmd(LCD_PAGE_ADDR);
 513:ili9341/ili9341.c ****     send_data16(y);
 514:ili9341/ili9341.c ****     send_data16(y + 3);
 515:ili9341/ili9341.c **** 
 516:ili9341/ili9341.c ****     send_cmd(LCD_GRAM);
 517:ili9341/ili9341.c **** 
 518:ili9341/ili9341.c ****     uint16_t *data_u16 = (uint16_t *) data;
 519:ili9341/ili9341.c **** 
 520:ili9341/ili9341.c ****     for (uint16_t i = 0; i < 64 / sizeof(uint16_t); ++i)
 521:ili9341/ili9341.c ****     {
 522:ili9341/ili9341.c ****         send_data16(*data_u16++);
 523:ili9341/ili9341.c ****     }
 524:ili9341/ili9341.c ****     transmition_close();
 525:ili9341/ili9341.c **** }
 526:ili9341/ili9341.c **** #else
 527:ili9341/ili9341.c **** 
 528:ili9341/ili9341.c **** void ili9341_mem_read_rect(uint16_t x, uint16_t w, uint16_t y, uint16_t h, uint8_t *data, uint16_t 
 529:ili9341/ili9341.c **** {
 3351              		.loc 1 529 1 is_stmt 1 view -0
 3352              		.cfi_startproc
 3353              		@ args = 8, pretend = 0, frame = 8
 3354              		@ frame_needed = 0, uses_anonymous_args = 0
 3355              		.loc 1 529 1 is_stmt 0 view .LVU957
 3356 0000 2DE9F047 		push	{r4, r5, r6, r7, r8, r9, r10, lr}
 3357              	.LCFI16:
 3358              		.cfi_def_cfa_offset 32
 3359              		.cfi_offset 4, -32
 3360              		.cfi_offset 5, -28
 3361              		.cfi_offset 6, -24
 3362              		.cfi_offset 7, -20
 3363              		.cfi_offset 8, -16
 3364              		.cfi_offset 9, -12
 3365              		.cfi_offset 10, -8
 3366              		.cfi_offset 14, -4
 3367 0004 82B0     		sub	sp, sp, #8
 3368              	.LCFI17:
 3369              		.cfi_def_cfa_offset 40
 3370 0006 8046     		mov	r8, r0
 3371 0008 8A46     		mov	r10, r1
 3372 000a 1746     		mov	r7, r2
 3373 000c 9946     		mov	r9, r3
 3374 000e 0A9D     		ldr	r5, [sp, #40]
 530:ili9341/ili9341.c ****     transmition_open();
 3375              		.loc 1 530 5 is_stmt 1 view .LVU958
 3376              	.LBB480:
 3377              	.LBI480:
ARM GAS  /tmp/cc0CFvsY.s 			page 84


 179:ili9341/ili9341.c **** {
 3378              		.loc 1 179 20 view .LVU959
 3379              	.LBB481:
 181:ili9341/ili9341.c **** }
 3380              		.loc 1 181 5 view .LVU960
 3381 0010 AC4C     		ldr	r4, .L63
 3382 0012 0022     		movs	r2, #0
 3383              	.LVL289:
 181:ili9341/ili9341.c **** }
 3384              		.loc 1 181 5 is_stmt 0 view .LVU961
 3385 0014 4FF40051 		mov	r1, #8192
 3386              	.LVL290:
 181:ili9341/ili9341.c **** }
 3387              		.loc 1 181 5 view .LVU962
 3388 0018 2046     		mov	r0, r4
 3389              	.LVL291:
 181:ili9341/ili9341.c **** }
 3390              		.loc 1 181 5 view .LVU963
 3391 001a FFF7FEFF 		bl	HAL_GPIO_WritePin
 3392              	.LVL292:
 181:ili9341/ili9341.c **** }
 3393              		.loc 1 181 5 view .LVU964
 3394              	.LBE481:
 3395              	.LBE480:
 531:ili9341/ili9341.c ****     send_cmd(LCD_COLUMN_ADDR);
 3396              		.loc 1 531 5 is_stmt 1 view .LVU965
 3397              	.LBB482:
 3398              	.LBI482:
 157:ili9341/ili9341.c **** {
 3399              		.loc 1 157 20 view .LVU966
 3400              	.LBB483:
 159:ili9341/ili9341.c ****     WR_ACTIVE();
 3401              		.loc 1 159 5 view .LVU967
 3402 001e 0022     		movs	r2, #0
 3403 0020 4FF48041 		mov	r1, #16384
 3404 0024 2046     		mov	r0, r4
 3405 0026 FFF7FEFF 		bl	HAL_GPIO_WritePin
 3406              	.LVL293:
 160:ili9341/ili9341.c ****     GPIOA->ODR = (GPIOA->ODR & 0xFF00) | cmd;
 3407              		.loc 1 160 5 view .LVU968
 3408 002a 0022     		movs	r2, #0
 3409 002c 4FF40041 		mov	r1, #32768
 3410 0030 2046     		mov	r0, r4
 3411 0032 FFF7FEFF 		bl	HAL_GPIO_WritePin
 3412              	.LVL294:
 161:ili9341/ili9341.c ****     WR_PAUSE();
 3413              		.loc 1 161 5 view .LVU969
 161:ili9341/ili9341.c ****     WR_PAUSE();
 3414              		.loc 1 161 24 is_stmt 0 view .LVU970
 3415 0036 A44E     		ldr	r6, .L63+4
 3416 0038 F368     		ldr	r3, [r6, #12]
 161:ili9341/ili9341.c ****     WR_PAUSE();
 3417              		.loc 1 161 30 view .LVU971
 3418 003a 03F47F43 		and	r3, r3, #65280
 161:ili9341/ili9341.c ****     WR_PAUSE();
 3419              		.loc 1 161 40 view .LVU972
 3420 003e 43F02A03 		orr	r3, r3, #42
ARM GAS  /tmp/cc0CFvsY.s 			page 85


 161:ili9341/ili9341.c ****     WR_PAUSE();
 3421              		.loc 1 161 16 view .LVU973
 3422 0042 F360     		str	r3, [r6, #12]
 3423              	.LVL295:
 162:ili9341/ili9341.c ****     WR_IDLE();
 3424              		.loc 1 162 15 is_stmt 1 view .LVU974
 163:ili9341/ili9341.c ****     RS_DATA();
 3425              		.loc 1 163 5 view .LVU975
 3426 0044 0122     		movs	r2, #1
 3427 0046 4FF40041 		mov	r1, #32768
 3428 004a 2046     		mov	r0, r4
 3429 004c FFF7FEFF 		bl	HAL_GPIO_WritePin
 3430              	.LVL296:
 164:ili9341/ili9341.c **** }
 3431              		.loc 1 164 5 view .LVU976
 3432 0050 0122     		movs	r2, #1
 3433 0052 4FF48041 		mov	r1, #16384
 3434 0056 2046     		mov	r0, r4
 3435 0058 FFF7FEFF 		bl	HAL_GPIO_WritePin
 3436              	.LVL297:
 164:ili9341/ili9341.c **** }
 3437              		.loc 1 164 5 is_stmt 0 view .LVU977
 3438              	.LBE483:
 3439              	.LBE482:
 532:ili9341/ili9341.c **** 
 533:ili9341/ili9341.c ****     send_data16(x);
 3440              		.loc 1 533 5 is_stmt 1 view .LVU978
 3441              	.LBB484:
 3442              	.LBI484:
 212:ili9341/ili9341.c **** {
 3443              		.loc 1 212 20 view .LVU979
 3444              	.LBB485:
 214:ili9341/ili9341.c ****     GPIOA->ODR = (GPIOA->ODR & 0xFF00) | (data >> 8);
 3445              		.loc 1 214 5 view .LVU980
 3446 005c 0022     		movs	r2, #0
 3447 005e 4FF40041 		mov	r1, #32768
 3448 0062 2046     		mov	r0, r4
 3449 0064 FFF7FEFF 		bl	HAL_GPIO_WritePin
 3450              	.LVL298:
 215:ili9341/ili9341.c ****     WR_IDLE();
 3451              		.loc 1 215 5 view .LVU981
 215:ili9341/ili9341.c ****     WR_IDLE();
 3452              		.loc 1 215 24 is_stmt 0 view .LVU982
 3453 0068 F368     		ldr	r3, [r6, #12]
 215:ili9341/ili9341.c ****     WR_IDLE();
 3454              		.loc 1 215 30 view .LVU983
 3455 006a 03F47F43 		and	r3, r3, #65280
 215:ili9341/ili9341.c ****     WR_IDLE();
 3456              		.loc 1 215 40 view .LVU984
 3457 006e 43EA1823 		orr	r3, r3, r8, lsr #8
 215:ili9341/ili9341.c ****     WR_IDLE();
 3458              		.loc 1 215 16 view .LVU985
 3459 0072 F360     		str	r3, [r6, #12]
 216:ili9341/ili9341.c **** 
 3460              		.loc 1 216 5 is_stmt 1 view .LVU986
 3461 0074 0122     		movs	r2, #1
 3462 0076 4FF40041 		mov	r1, #32768
ARM GAS  /tmp/cc0CFvsY.s 			page 86


 3463 007a 2046     		mov	r0, r4
 3464 007c FFF7FEFF 		bl	HAL_GPIO_WritePin
 3465              	.LVL299:
 218:ili9341/ili9341.c ****     GPIOA->ODR = (GPIOA->ODR & 0xFF00) | (data & 0x00FF);
 3466              		.loc 1 218 5 view .LVU987
 3467 0080 0022     		movs	r2, #0
 3468 0082 4FF40041 		mov	r1, #32768
 3469 0086 2046     		mov	r0, r4
 3470 0088 FFF7FEFF 		bl	HAL_GPIO_WritePin
 3471              	.LVL300:
 219:ili9341/ili9341.c ****     WR_IDLE();
 3472              		.loc 1 219 5 view .LVU988
 219:ili9341/ili9341.c ****     WR_IDLE();
 3473              		.loc 1 219 24 is_stmt 0 view .LVU989
 3474 008c F368     		ldr	r3, [r6, #12]
 219:ili9341/ili9341.c ****     WR_IDLE();
 3475              		.loc 1 219 30 view .LVU990
 3476 008e 03F47F43 		and	r3, r3, #65280
 219:ili9341/ili9341.c ****     WR_IDLE();
 3477              		.loc 1 219 48 view .LVU991
 3478 0092 5FFA88F2 		uxtb	r2, r8
 219:ili9341/ili9341.c ****     WR_IDLE();
 3479              		.loc 1 219 40 view .LVU992
 3480 0096 1343     		orrs	r3, r3, r2
 219:ili9341/ili9341.c ****     WR_IDLE();
 3481              		.loc 1 219 16 view .LVU993
 3482 0098 F360     		str	r3, [r6, #12]
 220:ili9341/ili9341.c **** }
 3483              		.loc 1 220 5 is_stmt 1 view .LVU994
 3484 009a 0122     		movs	r2, #1
 3485 009c 4FF40041 		mov	r1, #32768
 3486 00a0 2046     		mov	r0, r4
 3487 00a2 FFF7FEFF 		bl	HAL_GPIO_WritePin
 3488              	.LVL301:
 220:ili9341/ili9341.c **** }
 3489              		.loc 1 220 5 is_stmt 0 view .LVU995
 3490              	.LBE485:
 3491              	.LBE484:
 534:ili9341/ili9341.c ****     send_data16(x + w-1);
 3492              		.loc 1 534 5 is_stmt 1 view .LVU996
 3493              		.loc 1 534 19 is_stmt 0 view .LVU997
 3494 00a6 D044     		add	r8, r8, r10
 3495 00a8 1FFA88F8 		uxth	r8, r8
 3496              		.loc 1 534 5 view .LVU998
 3497 00ac 08F1FF38 		add	r8, r8, #-1
 3498 00b0 1FFA88F8 		uxth	r8, r8
 3499              	.LVL302:
 3500              	.LBB486:
 3501              	.LBI486:
 212:ili9341/ili9341.c **** {
 3502              		.loc 1 212 20 is_stmt 1 view .LVU999
 3503              	.LBB487:
 214:ili9341/ili9341.c ****     GPIOA->ODR = (GPIOA->ODR & 0xFF00) | (data >> 8);
 3504              		.loc 1 214 5 view .LVU1000
 3505 00b4 0022     		movs	r2, #0
 3506 00b6 4FF40041 		mov	r1, #32768
 3507 00ba 2046     		mov	r0, r4
ARM GAS  /tmp/cc0CFvsY.s 			page 87


 3508 00bc FFF7FEFF 		bl	HAL_GPIO_WritePin
 3509              	.LVL303:
 215:ili9341/ili9341.c ****     WR_IDLE();
 3510              		.loc 1 215 5 view .LVU1001
 215:ili9341/ili9341.c ****     WR_IDLE();
 3511              		.loc 1 215 24 is_stmt 0 view .LVU1002
 3512 00c0 F368     		ldr	r3, [r6, #12]
 215:ili9341/ili9341.c ****     WR_IDLE();
 3513              		.loc 1 215 30 view .LVU1003
 3514 00c2 03F47F43 		and	r3, r3, #65280
 215:ili9341/ili9341.c ****     WR_IDLE();
 3515              		.loc 1 215 40 view .LVU1004
 3516 00c6 43EA1823 		orr	r3, r3, r8, lsr #8
 215:ili9341/ili9341.c ****     WR_IDLE();
 3517              		.loc 1 215 16 view .LVU1005
 3518 00ca F360     		str	r3, [r6, #12]
 216:ili9341/ili9341.c **** 
 3519              		.loc 1 216 5 is_stmt 1 view .LVU1006
 3520 00cc 0122     		movs	r2, #1
 3521 00ce 4FF40041 		mov	r1, #32768
 3522 00d2 2046     		mov	r0, r4
 3523 00d4 FFF7FEFF 		bl	HAL_GPIO_WritePin
 3524              	.LVL304:
 218:ili9341/ili9341.c ****     GPIOA->ODR = (GPIOA->ODR & 0xFF00) | (data & 0x00FF);
 3525              		.loc 1 218 5 view .LVU1007
 3526 00d8 0022     		movs	r2, #0
 3527 00da 4FF40041 		mov	r1, #32768
 3528 00de 2046     		mov	r0, r4
 3529 00e0 FFF7FEFF 		bl	HAL_GPIO_WritePin
 3530              	.LVL305:
 219:ili9341/ili9341.c ****     WR_IDLE();
 3531              		.loc 1 219 5 view .LVU1008
 219:ili9341/ili9341.c ****     WR_IDLE();
 3532              		.loc 1 219 24 is_stmt 0 view .LVU1009
 3533 00e4 F368     		ldr	r3, [r6, #12]
 219:ili9341/ili9341.c ****     WR_IDLE();
 3534              		.loc 1 219 30 view .LVU1010
 3535 00e6 03F47F43 		and	r3, r3, #65280
 219:ili9341/ili9341.c ****     WR_IDLE();
 3536              		.loc 1 219 48 view .LVU1011
 3537 00ea 5FFA88F8 		uxtb	r8, r8
 3538              	.LVL306:
 219:ili9341/ili9341.c ****     WR_IDLE();
 3539              		.loc 1 219 40 view .LVU1012
 3540 00ee 43EA0803 		orr	r3, r3, r8
 219:ili9341/ili9341.c ****     WR_IDLE();
 3541              		.loc 1 219 16 view .LVU1013
 3542 00f2 F360     		str	r3, [r6, #12]
 220:ili9341/ili9341.c **** }
 3543              		.loc 1 220 5 is_stmt 1 view .LVU1014
 3544 00f4 0122     		movs	r2, #1
 3545 00f6 4FF40041 		mov	r1, #32768
 3546 00fa 2046     		mov	r0, r4
 3547 00fc FFF7FEFF 		bl	HAL_GPIO_WritePin
 3548              	.LVL307:
 220:ili9341/ili9341.c **** }
 3549              		.loc 1 220 5 is_stmt 0 view .LVU1015
ARM GAS  /tmp/cc0CFvsY.s 			page 88


 3550              	.LBE487:
 3551              	.LBE486:
 535:ili9341/ili9341.c **** 
 536:ili9341/ili9341.c **** 
 537:ili9341/ili9341.c ****     send_cmd(LCD_PAGE_ADDR);
 3552              		.loc 1 537 5 is_stmt 1 view .LVU1016
 3553              	.LBB488:
 3554              	.LBI488:
 157:ili9341/ili9341.c **** {
 3555              		.loc 1 157 20 view .LVU1017
 3556              	.LBB489:
 159:ili9341/ili9341.c ****     WR_ACTIVE();
 3557              		.loc 1 159 5 view .LVU1018
 3558 0100 0022     		movs	r2, #0
 3559 0102 4FF48041 		mov	r1, #16384
 3560 0106 2046     		mov	r0, r4
 3561 0108 FFF7FEFF 		bl	HAL_GPIO_WritePin
 3562              	.LVL308:
 160:ili9341/ili9341.c ****     GPIOA->ODR = (GPIOA->ODR & 0xFF00) | cmd;
 3563              		.loc 1 160 5 view .LVU1019
 3564 010c 0022     		movs	r2, #0
 3565 010e 4FF40041 		mov	r1, #32768
 3566 0112 2046     		mov	r0, r4
 3567 0114 FFF7FEFF 		bl	HAL_GPIO_WritePin
 3568              	.LVL309:
 161:ili9341/ili9341.c ****     WR_PAUSE();
 3569              		.loc 1 161 5 view .LVU1020
 161:ili9341/ili9341.c ****     WR_PAUSE();
 3570              		.loc 1 161 24 is_stmt 0 view .LVU1021
 3571 0118 F368     		ldr	r3, [r6, #12]
 161:ili9341/ili9341.c ****     WR_PAUSE();
 3572              		.loc 1 161 30 view .LVU1022
 3573 011a 03F47F43 		and	r3, r3, #65280
 161:ili9341/ili9341.c ****     WR_PAUSE();
 3574              		.loc 1 161 40 view .LVU1023
 3575 011e 43F02B03 		orr	r3, r3, #43
 161:ili9341/ili9341.c ****     WR_PAUSE();
 3576              		.loc 1 161 16 view .LVU1024
 3577 0122 F360     		str	r3, [r6, #12]
 162:ili9341/ili9341.c ****     WR_IDLE();
 3578              		.loc 1 162 15 is_stmt 1 view .LVU1025
 163:ili9341/ili9341.c ****     RS_DATA();
 3579              		.loc 1 163 5 view .LVU1026
 3580 0124 0122     		movs	r2, #1
 3581 0126 4FF40041 		mov	r1, #32768
 3582 012a 2046     		mov	r0, r4
 3583 012c FFF7FEFF 		bl	HAL_GPIO_WritePin
 3584              	.LVL310:
 164:ili9341/ili9341.c **** }
 3585              		.loc 1 164 5 view .LVU1027
 3586 0130 0122     		movs	r2, #1
 3587 0132 4FF48041 		mov	r1, #16384
 3588 0136 2046     		mov	r0, r4
 3589 0138 FFF7FEFF 		bl	HAL_GPIO_WritePin
 3590              	.LVL311:
 164:ili9341/ili9341.c **** }
 3591              		.loc 1 164 5 is_stmt 0 view .LVU1028
ARM GAS  /tmp/cc0CFvsY.s 			page 89


 3592              	.LBE489:
 3593              	.LBE488:
 538:ili9341/ili9341.c ****     send_data16(y);
 3594              		.loc 1 538 5 is_stmt 1 view .LVU1029
 3595              	.LBB490:
 3596              	.LBI490:
 212:ili9341/ili9341.c **** {
 3597              		.loc 1 212 20 view .LVU1030
 3598              	.LBB491:
 214:ili9341/ili9341.c ****     GPIOA->ODR = (GPIOA->ODR & 0xFF00) | (data >> 8);
 3599              		.loc 1 214 5 view .LVU1031
 3600 013c 0022     		movs	r2, #0
 3601 013e 4FF40041 		mov	r1, #32768
 3602 0142 2046     		mov	r0, r4
 3603 0144 FFF7FEFF 		bl	HAL_GPIO_WritePin
 3604              	.LVL312:
 215:ili9341/ili9341.c ****     WR_IDLE();
 3605              		.loc 1 215 5 view .LVU1032
 215:ili9341/ili9341.c ****     WR_IDLE();
 3606              		.loc 1 215 24 is_stmt 0 view .LVU1033
 3607 0148 F368     		ldr	r3, [r6, #12]
 215:ili9341/ili9341.c ****     WR_IDLE();
 3608              		.loc 1 215 30 view .LVU1034
 3609 014a 03F47F43 		and	r3, r3, #65280
 215:ili9341/ili9341.c ****     WR_IDLE();
 3610              		.loc 1 215 40 view .LVU1035
 3611 014e 43EA1723 		orr	r3, r3, r7, lsr #8
 215:ili9341/ili9341.c ****     WR_IDLE();
 3612              		.loc 1 215 16 view .LVU1036
 3613 0152 F360     		str	r3, [r6, #12]
 216:ili9341/ili9341.c **** 
 3614              		.loc 1 216 5 is_stmt 1 view .LVU1037
 3615 0154 0122     		movs	r2, #1
 3616 0156 4FF40041 		mov	r1, #32768
 3617 015a 2046     		mov	r0, r4
 3618 015c FFF7FEFF 		bl	HAL_GPIO_WritePin
 3619              	.LVL313:
 218:ili9341/ili9341.c ****     GPIOA->ODR = (GPIOA->ODR & 0xFF00) | (data & 0x00FF);
 3620              		.loc 1 218 5 view .LVU1038
 3621 0160 0022     		movs	r2, #0
 3622 0162 4FF40041 		mov	r1, #32768
 3623 0166 2046     		mov	r0, r4
 3624 0168 FFF7FEFF 		bl	HAL_GPIO_WritePin
 3625              	.LVL314:
 219:ili9341/ili9341.c ****     WR_IDLE();
 3626              		.loc 1 219 5 view .LVU1039
 219:ili9341/ili9341.c ****     WR_IDLE();
 3627              		.loc 1 219 24 is_stmt 0 view .LVU1040
 3628 016c F368     		ldr	r3, [r6, #12]
 219:ili9341/ili9341.c ****     WR_IDLE();
 3629              		.loc 1 219 30 view .LVU1041
 3630 016e 03F47F43 		and	r3, r3, #65280
 219:ili9341/ili9341.c ****     WR_IDLE();
 3631              		.loc 1 219 48 view .LVU1042
 3632 0172 FAB2     		uxtb	r2, r7
 219:ili9341/ili9341.c ****     WR_IDLE();
 3633              		.loc 1 219 40 view .LVU1043
ARM GAS  /tmp/cc0CFvsY.s 			page 90


 3634 0174 1343     		orrs	r3, r3, r2
 219:ili9341/ili9341.c ****     WR_IDLE();
 3635              		.loc 1 219 16 view .LVU1044
 3636 0176 F360     		str	r3, [r6, #12]
 220:ili9341/ili9341.c **** }
 3637              		.loc 1 220 5 is_stmt 1 view .LVU1045
 3638 0178 0122     		movs	r2, #1
 3639 017a 4FF40041 		mov	r1, #32768
 3640 017e 2046     		mov	r0, r4
 3641 0180 FFF7FEFF 		bl	HAL_GPIO_WritePin
 3642              	.LVL315:
 220:ili9341/ili9341.c **** }
 3643              		.loc 1 220 5 is_stmt 0 view .LVU1046
 3644              	.LBE491:
 3645              	.LBE490:
 539:ili9341/ili9341.c ****     send_data16(y + h-1);
 3646              		.loc 1 539 5 is_stmt 1 view .LVU1047
 3647              		.loc 1 539 19 is_stmt 0 view .LVU1048
 3648 0184 4F44     		add	r7, r7, r9
 3649 0186 BFB2     		uxth	r7, r7
 3650              		.loc 1 539 5 view .LVU1049
 3651 0188 013F     		subs	r7, r7, #1
 3652 018a BFB2     		uxth	r7, r7
 3653              	.LVL316:
 3654              	.LBB492:
 3655              	.LBI492:
 212:ili9341/ili9341.c **** {
 3656              		.loc 1 212 20 is_stmt 1 view .LVU1050
 3657              	.LBB493:
 214:ili9341/ili9341.c ****     GPIOA->ODR = (GPIOA->ODR & 0xFF00) | (data >> 8);
 3658              		.loc 1 214 5 view .LVU1051
 3659 018c 0022     		movs	r2, #0
 3660 018e 4FF40041 		mov	r1, #32768
 3661 0192 2046     		mov	r0, r4
 3662 0194 FFF7FEFF 		bl	HAL_GPIO_WritePin
 3663              	.LVL317:
 215:ili9341/ili9341.c ****     WR_IDLE();
 3664              		.loc 1 215 5 view .LVU1052
 215:ili9341/ili9341.c ****     WR_IDLE();
 3665              		.loc 1 215 24 is_stmt 0 view .LVU1053
 3666 0198 F368     		ldr	r3, [r6, #12]
 215:ili9341/ili9341.c ****     WR_IDLE();
 3667              		.loc 1 215 30 view .LVU1054
 3668 019a 03F47F43 		and	r3, r3, #65280
 215:ili9341/ili9341.c ****     WR_IDLE();
 3669              		.loc 1 215 40 view .LVU1055
 3670 019e 43EA1723 		orr	r3, r3, r7, lsr #8
 215:ili9341/ili9341.c ****     WR_IDLE();
 3671              		.loc 1 215 16 view .LVU1056
 3672 01a2 F360     		str	r3, [r6, #12]
 216:ili9341/ili9341.c **** 
 3673              		.loc 1 216 5 is_stmt 1 view .LVU1057
 3674 01a4 0122     		movs	r2, #1
 3675 01a6 4FF40041 		mov	r1, #32768
 3676 01aa 2046     		mov	r0, r4
 3677 01ac FFF7FEFF 		bl	HAL_GPIO_WritePin
 3678              	.LVL318:
ARM GAS  /tmp/cc0CFvsY.s 			page 91


 218:ili9341/ili9341.c ****     GPIOA->ODR = (GPIOA->ODR & 0xFF00) | (data & 0x00FF);
 3679              		.loc 1 218 5 view .LVU1058
 3680 01b0 0022     		movs	r2, #0
 3681 01b2 4FF40041 		mov	r1, #32768
 3682 01b6 2046     		mov	r0, r4
 3683 01b8 FFF7FEFF 		bl	HAL_GPIO_WritePin
 3684              	.LVL319:
 219:ili9341/ili9341.c ****     WR_IDLE();
 3685              		.loc 1 219 5 view .LVU1059
 219:ili9341/ili9341.c ****     WR_IDLE();
 3686              		.loc 1 219 24 is_stmt 0 view .LVU1060
 3687 01bc F368     		ldr	r3, [r6, #12]
 219:ili9341/ili9341.c ****     WR_IDLE();
 3688              		.loc 1 219 30 view .LVU1061
 3689 01be 03F47F43 		and	r3, r3, #65280
 219:ili9341/ili9341.c ****     WR_IDLE();
 3690              		.loc 1 219 48 view .LVU1062
 3691 01c2 FFB2     		uxtb	r7, r7
 3692              	.LVL320:
 219:ili9341/ili9341.c ****     WR_IDLE();
 3693              		.loc 1 219 40 view .LVU1063
 3694 01c4 1F43     		orrs	r7, r7, r3
 219:ili9341/ili9341.c ****     WR_IDLE();
 3695              		.loc 1 219 16 view .LVU1064
 3696 01c6 F760     		str	r7, [r6, #12]
 220:ili9341/ili9341.c **** }
 3697              		.loc 1 220 5 is_stmt 1 view .LVU1065
 3698 01c8 0122     		movs	r2, #1
 3699 01ca 4FF40041 		mov	r1, #32768
 3700 01ce 2046     		mov	r0, r4
 3701 01d0 FFF7FEFF 		bl	HAL_GPIO_WritePin
 3702              	.LVL321:
 220:ili9341/ili9341.c **** }
 3703              		.loc 1 220 5 is_stmt 0 view .LVU1066
 3704              	.LBE493:
 3705              	.LBE492:
 540:ili9341/ili9341.c **** 
 541:ili9341/ili9341.c ****     send_cmd(LCD_RAMRD);
 3706              		.loc 1 541 5 is_stmt 1 view .LVU1067
 3707              	.LBB494:
 3708              	.LBI494:
 157:ili9341/ili9341.c **** {
 3709              		.loc 1 157 20 view .LVU1068
 3710              	.LBB495:
 159:ili9341/ili9341.c ****     WR_ACTIVE();
 3711              		.loc 1 159 5 view .LVU1069
 3712 01d4 0022     		movs	r2, #0
 3713 01d6 4FF48041 		mov	r1, #16384
 3714 01da 2046     		mov	r0, r4
 3715 01dc FFF7FEFF 		bl	HAL_GPIO_WritePin
 3716              	.LVL322:
 160:ili9341/ili9341.c ****     GPIOA->ODR = (GPIOA->ODR & 0xFF00) | cmd;
 3717              		.loc 1 160 5 view .LVU1070
 3718 01e0 0022     		movs	r2, #0
 3719 01e2 4FF40041 		mov	r1, #32768
 3720 01e6 2046     		mov	r0, r4
 3721 01e8 FFF7FEFF 		bl	HAL_GPIO_WritePin
ARM GAS  /tmp/cc0CFvsY.s 			page 92


 3722              	.LVL323:
 161:ili9341/ili9341.c ****     WR_PAUSE();
 3723              		.loc 1 161 5 view .LVU1071
 161:ili9341/ili9341.c ****     WR_PAUSE();
 3724              		.loc 1 161 24 is_stmt 0 view .LVU1072
 3725 01ec F368     		ldr	r3, [r6, #12]
 161:ili9341/ili9341.c ****     WR_PAUSE();
 3726              		.loc 1 161 30 view .LVU1073
 3727 01ee 03F47F43 		and	r3, r3, #65280
 161:ili9341/ili9341.c ****     WR_PAUSE();
 3728              		.loc 1 161 40 view .LVU1074
 3729 01f2 43F02E03 		orr	r3, r3, #46
 161:ili9341/ili9341.c ****     WR_PAUSE();
 3730              		.loc 1 161 16 view .LVU1075
 3731 01f6 F360     		str	r3, [r6, #12]
 162:ili9341/ili9341.c ****     WR_IDLE();
 3732              		.loc 1 162 15 is_stmt 1 view .LVU1076
 163:ili9341/ili9341.c ****     RS_DATA();
 3733              		.loc 1 163 5 view .LVU1077
 3734 01f8 0122     		movs	r2, #1
 3735 01fa 4FF40041 		mov	r1, #32768
 3736 01fe 2046     		mov	r0, r4
 3737 0200 FFF7FEFF 		bl	HAL_GPIO_WritePin
 3738              	.LVL324:
 164:ili9341/ili9341.c **** }
 3739              		.loc 1 164 5 view .LVU1078
 3740 0204 0122     		movs	r2, #1
 3741 0206 4FF48041 		mov	r1, #16384
 3742 020a 2046     		mov	r0, r4
 3743 020c FFF7FEFF 		bl	HAL_GPIO_WritePin
 3744              	.LVL325:
 164:ili9341/ili9341.c **** }
 3745              		.loc 1 164 5 is_stmt 0 view .LVU1079
 3746              	.LBE495:
 3747              	.LBE494:
 542:ili9341/ili9341.c ****     (void)read_data();  /* Dummy data. */
 3748              		.loc 1 542 5 is_stmt 1 view .LVU1080
 3749              	.LBB496:
 3750              	.LBI496:
 184:ili9341/ili9341.c **** {   
 3751              		.loc 1 184 23 view .LVU1081
 3752              	.LBB497:
 186:ili9341/ili9341.c **** 
 3753              		.loc 1 186 5 view .LVU1082
 3754              	.LBB498:
 3755              	.LBI498:
 151:ili9341/ili9341.c **** {
 3756              		.loc 1 151 20 view .LVU1083
 3757              	.LBB499:
 153:ili9341/ili9341.c ****     GPIOA->BSRR = 0xFF;
 3758              		.loc 1 153 5 view .LVU1084
 153:ili9341/ili9341.c ****     GPIOA->BSRR = 0xFF;
 3759              		.loc 1 153 17 is_stmt 0 view .LVU1085
 3760 0210 4FF08833 		mov	r3, #-2004318072
 3761 0214 3360     		str	r3, [r6]
 154:ili9341/ili9341.c **** }
 3762              		.loc 1 154 5 is_stmt 1 view .LVU1086
ARM GAS  /tmp/cc0CFvsY.s 			page 93


 154:ili9341/ili9341.c **** }
 3763              		.loc 1 154 17 is_stmt 0 view .LVU1087
 3764 0216 FF23     		movs	r3, #255
 3765 0218 3361     		str	r3, [r6, #16]
 3766              	.LBE499:
 3767              	.LBE498:
 188:ili9341/ili9341.c ****     uint8_t data = (uint8_t)(GPIOA->IDR);
 3768              		.loc 1 188 5 is_stmt 1 view .LVU1088
 3769 021a 0022     		movs	r2, #0
 3770 021c 4FF40061 		mov	r1, #2048
 3771 0220 2046     		mov	r0, r4
 3772 0222 FFF7FEFF 		bl	HAL_GPIO_WritePin
 3773              	.LVL326:
 189:ili9341/ili9341.c ****     RD_IDLE();
 3774              		.loc 1 189 5 view .LVU1089
 189:ili9341/ili9341.c ****     RD_IDLE();
 3775              		.loc 1 189 35 is_stmt 0 view .LVU1090
 3776 0226 B368     		ldr	r3, [r6, #8]
 190:ili9341/ili9341.c ****     set_write_bus();
 3777              		.loc 1 190 5 is_stmt 1 view .LVU1091
 3778 0228 0122     		movs	r2, #1
 3779 022a 4FF40061 		mov	r1, #2048
 3780 022e 2046     		mov	r0, r4
 3781 0230 FFF7FEFF 		bl	HAL_GPIO_WritePin
 3782              	.LVL327:
 191:ili9341/ili9341.c ****     return data;
 3783              		.loc 1 191 5 view .LVU1092
 3784              	.LBB500:
 3785              	.LBI500:
 146:ili9341/ili9341.c **** {
 3786              		.loc 1 146 20 view .LVU1093
 3787              	.LBB501:
 148:ili9341/ili9341.c **** }
 3788              		.loc 1 148 5 view .LVU1094
 148:ili9341/ili9341.c **** }
 3789              		.loc 1 148 16 is_stmt 0 view .LVU1095
 3790 0234 4FF03333 		mov	r3, #858993459
 3791 0238 3360     		str	r3, [r6]
 3792              	.LBE501:
 3793              	.LBE500:
 192:ili9341/ili9341.c **** }
 3794              		.loc 1 192 5 is_stmt 1 view .LVU1096
 3795              	.LBE497:
 3796              	.LBE496:
 543:ili9341/ili9341.c ****     uint16_t *data_u16 = (uint16_t *)data;
 3797              		.loc 1 543 5 view .LVU1097
 3798              	.LVL328:
 544:ili9341/ili9341.c **** 
 545:ili9341/ili9341.c ****     len = len / sizeof(uint16_t);
 3799              		.loc 1 545 5 view .LVU1098
 3800              		.loc 1 545 9 is_stmt 0 view .LVU1099
 3801 023a BDF82C60 		ldrh	r6, [sp, #44]
 3802 023e 7608     		lsrs	r6, r6, #1
 3803              	.LVL329:
 546:ili9341/ili9341.c ****     
 547:ili9341/ili9341.c ****     for (size_t i = 0; i < len; i++)
 3804              		.loc 1 547 5 is_stmt 1 view .LVU1100
ARM GAS  /tmp/cc0CFvsY.s 			page 94


 3805              	.LBB502:
 3806              		.loc 1 547 10 view .LVU1101
 3807              		.loc 1 547 17 is_stmt 0 view .LVU1102
 3808 0240 0024     		movs	r4, #0
 3809              		.loc 1 547 5 view .LVU1103
 3810 0242 2CE0     		b	.L57
 3811              	.LVL330:
 3812              	.L59:
 3813              	.LBB503:
 3814              	.LBB504:
 3815              	.LBB505:
 172:ili9341/ili9341.c ****         data[i] = (uint8_t)(GPIOA->IDR);
 3816              		.loc 1 172 9 is_stmt 1 view .LVU1104
 3817 0244 DFF87C80 		ldr	r8, .L63
 3818 0248 0022     		movs	r2, #0
 3819 024a 4FF40061 		mov	r1, #2048
 3820 024e 4046     		mov	r0, r8
 3821 0250 FFF7FEFF 		bl	HAL_GPIO_WritePin
 3822              	.LVL331:
 173:ili9341/ili9341.c ****         RD_IDLE();
 3823              		.loc 1 173 9 view .LVU1105
 173:ili9341/ili9341.c ****         RD_IDLE();
 3824              		.loc 1 173 34 is_stmt 0 view .LVU1106
 3825 0254 1C4B     		ldr	r3, .L63+4
 3826 0256 9A68     		ldr	r2, [r3, #8]
 173:ili9341/ili9341.c ****         RD_IDLE();
 3827              		.loc 1 173 17 view .LVU1107
 3828 0258 01AB     		add	r3, sp, #4
 3829              	.LVL332:
 173:ili9341/ili9341.c ****         RD_IDLE();
 3830              		.loc 1 173 17 view .LVU1108
 3831 025a DA55     		strb	r2, [r3, r7]
 174:ili9341/ili9341.c ****     }
 3832              		.loc 1 174 9 is_stmt 1 view .LVU1109
 3833 025c 0122     		movs	r2, #1
 3834 025e 4FF40061 		mov	r1, #2048
 3835 0262 4046     		mov	r0, r8
 3836 0264 FFF7FEFF 		bl	HAL_GPIO_WritePin
 3837              	.LVL333:
 170:ili9341/ili9341.c ****     {
 3838              		.loc 1 170 33 view .LVU1110
 170:ili9341/ili9341.c ****     {
 3839              		.loc 1 170 34 is_stmt 0 view .LVU1111
 3840 0268 0137     		adds	r7, r7, #1
 3841              	.LVL334:
 3842              	.L58:
 170:ili9341/ili9341.c ****     {
 3843              		.loc 1 170 24 is_stmt 1 view .LVU1112
 170:ili9341/ili9341.c ****     {
 3844              		.loc 1 170 5 is_stmt 0 view .LVU1113
 3845 026a 022F     		cmp	r7, #2
 3846 026c EAD9     		bls	.L59
 3847              	.LBE505:
 3848              	.LBE504:
 3849              	.LBE503:
 3850              	.LBE502:
 177:ili9341/ili9341.c **** }
ARM GAS  /tmp/cc0CFvsY.s 			page 95


 3851              		.loc 1 177 5 is_stmt 1 view .LVU1114
 3852              	.LBB519:
 3853              	.LBB515:
 3854              	.LBB511:
 3855              	.LBB506:
 3856              	.LBI506:
 146:ili9341/ili9341.c **** {
 3857              		.loc 1 146 20 view .LVU1115
 3858              	.LBB507:
 148:ili9341/ili9341.c **** }
 3859              		.loc 1 148 5 view .LVU1116
 148:ili9341/ili9341.c **** }
 3860              		.loc 1 148 16 is_stmt 0 view .LVU1117
 3861 026e 164B     		ldr	r3, .L63+4
 3862 0270 4FF03332 		mov	r2, #858993459
 3863 0274 1A60     		str	r2, [r3]
 3864              	.LVL335:
 148:ili9341/ili9341.c **** }
 3865              		.loc 1 148 16 view .LVU1118
 3866              	.LBE507:
 3867              	.LBE506:
 3868              	.LBE511:
 548:ili9341/ili9341.c ****     {
 549:ili9341/ili9341.c ****         uint8_t raw[3];
 550:ili9341/ili9341.c ****         read_multi_data(raw, sizeof(raw));
 551:ili9341/ili9341.c ****         data_u16[i]  = (raw[0] >> 3) << 11;
 3869              		.loc 1 551 9 is_stmt 1 view .LVU1119
 3870              		.loc 1 551 28 is_stmt 0 view .LVU1120
 3871 0276 9DF80430 		ldrb	r3, [sp, #4]	@ zero_extendqisi2
 3872              		.loc 1 551 38 view .LVU1121
 3873 027a DB08     		lsrs	r3, r3, #3
 3874 027c DB02     		lsls	r3, r3, #11
 3875              		.loc 1 551 22 view .LVU1122
 3876 027e 25F81430 		strh	r3, [r5, r4, lsl #1]	@ movhi
 552:ili9341/ili9341.c ****         data_u16[i] |= (raw[1] >> 2) << 5;
 3877              		.loc 1 552 9 is_stmt 1 view .LVU1123
 3878              		.loc 1 552 28 is_stmt 0 view .LVU1124
 3879 0282 9DF80520 		ldrb	r2, [sp, #5]	@ zero_extendqisi2
 3880              		.loc 1 552 32 view .LVU1125
 3881 0286 9208     		lsrs	r2, r2, #2
 3882              		.loc 1 552 21 view .LVU1126
 3883 0288 43EA4213 		orr	r3, r3, r2, lsl #5
 3884 028c 25F81430 		strh	r3, [r5, r4, lsl #1]	@ movhi
 553:ili9341/ili9341.c ****         data_u16[i] |= (raw[2] >> 3);
 3885              		.loc 1 553 9 is_stmt 1 view .LVU1127
 3886              		.loc 1 553 28 is_stmt 0 view .LVU1128
 3887 0290 9DF80620 		ldrb	r2, [sp, #6]	@ zero_extendqisi2
 3888              		.loc 1 553 21 view .LVU1129
 3889 0294 43EAD203 		orr	r3, r3, r2, lsr #3
 3890 0298 25F81430 		strh	r3, [r5, r4, lsl #1]	@ movhi
 3891              	.LBE515:
 547:ili9341/ili9341.c ****     {
 3892              		.loc 1 547 33 is_stmt 1 view .LVU1130
 547:ili9341/ili9341.c ****     {
 3893              		.loc 1 547 34 is_stmt 0 view .LVU1131
 3894 029c 0134     		adds	r4, r4, #1
 3895              	.LVL336:
ARM GAS  /tmp/cc0CFvsY.s 			page 96


 3896              	.L57:
 547:ili9341/ili9341.c ****     {
 3897              		.loc 1 547 24 is_stmt 1 discriminator 1 view .LVU1132
 547:ili9341/ili9341.c ****     {
 3898              		.loc 1 547 5 is_stmt 0 discriminator 1 view .LVU1133
 3899 029e A642     		cmp	r6, r4
 3900 02a0 07D9     		bls	.L62
 3901              	.LBB516:
 549:ili9341/ili9341.c ****         read_multi_data(raw, sizeof(raw));
 3902              		.loc 1 549 9 is_stmt 1 view .LVU1134
 550:ili9341/ili9341.c ****         data_u16[i]  = (raw[0] >> 3) << 11;
 3903              		.loc 1 550 9 view .LVU1135
 3904              	.LVL337:
 3905              	.LBB512:
 3906              	.LBI504:
 166:ili9341/ili9341.c **** {
 3907              		.loc 1 166 20 view .LVU1136
 3908              	.LBE512:
 3909              	.LBE516:
 3910              	.LBE519:
 168:ili9341/ili9341.c **** 
 3911              		.loc 1 168 5 view .LVU1137
 3912              	.LBB520:
 3913              	.LBB517:
 3914              	.LBB513:
 3915              	.LBB508:
 3916              	.LBI508:
 151:ili9341/ili9341.c **** {
 3917              		.loc 1 151 20 view .LVU1138
 3918              	.LBB509:
 153:ili9341/ili9341.c ****     GPIOA->BSRR = 0xFF;
 3919              		.loc 1 153 5 view .LVU1139
 153:ili9341/ili9341.c ****     GPIOA->BSRR = 0xFF;
 3920              		.loc 1 153 17 is_stmt 0 view .LVU1140
 3921 02a2 094B     		ldr	r3, .L63+4
 3922 02a4 4FF08832 		mov	r2, #-2004318072
 3923 02a8 1A60     		str	r2, [r3]
 154:ili9341/ili9341.c **** }
 3924              		.loc 1 154 5 is_stmt 1 view .LVU1141
 154:ili9341/ili9341.c **** }
 3925              		.loc 1 154 17 is_stmt 0 view .LVU1142
 3926 02aa FF22     		movs	r2, #255
 3927 02ac 1A61     		str	r2, [r3, #16]
 3928              	.LBE509:
 3929              	.LBE508:
 3930              	.LBE513:
 3931              	.LBE517:
 3932              	.LBE520:
 170:ili9341/ili9341.c ****     {
 3933              		.loc 1 170 5 is_stmt 1 view .LVU1143
 3934              	.LBB521:
 3935              	.LBB518:
 3936              	.LBB514:
 3937              	.LBB510:
 170:ili9341/ili9341.c ****     {
 3938              		.loc 1 170 10 view .LVU1144
 3939              	.LVL338:
ARM GAS  /tmp/cc0CFvsY.s 			page 97


 170:ili9341/ili9341.c ****     {
 3940              		.loc 1 170 17 is_stmt 0 view .LVU1145
 3941 02ae 0027     		movs	r7, #0
 170:ili9341/ili9341.c ****     {
 3942              		.loc 1 170 5 view .LVU1146
 3943 02b0 DBE7     		b	.L58
 3944              	.LVL339:
 3945              	.L62:
 170:ili9341/ili9341.c ****     {
 3946              		.loc 1 170 5 view .LVU1147
 3947              	.LBE510:
 3948              	.LBE514:
 3949              	.LBE518:
 3950              	.LBE521:
 554:ili9341/ili9341.c ****     }
 555:ili9341/ili9341.c **** 
 556:ili9341/ili9341.c ****     transmition_close();
 3951              		.loc 1 556 5 is_stmt 1 view .LVU1148
 3952              	.LBB522:
 3953              	.LBI522:
 223:ili9341/ili9341.c **** {
 3954              		.loc 1 223 20 view .LVU1149
 3955              	.LBB523:
 225:ili9341/ili9341.c **** }
 3956              		.loc 1 225 5 view .LVU1150
 3957 02b2 0122     		movs	r2, #1
 3958 02b4 4FF40051 		mov	r1, #8192
 3959 02b8 0248     		ldr	r0, .L63
 3960 02ba FFF7FEFF 		bl	HAL_GPIO_WritePin
 3961              	.LVL340:
 3962              	.LBE523:
 3963              	.LBE522:
 557:ili9341/ili9341.c **** }
 3964              		.loc 1 557 1 is_stmt 0 view .LVU1151
 3965 02be 02B0     		add	sp, sp, #8
 3966              	.LCFI18:
 3967              		.cfi_def_cfa_offset 32
 3968              		@ sp needed
 3969 02c0 BDE8F087 		pop	{r4, r5, r6, r7, r8, r9, r10, pc}
 3970              	.LVL341:
 3971              	.L64:
 3972              		.loc 1 557 1 view .LVU1152
 3973              		.align	2
 3974              	.L63:
 3975 02c4 000C0140 		.word	1073810432
 3976 02c8 00080140 		.word	1073809408
 3977              		.cfi_endproc
 3978              	.LFE86:
 3980              		.section	.text.ili9341_mem_write_rect,"ax",%progbits
 3981              		.align	1
 3982              		.global	ili9341_mem_write_rect
 3983              		.syntax unified
 3984              		.thumb
 3985              		.thumb_func
 3986              		.fpu softvfp
 3988              	ili9341_mem_write_rect:
 3989              	.LVL342:
ARM GAS  /tmp/cc0CFvsY.s 			page 98


 3990              	.LFB87:
 558:ili9341/ili9341.c **** 
 559:ili9341/ili9341.c **** void ili9341_mem_write_rect(uint16_t x, uint16_t w, uint16_t y, uint16_t h, const uint8_t *data, ui
 560:ili9341/ili9341.c **** {
 3991              		.loc 1 560 1 is_stmt 1 view -0
 3992              		.cfi_startproc
 3993              		@ args = 8, pretend = 0, frame = 0
 3994              		@ frame_needed = 0, uses_anonymous_args = 0
 3995              		.loc 1 560 1 is_stmt 0 view .LVU1154
 3996 0000 2DE9F047 		push	{r4, r5, r6, r7, r8, r9, r10, lr}
 3997              	.LCFI19:
 3998              		.cfi_def_cfa_offset 32
 3999              		.cfi_offset 4, -32
 4000              		.cfi_offset 5, -28
 4001              		.cfi_offset 6, -24
 4002              		.cfi_offset 7, -20
 4003              		.cfi_offset 8, -16
 4004              		.cfi_offset 9, -12
 4005              		.cfi_offset 10, -8
 4006              		.cfi_offset 14, -4
 4007 0004 8046     		mov	r8, r0
 4008 0006 8A46     		mov	r10, r1
 4009 0008 1746     		mov	r7, r2
 4010 000a 9946     		mov	r9, r3
 4011 000c 089C     		ldr	r4, [sp, #32]
 561:ili9341/ili9341.c ****     transmition_open();
 4012              		.loc 1 561 5 is_stmt 1 view .LVU1155
 4013              	.LBB544:
 4014              	.LBI544:
 179:ili9341/ili9341.c **** {
 4015              		.loc 1 179 20 view .LVU1156
 4016              	.LBB545:
 181:ili9341/ili9341.c **** }
 4017              		.loc 1 181 5 view .LVU1157
 4018 000e 9D4D     		ldr	r5, .L70
 4019 0010 0022     		movs	r2, #0
 4020              	.LVL343:
 181:ili9341/ili9341.c **** }
 4021              		.loc 1 181 5 is_stmt 0 view .LVU1158
 4022 0012 4FF40051 		mov	r1, #8192
 4023              	.LVL344:
 181:ili9341/ili9341.c **** }
 4024              		.loc 1 181 5 view .LVU1159
 4025 0016 2846     		mov	r0, r5
 4026              	.LVL345:
 181:ili9341/ili9341.c **** }
 4027              		.loc 1 181 5 view .LVU1160
 4028 0018 FFF7FEFF 		bl	HAL_GPIO_WritePin
 4029              	.LVL346:
 181:ili9341/ili9341.c **** }
 4030              		.loc 1 181 5 view .LVU1161
 4031              	.LBE545:
 4032              	.LBE544:
 562:ili9341/ili9341.c ****     send_cmd(LCD_COLUMN_ADDR);
 4033              		.loc 1 562 5 is_stmt 1 view .LVU1162
 4034              	.LBB546:
 4035              	.LBI546:
ARM GAS  /tmp/cc0CFvsY.s 			page 99


 157:ili9341/ili9341.c **** {
 4036              		.loc 1 157 20 view .LVU1163
 4037              	.LBB547:
 159:ili9341/ili9341.c ****     WR_ACTIVE();
 4038              		.loc 1 159 5 view .LVU1164
 4039 001c 0022     		movs	r2, #0
 4040 001e 4FF48041 		mov	r1, #16384
 4041 0022 2846     		mov	r0, r5
 4042 0024 FFF7FEFF 		bl	HAL_GPIO_WritePin
 4043              	.LVL347:
 160:ili9341/ili9341.c ****     GPIOA->ODR = (GPIOA->ODR & 0xFF00) | cmd;
 4044              		.loc 1 160 5 view .LVU1165
 4045 0028 0022     		movs	r2, #0
 4046 002a 4FF40041 		mov	r1, #32768
 4047 002e 2846     		mov	r0, r5
 4048 0030 FFF7FEFF 		bl	HAL_GPIO_WritePin
 4049              	.LVL348:
 161:ili9341/ili9341.c ****     WR_PAUSE();
 4050              		.loc 1 161 5 view .LVU1166
 161:ili9341/ili9341.c ****     WR_PAUSE();
 4051              		.loc 1 161 24 is_stmt 0 view .LVU1167
 4052 0034 944E     		ldr	r6, .L70+4
 4053 0036 F368     		ldr	r3, [r6, #12]
 161:ili9341/ili9341.c ****     WR_PAUSE();
 4054              		.loc 1 161 30 view .LVU1168
 4055 0038 03F47F43 		and	r3, r3, #65280
 161:ili9341/ili9341.c ****     WR_PAUSE();
 4056              		.loc 1 161 40 view .LVU1169
 4057 003c 43F02A03 		orr	r3, r3, #42
 161:ili9341/ili9341.c ****     WR_PAUSE();
 4058              		.loc 1 161 16 view .LVU1170
 4059 0040 F360     		str	r3, [r6, #12]
 4060              	.LVL349:
 162:ili9341/ili9341.c ****     WR_IDLE();
 4061              		.loc 1 162 15 is_stmt 1 view .LVU1171
 163:ili9341/ili9341.c ****     RS_DATA();
 4062              		.loc 1 163 5 view .LVU1172
 4063 0042 0122     		movs	r2, #1
 4064 0044 4FF40041 		mov	r1, #32768
 4065 0048 2846     		mov	r0, r5
 4066 004a FFF7FEFF 		bl	HAL_GPIO_WritePin
 4067              	.LVL350:
 164:ili9341/ili9341.c **** }
 4068              		.loc 1 164 5 view .LVU1173
 4069 004e 0122     		movs	r2, #1
 4070 0050 4FF48041 		mov	r1, #16384
 4071 0054 2846     		mov	r0, r5
 4072 0056 FFF7FEFF 		bl	HAL_GPIO_WritePin
 4073              	.LVL351:
 164:ili9341/ili9341.c **** }
 4074              		.loc 1 164 5 is_stmt 0 view .LVU1174
 4075              	.LBE547:
 4076              	.LBE546:
 563:ili9341/ili9341.c **** 
 564:ili9341/ili9341.c ****     send_data16(x);
 4077              		.loc 1 564 5 is_stmt 1 view .LVU1175
 4078              	.LBB548:
ARM GAS  /tmp/cc0CFvsY.s 			page 100


 4079              	.LBI548:
 212:ili9341/ili9341.c **** {
 4080              		.loc 1 212 20 view .LVU1176
 4081              	.LBB549:
 214:ili9341/ili9341.c ****     GPIOA->ODR = (GPIOA->ODR & 0xFF00) | (data >> 8);
 4082              		.loc 1 214 5 view .LVU1177
 4083 005a 0022     		movs	r2, #0
 4084 005c 4FF40041 		mov	r1, #32768
 4085 0060 2846     		mov	r0, r5
 4086 0062 FFF7FEFF 		bl	HAL_GPIO_WritePin
 4087              	.LVL352:
 215:ili9341/ili9341.c ****     WR_IDLE();
 4088              		.loc 1 215 5 view .LVU1178
 215:ili9341/ili9341.c ****     WR_IDLE();
 4089              		.loc 1 215 24 is_stmt 0 view .LVU1179
 4090 0066 F368     		ldr	r3, [r6, #12]
 215:ili9341/ili9341.c ****     WR_IDLE();
 4091              		.loc 1 215 30 view .LVU1180
 4092 0068 03F47F43 		and	r3, r3, #65280
 215:ili9341/ili9341.c ****     WR_IDLE();
 4093              		.loc 1 215 40 view .LVU1181
 4094 006c 43EA1823 		orr	r3, r3, r8, lsr #8
 215:ili9341/ili9341.c ****     WR_IDLE();
 4095              		.loc 1 215 16 view .LVU1182
 4096 0070 F360     		str	r3, [r6, #12]
 216:ili9341/ili9341.c **** 
 4097              		.loc 1 216 5 is_stmt 1 view .LVU1183
 4098 0072 0122     		movs	r2, #1
 4099 0074 4FF40041 		mov	r1, #32768
 4100 0078 2846     		mov	r0, r5
 4101 007a FFF7FEFF 		bl	HAL_GPIO_WritePin
 4102              	.LVL353:
 218:ili9341/ili9341.c ****     GPIOA->ODR = (GPIOA->ODR & 0xFF00) | (data & 0x00FF);
 4103              		.loc 1 218 5 view .LVU1184
 4104 007e 0022     		movs	r2, #0
 4105 0080 4FF40041 		mov	r1, #32768
 4106 0084 2846     		mov	r0, r5
 4107 0086 FFF7FEFF 		bl	HAL_GPIO_WritePin
 4108              	.LVL354:
 219:ili9341/ili9341.c ****     WR_IDLE();
 4109              		.loc 1 219 5 view .LVU1185
 219:ili9341/ili9341.c ****     WR_IDLE();
 4110              		.loc 1 219 24 is_stmt 0 view .LVU1186
 4111 008a F368     		ldr	r3, [r6, #12]
 219:ili9341/ili9341.c ****     WR_IDLE();
 4112              		.loc 1 219 30 view .LVU1187
 4113 008c 03F47F43 		and	r3, r3, #65280
 219:ili9341/ili9341.c ****     WR_IDLE();
 4114              		.loc 1 219 48 view .LVU1188
 4115 0090 5FFA88F2 		uxtb	r2, r8
 219:ili9341/ili9341.c ****     WR_IDLE();
 4116              		.loc 1 219 40 view .LVU1189
 4117 0094 1343     		orrs	r3, r3, r2
 219:ili9341/ili9341.c ****     WR_IDLE();
 4118              		.loc 1 219 16 view .LVU1190
 4119 0096 F360     		str	r3, [r6, #12]
 220:ili9341/ili9341.c **** }
ARM GAS  /tmp/cc0CFvsY.s 			page 101


 4120              		.loc 1 220 5 is_stmt 1 view .LVU1191
 4121 0098 0122     		movs	r2, #1
 4122 009a 4FF40041 		mov	r1, #32768
 4123 009e 2846     		mov	r0, r5
 4124 00a0 FFF7FEFF 		bl	HAL_GPIO_WritePin
 4125              	.LVL355:
 220:ili9341/ili9341.c **** }
 4126              		.loc 1 220 5 is_stmt 0 view .LVU1192
 4127              	.LBE549:
 4128              	.LBE548:
 565:ili9341/ili9341.c ****     send_data16(x + w-1);
 4129              		.loc 1 565 5 is_stmt 1 view .LVU1193
 4130              		.loc 1 565 19 is_stmt 0 view .LVU1194
 4131 00a4 D044     		add	r8, r8, r10
 4132 00a6 1FFA88F8 		uxth	r8, r8
 4133              		.loc 1 565 5 view .LVU1195
 4134 00aa 08F1FF38 		add	r8, r8, #-1
 4135 00ae 1FFA88F8 		uxth	r8, r8
 4136              	.LVL356:
 4137              	.LBB550:
 4138              	.LBI550:
 212:ili9341/ili9341.c **** {
 4139              		.loc 1 212 20 is_stmt 1 view .LVU1196
 4140              	.LBB551:
 214:ili9341/ili9341.c ****     GPIOA->ODR = (GPIOA->ODR & 0xFF00) | (data >> 8);
 4141              		.loc 1 214 5 view .LVU1197
 4142 00b2 0022     		movs	r2, #0
 4143 00b4 4FF40041 		mov	r1, #32768
 4144 00b8 2846     		mov	r0, r5
 4145 00ba FFF7FEFF 		bl	HAL_GPIO_WritePin
 4146              	.LVL357:
 215:ili9341/ili9341.c ****     WR_IDLE();
 4147              		.loc 1 215 5 view .LVU1198
 215:ili9341/ili9341.c ****     WR_IDLE();
 4148              		.loc 1 215 24 is_stmt 0 view .LVU1199
 4149 00be F368     		ldr	r3, [r6, #12]
 215:ili9341/ili9341.c ****     WR_IDLE();
 4150              		.loc 1 215 30 view .LVU1200
 4151 00c0 03F47F43 		and	r3, r3, #65280
 215:ili9341/ili9341.c ****     WR_IDLE();
 4152              		.loc 1 215 40 view .LVU1201
 4153 00c4 43EA1823 		orr	r3, r3, r8, lsr #8
 215:ili9341/ili9341.c ****     WR_IDLE();
 4154              		.loc 1 215 16 view .LVU1202
 4155 00c8 F360     		str	r3, [r6, #12]
 216:ili9341/ili9341.c **** 
 4156              		.loc 1 216 5 is_stmt 1 view .LVU1203
 4157 00ca 0122     		movs	r2, #1
 4158 00cc 4FF40041 		mov	r1, #32768
 4159 00d0 2846     		mov	r0, r5
 4160 00d2 FFF7FEFF 		bl	HAL_GPIO_WritePin
 4161              	.LVL358:
 218:ili9341/ili9341.c ****     GPIOA->ODR = (GPIOA->ODR & 0xFF00) | (data & 0x00FF);
 4162              		.loc 1 218 5 view .LVU1204
 4163 00d6 0022     		movs	r2, #0
 4164 00d8 4FF40041 		mov	r1, #32768
 4165 00dc 2846     		mov	r0, r5
ARM GAS  /tmp/cc0CFvsY.s 			page 102


 4166 00de FFF7FEFF 		bl	HAL_GPIO_WritePin
 4167              	.LVL359:
 219:ili9341/ili9341.c ****     WR_IDLE();
 4168              		.loc 1 219 5 view .LVU1205
 219:ili9341/ili9341.c ****     WR_IDLE();
 4169              		.loc 1 219 24 is_stmt 0 view .LVU1206
 4170 00e2 F368     		ldr	r3, [r6, #12]
 219:ili9341/ili9341.c ****     WR_IDLE();
 4171              		.loc 1 219 30 view .LVU1207
 4172 00e4 03F47F43 		and	r3, r3, #65280
 219:ili9341/ili9341.c ****     WR_IDLE();
 4173              		.loc 1 219 48 view .LVU1208
 4174 00e8 5FFA88F8 		uxtb	r8, r8
 4175              	.LVL360:
 219:ili9341/ili9341.c ****     WR_IDLE();
 4176              		.loc 1 219 40 view .LVU1209
 4177 00ec 43EA0803 		orr	r3, r3, r8
 219:ili9341/ili9341.c ****     WR_IDLE();
 4178              		.loc 1 219 16 view .LVU1210
 4179 00f0 F360     		str	r3, [r6, #12]
 220:ili9341/ili9341.c **** }
 4180              		.loc 1 220 5 is_stmt 1 view .LVU1211
 4181 00f2 0122     		movs	r2, #1
 4182 00f4 4FF40041 		mov	r1, #32768
 4183 00f8 2846     		mov	r0, r5
 4184 00fa FFF7FEFF 		bl	HAL_GPIO_WritePin
 4185              	.LVL361:
 220:ili9341/ili9341.c **** }
 4186              		.loc 1 220 5 is_stmt 0 view .LVU1212
 4187              	.LBE551:
 4188              	.LBE550:
 566:ili9341/ili9341.c **** 
 567:ili9341/ili9341.c ****     send_cmd(LCD_PAGE_ADDR);
 4189              		.loc 1 567 5 is_stmt 1 view .LVU1213
 4190              	.LBB552:
 4191              	.LBI552:
 157:ili9341/ili9341.c **** {
 4192              		.loc 1 157 20 view .LVU1214
 4193              	.LBB553:
 159:ili9341/ili9341.c ****     WR_ACTIVE();
 4194              		.loc 1 159 5 view .LVU1215
 4195 00fe 0022     		movs	r2, #0
 4196 0100 4FF48041 		mov	r1, #16384
 4197 0104 2846     		mov	r0, r5
 4198 0106 FFF7FEFF 		bl	HAL_GPIO_WritePin
 4199              	.LVL362:
 160:ili9341/ili9341.c ****     GPIOA->ODR = (GPIOA->ODR & 0xFF00) | cmd;
 4200              		.loc 1 160 5 view .LVU1216
 4201 010a 0022     		movs	r2, #0
 4202 010c 4FF40041 		mov	r1, #32768
 4203 0110 2846     		mov	r0, r5
 4204 0112 FFF7FEFF 		bl	HAL_GPIO_WritePin
 4205              	.LVL363:
 161:ili9341/ili9341.c ****     WR_PAUSE();
 4206              		.loc 1 161 5 view .LVU1217
 161:ili9341/ili9341.c ****     WR_PAUSE();
 4207              		.loc 1 161 24 is_stmt 0 view .LVU1218
ARM GAS  /tmp/cc0CFvsY.s 			page 103


 4208 0116 F368     		ldr	r3, [r6, #12]
 161:ili9341/ili9341.c ****     WR_PAUSE();
 4209              		.loc 1 161 30 view .LVU1219
 4210 0118 03F47F43 		and	r3, r3, #65280
 161:ili9341/ili9341.c ****     WR_PAUSE();
 4211              		.loc 1 161 40 view .LVU1220
 4212 011c 43F02B03 		orr	r3, r3, #43
 161:ili9341/ili9341.c ****     WR_PAUSE();
 4213              		.loc 1 161 16 view .LVU1221
 4214 0120 F360     		str	r3, [r6, #12]
 162:ili9341/ili9341.c ****     WR_IDLE();
 4215              		.loc 1 162 15 is_stmt 1 view .LVU1222
 163:ili9341/ili9341.c ****     RS_DATA();
 4216              		.loc 1 163 5 view .LVU1223
 4217 0122 0122     		movs	r2, #1
 4218 0124 4FF40041 		mov	r1, #32768
 4219 0128 2846     		mov	r0, r5
 4220 012a FFF7FEFF 		bl	HAL_GPIO_WritePin
 4221              	.LVL364:
 164:ili9341/ili9341.c **** }
 4222              		.loc 1 164 5 view .LVU1224
 4223 012e 0122     		movs	r2, #1
 4224 0130 4FF48041 		mov	r1, #16384
 4225 0134 2846     		mov	r0, r5
 4226 0136 FFF7FEFF 		bl	HAL_GPIO_WritePin
 4227              	.LVL365:
 164:ili9341/ili9341.c **** }
 4228              		.loc 1 164 5 is_stmt 0 view .LVU1225
 4229              	.LBE553:
 4230              	.LBE552:
 568:ili9341/ili9341.c ****     send_data16(y);
 4231              		.loc 1 568 5 is_stmt 1 view .LVU1226
 4232              	.LBB554:
 4233              	.LBI554:
 212:ili9341/ili9341.c **** {
 4234              		.loc 1 212 20 view .LVU1227
 4235              	.LBB555:
 214:ili9341/ili9341.c ****     GPIOA->ODR = (GPIOA->ODR & 0xFF00) | (data >> 8);
 4236              		.loc 1 214 5 view .LVU1228
 4237 013a 0022     		movs	r2, #0
 4238 013c 4FF40041 		mov	r1, #32768
 4239 0140 2846     		mov	r0, r5
 4240 0142 FFF7FEFF 		bl	HAL_GPIO_WritePin
 4241              	.LVL366:
 215:ili9341/ili9341.c ****     WR_IDLE();
 4242              		.loc 1 215 5 view .LVU1229
