ARM GAS  /tmp/cc4GLRty.s 			page 1


   1              		.cpu cortex-m3
   2              		.eabi_attribute 20, 1
   3              		.eabi_attribute 21, 1
   4              		.eabi_attribute 23, 3
   5              		.eabi_attribute 24, 1
   6              		.eabi_attribute 25, 1
   7              		.eabi_attribute 26, 1
   8              		.eabi_attribute 30, 1
   9              		.eabi_attribute 34, 1
  10              		.eabi_attribute 18, 4
  11              		.file	"mem.c"
  12              		.text
  13              	.Ltext0:
  14              		.cfi_sections	.debug_frame
  15              		.section	.text.mem_init,"ax",%progbits
  16              		.align	1
  17              		.global	mem_init
  18              		.arch armv7-m
  19              		.syntax unified
  20              		.thumb
  21              		.thumb_func
  22              		.fpu softvfp
  24              	mem_init:
  25              	.LFB4:
  26              		.file 1 "emulator/mem/mem.c"
   1:emulator/mem/mem.c **** #include <stdbool.h>
   2:emulator/mem/mem.c **** #include "mem.h"
   3:emulator/mem/mem.c **** #include "logger.h"
   4:emulator/mem/mem.c **** #ifdef SPECTRUM_ROM 
   5:emulator/mem/mem.c **** #include "rom.h"
   6:emulator/mem/mem.c **** #elif SPECTRUM_TEST_ROM
   7:emulator/mem/mem.c **** #include "zx_test_rom.h"
   8:emulator/mem/mem.c **** #else
   9:emulator/mem/mem.c **** #error rom file not selected
  10:emulator/mem/mem.c **** #endif
  11:emulator/mem/mem.c **** #include "screen.h"
  12:emulator/mem/mem.c **** #include "ili9341.h"
  13:emulator/mem/mem.c **** #include <string.h>
  14:emulator/mem/mem.c **** #include "input.h"
  15:emulator/mem/mem.c **** // #define MEM_DBG
  16:emulator/mem/mem.c **** 
  17:emulator/mem/mem.c **** #define MEM_PAGE_NUM_SIZE           (0x2000)
  18:emulator/mem/mem.c **** #define MEM_PAGE_NUM_5_SIZE         (0x500)
  19:emulator/mem/mem.c **** 
  20:emulator/mem/mem.c **** #define MEM_CACHE_SIZE              (MEM_PAGE_NUM_0_4_SIZE)
  21:emulator/mem/mem.c **** #define MEM_ADDR_TO_PAGE(_addr_)    ((0xFFFF - _addr_) / MEM_PAGE_NUM_SIZE)
  22:emulator/mem/mem.c **** 
  23:emulator/mem/mem.c **** typedef enum
  24:emulator/mem/mem.c **** {
  25:emulator/mem/mem.c ****     MEM_PAGE_NUM_0,
  26:emulator/mem/mem.c ****     MEM_PAGE_NUM_1,
  27:emulator/mem/mem.c ****     MEM_PAGE_NUM_2,
  28:emulator/mem/mem.c ****     MEM_PAGE_NUM_3,
  29:emulator/mem/mem.c ****     MEM_PAGE_NUM_4,
  30:emulator/mem/mem.c ****     // MEM_PAGE_NUM_5,
  31:emulator/mem/mem.c ****     MEM_PAGE_NUM
  32:emulator/mem/mem.c **** } mem_page_num_t;
ARM GAS  /tmp/cc4GLRty.s 			page 2


  33:emulator/mem/mem.c **** 
  34:emulator/mem/mem.c **** typedef enum
  35:emulator/mem/mem.c **** {
  36:emulator/mem/mem.c ****     MEM_PAGE_STATE_IDLE,
  37:emulator/mem/mem.c ****     MEM_PAGE_STATE_MODIFIED,
  38:emulator/mem/mem.c ****     MEM_PAGE_STATE_READED
  39:emulator/mem/mem.c **** } mem_page_state_t;
  40:emulator/mem/mem.c **** 
  41:emulator/mem/mem.c **** typedef struct
  42:emulator/mem/mem.c **** {
  43:emulator/mem/mem.c ****     const uint16_t   x, w, y, h;
  44:emulator/mem/mem.c ****     const uint16_t   size;
  45:emulator/mem/mem.c **** } mem_page_t;
  46:emulator/mem/mem.c **** 
  47:emulator/mem/mem.c **** typedef struct
  48:emulator/mem/mem.c **** {
  49:emulator/mem/mem.c ****     mem_page_num_t   num;
  50:emulator/mem/mem.c ****     mem_page_state_t state;
  51:emulator/mem/mem.c ****     uint8_t          cache[MEM_PAGE_NUM_SIZE];
  52:emulator/mem/mem.c **** } memory_t;
  53:emulator/mem/mem.c **** 
  54:emulator/mem/mem.c **** static memory_t memory = {.num = MEM_PAGE_NUM, .state = MEM_PAGE_STATE_IDLE};
  55:emulator/mem/mem.c **** static const mem_page_t pages[MEM_PAGE_NUM] = { [MEM_PAGE_NUM_0].x = 0,
  56:emulator/mem/mem.c ****                                                 [MEM_PAGE_NUM_0].w = 320,
  57:emulator/mem/mem.c ****                                                 [MEM_PAGE_NUM_0].y = 0,
  58:emulator/mem/mem.c ****                                                 [MEM_PAGE_NUM_0].h = 13,
  59:emulator/mem/mem.c ****                                                 [MEM_PAGE_NUM_0].size  = MEM_PAGE_NUM_SIZE,
  60:emulator/mem/mem.c ****                                                 
  61:emulator/mem/mem.c ****                                                 [MEM_PAGE_NUM_1].x = 0,
  62:emulator/mem/mem.c ****                                                 [MEM_PAGE_NUM_1].w = 320,
  63:emulator/mem/mem.c ****                                                 [MEM_PAGE_NUM_1].y = 13,
  64:emulator/mem/mem.c ****                                                 [MEM_PAGE_NUM_1].h = 13,
  65:emulator/mem/mem.c ****                                                 [MEM_PAGE_NUM_1].size  = MEM_PAGE_NUM_SIZE,
  66:emulator/mem/mem.c **** 
  67:emulator/mem/mem.c ****                                                 [MEM_PAGE_NUM_2].x = 0,
  68:emulator/mem/mem.c ****                                                 [MEM_PAGE_NUM_2].w = 320,
  69:emulator/mem/mem.c ****                                                 [MEM_PAGE_NUM_2].y = 26,
  70:emulator/mem/mem.c ****                                                 [MEM_PAGE_NUM_2].h = 13,
  71:emulator/mem/mem.c ****                                                 [MEM_PAGE_NUM_2].size  = MEM_PAGE_NUM_SIZE,
  72:emulator/mem/mem.c ****                                                 
  73:emulator/mem/mem.c ****                                                 [MEM_PAGE_NUM_3].x = 0,
  74:emulator/mem/mem.c ****                                                 [MEM_PAGE_NUM_3].w = 64,
  75:emulator/mem/mem.c ****                                                 [MEM_PAGE_NUM_3].y = 112,
  76:emulator/mem/mem.c ****                                                 [MEM_PAGE_NUM_3].h = 64,
  77:emulator/mem/mem.c ****                                                 [MEM_PAGE_NUM_3].size  = MEM_PAGE_NUM_SIZE,
  78:emulator/mem/mem.c ****                                                 
  79:emulator/mem/mem.c ****                                                 [MEM_PAGE_NUM_4].x = 0,
  80:emulator/mem/mem.c ****                                                 [MEM_PAGE_NUM_4].w = 64,
  81:emulator/mem/mem.c ****                                                 [MEM_PAGE_NUM_4].y = 176,
  82:emulator/mem/mem.c ****                                                 [MEM_PAGE_NUM_4].h = 64,
  83:emulator/mem/mem.c ****                                                 [MEM_PAGE_NUM_4].size  = MEM_PAGE_NUM_SIZE,};
  84:emulator/mem/mem.c ****                                                 
  85:emulator/mem/mem.c ****                                                 // [MEM_PAGE_NUM_5].x = 0,
  86:emulator/mem/mem.c ****                                                 // [MEM_PAGE_NUM_5].w = 320,
  87:emulator/mem/mem.c ****                                                 // [MEM_PAGE_NUM_5].y = 39,
  88:emulator/mem/mem.c ****                                                 // [MEM_PAGE_NUM_5].h = 2,
  89:emulator/mem/mem.c ****                                                 // [MEM_PAGE_NUM_5].size  = MEM_PAGE_NUM_5_SIZE};
ARM GAS  /tmp/cc4GLRty.s 			page 3


  90:emulator/mem/mem.c **** 
  91:emulator/mem/mem.c **** static inline uint8_t mem_ram_read8(uint16_t addr);
  92:emulator/mem/mem.c **** static inline void    mem_ram_write8(uint16_t addr, uint8_t data);
  93:emulator/mem/mem.c **** 
  94:emulator/mem/mem.c **** static void mem_test(void)
  95:emulator/mem/mem.c **** {
  96:emulator/mem/mem.c ****     logger("memmory test start\r\n");
  97:emulator/mem/mem.c ****     for (uint32_t addr = 0x5B00; addr < 0x10000; ++addr)
  98:emulator/mem/mem.c ****     {
  99:emulator/mem/mem.c ****         mem_ram_write8(addr, ((addr)^0x55)&0xff);
 100:emulator/mem/mem.c ****     }
 101:emulator/mem/mem.c **** 
 102:emulator/mem/mem.c ****     for (uint32_t addr = 0x5B00; addr < 0x10000; ++addr)
 103:emulator/mem/mem.c ****     {
 104:emulator/mem/mem.c ****         uint8_t btt = ((addr) ^ 0x55) & 0xFF;
 105:emulator/mem/mem.c ****         if (mem_ram_read8(addr) != btt)
 106:emulator/mem/mem.c ****         {
 107:emulator/mem/mem.c ****             logger("Memmory test error block %04X\r\n", addr);
 108:emulator/mem/mem.c ****             break;
 109:emulator/mem/mem.c ****         }
 110:emulator/mem/mem.c ****     }
 111:emulator/mem/mem.c ****     logger("memmory test has finished\r\n");
 112:emulator/mem/mem.c **** }
 113:emulator/mem/mem.c **** 
 114:emulator/mem/mem.c **** static inline void mem_flash(mem_page_num_t page)
 115:emulator/mem/mem.c **** {
 116:emulator/mem/mem.c ****     // logger("%s page %d\r\n", __func__, page);
 117:emulator/mem/mem.c ****     ili9341_mem_write_rect(pages[page].x, pages[page].w, pages[page].y, pages[page].h,
 118:emulator/mem/mem.c ****                            memory.cache + (MEM_PAGE_NUM_SIZE - pages[page].size),
 119:emulator/mem/mem.c ****                            pages[page].size);
 120:emulator/mem/mem.c **** }
 121:emulator/mem/mem.c **** 
 122:emulator/mem/mem.c **** static inline uint8_t mem_ram_read8(uint16_t addr)
 123:emulator/mem/mem.c **** {
 124:emulator/mem/mem.c ****     const mem_page_num_t page_num = MEM_ADDR_TO_PAGE(addr);
 125:emulator/mem/mem.c ****     addr &= 0x1FFF;
 126:emulator/mem/mem.c ****     
 127:emulator/mem/mem.c ****     if (memory.num != page_num)
 128:emulator/mem/mem.c ****     {
 129:emulator/mem/mem.c ****         // logger("%s memory.num %d != page_num %d in cache %d\r\n", __func__, memory.num, page_num
 130:emulator/mem/mem.c ****         if (memory.state == MEM_PAGE_STATE_MODIFIED)
 131:emulator/mem/mem.c ****         {
 132:emulator/mem/mem.c ****             
 133:emulator/mem/mem.c ****             mem_flash(memory.num);
 134:emulator/mem/mem.c ****         }
 135:emulator/mem/mem.c **** 
 136:emulator/mem/mem.c ****         ili9341_mem_read_rect(pages[page_num].x, pages[page_num].w, pages[page_num].y, pages[page_n
 137:emulator/mem/mem.c ****                               memory.cache +(MEM_PAGE_NUM_SIZE - pages[page_num].size),
 138:emulator/mem/mem.c ****                               pages[page_num].size);
 139:emulator/mem/mem.c **** 
 140:emulator/mem/mem.c ****         memory.num   = page_num;
 141:emulator/mem/mem.c ****         memory.state = MEM_PAGE_STATE_READED;
 142:emulator/mem/mem.c ****     }
 143:emulator/mem/mem.c **** 
 144:emulator/mem/mem.c ****     return memory.cache[addr];
 145:emulator/mem/mem.c **** }
 146:emulator/mem/mem.c **** 
ARM GAS  /tmp/cc4GLRty.s 			page 4


 147:emulator/mem/mem.c **** static inline void mem_ram_write8(uint16_t addr, uint8_t data)
 148:emulator/mem/mem.c **** {
 149:emulator/mem/mem.c ****     // if (addr < 0x6000)
 150:emulator/mem/mem.c ****         // logger("%s addr %04X\r\n", __func__, addr);
 151:emulator/mem/mem.c ****     const mem_page_num_t page_num = MEM_ADDR_TO_PAGE(addr);
 152:emulator/mem/mem.c ****     addr &= 0x1FFF;
 153:emulator/mem/mem.c **** 
 154:emulator/mem/mem.c ****     if (memory.num != page_num)
 155:emulator/mem/mem.c ****     {
 156:emulator/mem/mem.c ****         // logger("%s memory.num %d != page_num %d in cache %d\r\n", __func__, memory.num, page_num
 157:emulator/mem/mem.c ****         if (memory.state == MEM_PAGE_STATE_MODIFIED)
 158:emulator/mem/mem.c ****         {
 159:emulator/mem/mem.c ****             
 160:emulator/mem/mem.c ****             mem_flash(memory.num);
 161:emulator/mem/mem.c ****         }
 162:emulator/mem/mem.c **** 
 163:emulator/mem/mem.c ****         ili9341_mem_read_rect(pages[page_num].x, pages[page_num].w, pages[page_num].y, pages[page_n
 164:emulator/mem/mem.c ****                               memory.cache +(MEM_PAGE_NUM_SIZE - pages[page_num].size),
 165:emulator/mem/mem.c ****                               pages[page_num].size);
 166:emulator/mem/mem.c ****         memory.num   = page_num;
 167:emulator/mem/mem.c ****         memory.state = MEM_PAGE_STATE_READED;
 168:emulator/mem/mem.c ****     }
 169:emulator/mem/mem.c **** 
 170:emulator/mem/mem.c ****     memory.cache[addr] = data;
 171:emulator/mem/mem.c ****     memory.state       = MEM_PAGE_STATE_MODIFIED;
 172:emulator/mem/mem.c **** }
 173:emulator/mem/mem.c **** 
 174:emulator/mem/mem.c **** void mem_init(void)
 175:emulator/mem/mem.c **** {
  27              		.loc 1 175 1 view -0
  28              		.cfi_startproc
  29              		@ args = 0, pretend = 0, frame = 0
  30              		@ frame_needed = 0, uses_anonymous_args = 0
  31              		@ link register save eliminated.
 176:emulator/mem/mem.c ****     // mem_test();
 177:emulator/mem/mem.c **** }
  32              		.loc 1 177 1 view .LVU1
  33 0000 7047     		bx	lr
  34              		.cfi_endproc
  35              	.LFE4:
  37              		.section	.text.mem_readbyte,"ax",%progbits
  38              		.align	1
  39              		.global	mem_readbyte
  40              		.syntax unified
  41              		.thumb
  42              		.thumb_func
  43              		.fpu softvfp
  45              	mem_readbyte:
  46              	.LVL0:
  47              	.LFB5:
 178:emulator/mem/mem.c **** static uint8_t ram[0x500];
 179:emulator/mem/mem.c **** uint8_t  inline mem_readbyte(uint16_t addr)
 180:emulator/mem/mem.c **** {
  48              		.loc 1 180 1 view -0
  49              		.cfi_startproc
  50              		@ args = 0, pretend = 0, frame = 0
  51              		@ frame_needed = 0, uses_anonymous_args = 0
ARM GAS  /tmp/cc4GLRty.s 			page 5


  52              		.loc 1 180 1 is_stmt 0 view .LVU3
  53 0000 F0B5     		push	{r4, r5, r6, r7, lr}
  54              	.LCFI0:
  55              		.cfi_def_cfa_offset 20
  56              		.cfi_offset 4, -20
  57              		.cfi_offset 5, -16
  58              		.cfi_offset 6, -12
  59              		.cfi_offset 7, -8
  60              		.cfi_offset 14, -4
  61 0002 83B0     		sub	sp, sp, #12
  62              	.LCFI1:
  63              		.cfi_def_cfa_offset 32
 181:emulator/mem/mem.c **** #ifdef MEM_DBG
 182:emulator/mem/mem.c ****     logger("%s A: %04X D: %02X\r\n", __func__, addr, __48_rom[addr]);
 183:emulator/mem/mem.c **** #endif /* MEM_DBG */
 184:emulator/mem/mem.c **** 
 185:emulator/mem/mem.c ****     uint8_t ret_data;
  64              		.loc 1 185 5 is_stmt 1 view .LVU4
 186:emulator/mem/mem.c **** 
 187:emulator/mem/mem.c ****     if (addr >= 0x6000)
  65              		.loc 1 187 5 view .LVU5
  66              		.loc 1 187 8 is_stmt 0 view .LVU6
  67 0004 B0F5C04F 		cmp	r0, #24576
  68 0008 08D2     		bcs	.L11
 188:emulator/mem/mem.c ****     {
 189:emulator/mem/mem.c ****         ret_data = mem_ram_read8(addr);
 190:emulator/mem/mem.c ****     }
 191:emulator/mem/mem.c ****     else if (addr >= 0x5B00)
  69              		.loc 1 191 10 is_stmt 1 view .LVU7
  70              		.loc 1 191 13 is_stmt 0 view .LVU8
  71 000a B0F5B64F 		cmp	r0, #23296
  72 000e 52D3     		bcc	.L8
 192:emulator/mem/mem.c ****     {
 193:emulator/mem/mem.c ****         ret_data = ram[addr - 0x5B00];
  73              		.loc 1 193 9 is_stmt 1 view .LVU9
  74              		.loc 1 193 29 is_stmt 0 view .LVU10
  75 0010 A0F5B640 		sub	r0, r0, #23296
  76              	.LVL1:
  77              		.loc 1 193 18 view .LVU11
  78 0014 2C4B     		ldr	r3, .L15
  79 0016 185C     		ldrb	r0, [r3, r0]	@ zero_extendqisi2
  80              	.LVL2:
  81              	.L7:
 194:emulator/mem/mem.c ****     }
 195:emulator/mem/mem.c ****     else if (addr >= 0x4000)
 196:emulator/mem/mem.c **** 	{
 197:emulator/mem/mem.c ****         ret_data = screen_mem_read(addr);
 198:emulator/mem/mem.c **** 	}
 199:emulator/mem/mem.c ****     else
 200:emulator/mem/mem.c ****     {
 201:emulator/mem/mem.c ****         ret_data = __48_rom[addr];
 202:emulator/mem/mem.c ****     }
 203:emulator/mem/mem.c **** 
 204:emulator/mem/mem.c ****     return ret_data;
  82              		.loc 1 204 5 is_stmt 1 view .LVU12
 205:emulator/mem/mem.c **** }
  83              		.loc 1 205 1 is_stmt 0 view .LVU13
ARM GAS  /tmp/cc4GLRty.s 			page 6


  84 0018 03B0     		add	sp, sp, #12
  85              	.LCFI2:
  86              		.cfi_remember_state
  87              		.cfi_def_cfa_offset 20
  88              		@ sp needed
  89 001a F0BD     		pop	{r4, r5, r6, r7, pc}
  90              	.LVL3:
  91              	.L11:
  92              	.LCFI3:
  93              		.cfi_restore_state
 189:emulator/mem/mem.c ****     }
  94              		.loc 1 189 9 is_stmt 1 view .LVU14
  95              	.LBB6:
  96              	.LBI6:
 122:emulator/mem/mem.c **** {
  97              		.loc 1 122 23 view .LVU15
  98              	.LBB7:
 124:emulator/mem/mem.c ****     addr &= 0x1FFF;
  99              		.loc 1 124 5 view .LVU16
 124:emulator/mem/mem.c ****     addr &= 0x1FFF;
 100              		.loc 1 124 37 is_stmt 0 view .LVU17
 101 001c C0F57F43 		rsb	r3, r0, #65280
 102 0020 FF33     		adds	r3, r3, #255
 103 0022 002B     		cmp	r3, #0
 104 0024 2BDB     		blt	.L12
 105              	.L4:
 124:emulator/mem/mem.c ****     addr &= 0x1FFF;
 106              		.loc 1 124 37 view .LVU18
 107 0026 5E13     		asrs	r6, r3, #13
 124:emulator/mem/mem.c ****     addr &= 0x1FFF;
 108              		.loc 1 124 26 view .LVU19
 109 0028 C3F34735 		ubfx	r5, r3, #13, #8
 110              	.LVL4:
 125:emulator/mem/mem.c ****     
 111              		.loc 1 125 5 is_stmt 1 view .LVU20
 125:emulator/mem/mem.c ****     
 112              		.loc 1 125 10 is_stmt 0 view .LVU21
 113 002c C0F30C04 		ubfx	r4, r0, #0, #13
 114              	.LVL5:
 127:emulator/mem/mem.c ****     {
 115              		.loc 1 127 5 is_stmt 1 view .LVU22
 127:emulator/mem/mem.c ****     {
 116              		.loc 1 127 15 is_stmt 0 view .LVU23
 117 0030 264B     		ldr	r3, .L15+4
 118 0032 1B78     		ldrb	r3, [r3]	@ zero_extendqisi2
 127:emulator/mem/mem.c ****     {
 119              		.loc 1 127 8 view .LVU24
 120 0034 9D42     		cmp	r5, r3
 121 0036 1ED0     		beq	.L5
 130:emulator/mem/mem.c ****         {
 122              		.loc 1 130 9 is_stmt 1 view .LVU25
 130:emulator/mem/mem.c ****         {
 123              		.loc 1 130 19 is_stmt 0 view .LVU26
 124 0038 244A     		ldr	r2, .L15+4
 125 003a 5278     		ldrb	r2, [r2, #1]	@ zero_extendqisi2
 130:emulator/mem/mem.c ****         {
 126              		.loc 1 130 12 view .LVU27
ARM GAS  /tmp/cc4GLRty.s 			page 7


 127 003c 012A     		cmp	r2, #1
 128 003e 22D0     		beq	.L13
 129              	.LVL6:
 130              	.L6:
 136:emulator/mem/mem.c ****                               memory.cache +(MEM_PAGE_NUM_SIZE - pages[page_num].size),
 131              		.loc 1 136 9 is_stmt 1 view .LVU28
 132 0040 F3B2     		uxtb	r3, r6
 137:emulator/mem/mem.c ****                               pages[page_num].size);
 133              		.loc 1 137 81 is_stmt 0 view .LVU29
 134 0042 234F     		ldr	r7, .L15+8
 135 0044 03EB8301 		add	r1, r3, r3, lsl #2
 136 0048 07EB4101 		add	r1, r7, r1, lsl #1
 137 004c 0E89     		ldrh	r6, [r1, #8]
 137:emulator/mem/mem.c ****                               pages[page_num].size);
 138              		.loc 1 137 64 view .LVU30
 139 004e C6F50052 		rsb	r2, r6, #8192
 136:emulator/mem/mem.c ****                               memory.cache +(MEM_PAGE_NUM_SIZE - pages[page_num].size),
 140              		.loc 1 136 9 view .LVU31
 141 0052 03EB8300 		add	r0, r3, r3, lsl #2
 142 0056 0196     		str	r6, [sp, #4]
 143 0058 1E4E     		ldr	r6, .L15+12
 144 005a 3244     		add	r2, r2, r6
 145 005c 0092     		str	r2, [sp]
 146 005e CB88     		ldrh	r3, [r1, #6]
 147 0060 8A88     		ldrh	r2, [r1, #4]
 148 0062 4988     		ldrh	r1, [r1, #2]
 149 0064 37F81000 		ldrh	r0, [r7, r0, lsl #1]
 150 0068 FFF7FEFF 		bl	ili9341_mem_read_rect
 151              	.LVL7:
 140:emulator/mem/mem.c ****         memory.state = MEM_PAGE_STATE_READED;
 152              		.loc 1 140 9 is_stmt 1 view .LVU32
 140:emulator/mem/mem.c ****         memory.state = MEM_PAGE_STATE_READED;
 153              		.loc 1 140 22 is_stmt 0 view .LVU33
 154 006c 06F8025C 		strb	r5, [r6, #-2]
 141:emulator/mem/mem.c ****     }
 155              		.loc 1 141 9 is_stmt 1 view .LVU34
 141:emulator/mem/mem.c ****     }
 156              		.loc 1 141 22 is_stmt 0 view .LVU35
 157 0070 0223     		movs	r3, #2
 158 0072 06F8013C 		strb	r3, [r6, #-1]
 159              	.L5:
 144:emulator/mem/mem.c **** }
 160              		.loc 1 144 5 is_stmt 1 view .LVU36
 144:emulator/mem/mem.c **** }
 161              		.loc 1 144 24 is_stmt 0 view .LVU37
 162 0076 1548     		ldr	r0, .L15+4
 163 0078 2044     		add	r0, r0, r4
 164 007a 8078     		ldrb	r0, [r0, #2]	@ zero_extendqisi2
 165              	.LVL8:
 144:emulator/mem/mem.c **** }
 166              		.loc 1 144 24 view .LVU38
 167              	.LBE7:
 168              	.LBE6:
 169 007c CCE7     		b	.L7
 170              	.LVL9:
 171              	.L12:
 172              	.LBB11:
ARM GAS  /tmp/cc4GLRty.s 			page 8


 173              	.LBB10:
 124:emulator/mem/mem.c ****     addr &= 0x1FFF;
 174              		.loc 1 124 37 view .LVU39
 175 007e 03F5FF53 		add	r3, r3, #8160
 176 0082 1F33     		adds	r3, r3, #31
 177 0084 CFE7     		b	.L4
 178              	.LVL10:
 179              	.L13:
 133:emulator/mem/mem.c ****         }
 180              		.loc 1 133 13 is_stmt 1 view .LVU40
 181              	.LBB8:
 182              	.LBI8:
 114:emulator/mem/mem.c **** {
 183              		.loc 1 114 20 view .LVU41
 184              	.LBB9:
 117:emulator/mem/mem.c ****                            memory.cache + (MEM_PAGE_NUM_SIZE - pages[page].size),
 185              		.loc 1 117 5 view .LVU42
 118:emulator/mem/mem.c ****                            pages[page].size);
 186              		.loc 1 118 75 is_stmt 0 view .LVU43
 187 0086 124F     		ldr	r7, .L15+8
 188 0088 03EB8301 		add	r1, r3, r3, lsl #2
 189 008c 07EB4101 		add	r1, r7, r1, lsl #1
 190 0090 B1F808C0 		ldrh	ip, [r1, #8]
 118:emulator/mem/mem.c ****                            pages[page].size);
 191              		.loc 1 118 62 view .LVU44
 192 0094 CCF50052 		rsb	r2, ip, #8192
 117:emulator/mem/mem.c ****                            memory.cache + (MEM_PAGE_NUM_SIZE - pages[page].size),
 193              		.loc 1 117 5 view .LVU45
 194 0098 03EB8300 		add	r0, r3, r3, lsl #2
 195              	.LVL11:
 117:emulator/mem/mem.c ****                            memory.cache + (MEM_PAGE_NUM_SIZE - pages[page].size),
 196              		.loc 1 117 5 view .LVU46
 197 009c CDF804C0 		str	ip, [sp, #4]
 198 00a0 0C4B     		ldr	r3, .L15+12
 199              	.LVL12:
 117:emulator/mem/mem.c ****                            memory.cache + (MEM_PAGE_NUM_SIZE - pages[page].size),
 200              		.loc 1 117 5 view .LVU47
 201 00a2 1344     		add	r3, r3, r2
 202 00a4 0093     		str	r3, [sp]
 203 00a6 CB88     		ldrh	r3, [r1, #6]
 204 00a8 8A88     		ldrh	r2, [r1, #4]
 205 00aa 4988     		ldrh	r1, [r1, #2]
 206 00ac 37F81000 		ldrh	r0, [r7, r0, lsl #1]
 207 00b0 FFF7FEFF 		bl	ili9341_mem_write_rect
 208              	.LVL13:
 120:emulator/mem/mem.c **** 
 209              		.loc 1 120 1 view .LVU48
 210 00b4 C4E7     		b	.L6
 211              	.LVL14:
 212              	.L8:
 120:emulator/mem/mem.c **** 
 213              		.loc 1 120 1 view .LVU49
 214              	.LBE9:
 215              	.LBE8:
 216              	.LBE10:
 217              	.LBE11:
 195:emulator/mem/mem.c **** 	{
ARM GAS  /tmp/cc4GLRty.s 			page 9


 218              		.loc 1 195 10 is_stmt 1 view .LVU50
 195:emulator/mem/mem.c **** 	{
 219              		.loc 1 195 13 is_stmt 0 view .LVU51
 220 00b6 B0F5804F 		cmp	r0, #16384
 221 00ba 02D2     		bcs	.L14
 201:emulator/mem/mem.c ****     }
 222              		.loc 1 201 9 is_stmt 1 view .LVU52
 201:emulator/mem/mem.c ****     }
 223              		.loc 1 201 18 is_stmt 0 view .LVU53
 224 00bc 064B     		ldr	r3, .L15+16
 225 00be 185C     		ldrb	r0, [r3, r0]	@ zero_extendqisi2
 226              	.LVL15:
 201:emulator/mem/mem.c ****     }
 227              		.loc 1 201 18 view .LVU54
 228 00c0 AAE7     		b	.L7
 229              	.LVL16:
 230              	.L14:
 197:emulator/mem/mem.c **** 	}
 231              		.loc 1 197 9 is_stmt 1 view .LVU55
 197:emulator/mem/mem.c **** 	}
 232              		.loc 1 197 20 is_stmt 0 view .LVU56
 233 00c2 FFF7FEFF 		bl	screen_mem_read
 234              	.LVL17:
 197:emulator/mem/mem.c **** 	}
 235              		.loc 1 197 20 view .LVU57
 236 00c6 A7E7     		b	.L7
 237              	.L16:
 238              		.align	2
 239              	.L15:
 240 00c8 00000000 		.word	.LANCHOR1
 241 00cc 00000000 		.word	memory
 242 00d0 00000000 		.word	.LANCHOR0
 243 00d4 02000000 		.word	memory+2
 244 00d8 00000000 		.word	__48_rom
 245              		.cfi_endproc
 246              	.LFE5:
 248              		.section	.rodata.mem_writebyte.str1.4,"aMS",%progbits,1
 249              		.align	2
 250              	.LC0:
 251 0000 62204552 		.ascii	"b ERROR write rom addr %04X\015\012\000"
 251      524F5220 
 251      77726974 
 251      6520726F 
 251      6D206164 
 252              		.section	.text.mem_writebyte,"ax",%progbits
 253              		.align	1
 254              		.global	mem_writebyte
 255              		.syntax unified
 256              		.thumb
 257              		.thumb_func
 258              		.fpu softvfp
 260              	mem_writebyte:
 261              	.LVL18:
 262              	.LFB6:
 206:emulator/mem/mem.c **** 
 207:emulator/mem/mem.c **** void mem_writebyte(uint16_t addr, uint8_t b)
 208:emulator/mem/mem.c **** {
ARM GAS  /tmp/cc4GLRty.s 			page 10


 263              		.loc 1 208 1 is_stmt 1 view -0
 264              		.cfi_startproc
 265              		@ args = 0, pretend = 0, frame = 0
 266              		@ frame_needed = 0, uses_anonymous_args = 0
 267              		.loc 1 208 1 is_stmt 0 view .LVU59
 268 0000 F0B5     		push	{r4, r5, r6, r7, lr}
 269              	.LCFI4:
 270              		.cfi_def_cfa_offset 20
 271              		.cfi_offset 4, -20
 272              		.cfi_offset 5, -16
 273              		.cfi_offset 6, -12
 274              		.cfi_offset 7, -8
 275              		.cfi_offset 14, -4
 276 0002 83B0     		sub	sp, sp, #12
 277              	.LCFI5:
 278              		.cfi_def_cfa_offset 32
 279 0004 0D46     		mov	r5, r1
 209:emulator/mem/mem.c **** #ifdef MEM_DBG
 210:emulator/mem/mem.c ****     logger("%s A: %04X D: %02X\r\n", __func__, addr, b);
 211:emulator/mem/mem.c **** #endif /* MEM_DBG */
 212:emulator/mem/mem.c **** 
 213:emulator/mem/mem.c ****     if (addr >= 0x6000)
 280              		.loc 1 213 5 is_stmt 1 view .LVU60
 281              		.loc 1 213 8 is_stmt 0 view .LVU61
 282 0006 B0F5C04F 		cmp	r0, #24576
 283 000a 08D2     		bcs	.L26
 214:emulator/mem/mem.c ****     {
 215:emulator/mem/mem.c ****         mem_ram_write8(addr, b);
 216:emulator/mem/mem.c ****     }
 217:emulator/mem/mem.c ****     else if (addr >= 0x5B00)
 284              		.loc 1 217 10 is_stmt 1 view .LVU62
 285              		.loc 1 217 13 is_stmt 0 view .LVU63
 286 000c B0F5B64F 		cmp	r0, #23296
 287 0010 53D3     		bcc	.L23
 218:emulator/mem/mem.c ****     {
 219:emulator/mem/mem.c ****         ram[addr - 0x5B00] = b;
 288              		.loc 1 219 9 is_stmt 1 view .LVU64
 289              		.loc 1 219 18 is_stmt 0 view .LVU65
 290 0012 A0F5B640 		sub	r0, r0, #23296
 291              	.LVL19:
 292              		.loc 1 219 28 view .LVU66
 293 0016 2E4B     		ldr	r3, .L29
 294 0018 1954     		strb	r1, [r3, r0]
 295              	.LVL20:
 296              	.L17:
 220:emulator/mem/mem.c ****     }
 221:emulator/mem/mem.c ****     else if (addr >= 0x4000)
 222:emulator/mem/mem.c **** 	{
 223:emulator/mem/mem.c ****         screen_mem_write(addr, b);
 224:emulator/mem/mem.c **** 	}
 225:emulator/mem/mem.c ****     else
 226:emulator/mem/mem.c ****     {
 227:emulator/mem/mem.c ****         logger("b ERROR write rom addr %04X\r\n", addr);
 228:emulator/mem/mem.c ****     }
 229:emulator/mem/mem.c **** }
 297              		.loc 1 229 1 view .LVU67
 298 001a 03B0     		add	sp, sp, #12
ARM GAS  /tmp/cc4GLRty.s 			page 11


 299              	.LCFI6:
 300              		.cfi_remember_state
 301              		.cfi_def_cfa_offset 20
 302              		@ sp needed
 303 001c F0BD     		pop	{r4, r5, r6, r7, pc}
 304              	.LVL21:
 305              	.L26:
 306              	.LCFI7:
 307              		.cfi_restore_state
 215:emulator/mem/mem.c ****     }
 308              		.loc 1 215 9 is_stmt 1 view .LVU68
 309              	.LBB16:
 310              	.LBI16:
 147:emulator/mem/mem.c **** {
 311              		.loc 1 147 20 view .LVU69
 312              	.LBB17:
 151:emulator/mem/mem.c ****     addr &= 0x1FFF;
 313              		.loc 1 151 5 view .LVU70
 151:emulator/mem/mem.c ****     addr &= 0x1FFF;
 314              		.loc 1 151 37 is_stmt 0 view .LVU71
 315 001e C0F57F43 		rsb	r3, r0, #65280
 316 0022 FF33     		adds	r3, r3, #255
 317 0024 002B     		cmp	r3, #0
 318 0026 2BDB     		blt	.L27
 319              	.L19:
 151:emulator/mem/mem.c ****     addr &= 0x1FFF;
 320              		.loc 1 151 37 view .LVU72
 321 0028 5F13     		asrs	r7, r3, #13
 151:emulator/mem/mem.c ****     addr &= 0x1FFF;
 322              		.loc 1 151 26 view .LVU73
 323 002a C3F34736 		ubfx	r6, r3, #13, #8
 324              	.LVL22:
 152:emulator/mem/mem.c **** 
 325              		.loc 1 152 5 is_stmt 1 view .LVU74
 152:emulator/mem/mem.c **** 
 326              		.loc 1 152 10 is_stmt 0 view .LVU75
 327 002e C0F30C04 		ubfx	r4, r0, #0, #13
 328              	.LVL23:
 154:emulator/mem/mem.c ****     {
 329              		.loc 1 154 5 is_stmt 1 view .LVU76
 154:emulator/mem/mem.c ****     {
 330              		.loc 1 154 15 is_stmt 0 view .LVU77
 331 0032 284B     		ldr	r3, .L29+4
 332 0034 1B78     		ldrb	r3, [r3]	@ zero_extendqisi2
 154:emulator/mem/mem.c ****     {
 333              		.loc 1 154 8 view .LVU78
 334 0036 9E42     		cmp	r6, r3
 335 0038 1CD0     		beq	.L20
 157:emulator/mem/mem.c ****         {
 336              		.loc 1 157 9 is_stmt 1 view .LVU79
 157:emulator/mem/mem.c ****         {
 337              		.loc 1 157 19 is_stmt 0 view .LVU80
 338 003a 264A     		ldr	r2, .L29+4
 339 003c 5278     		ldrb	r2, [r2, #1]	@ zero_extendqisi2
 157:emulator/mem/mem.c ****         {
 340              		.loc 1 157 12 view .LVU81
 341 003e 012A     		cmp	r2, #1
ARM GAS  /tmp/cc4GLRty.s 			page 12


 342 0040 22D0     		beq	.L28
 343              	.LVL24:
 344              	.L21:
 163:emulator/mem/mem.c ****                               memory.cache +(MEM_PAGE_NUM_SIZE - pages[page_num].size),
 345              		.loc 1 163 9 is_stmt 1 view .LVU82
 346 0042 FBB2     		uxtb	r3, r7
 164:emulator/mem/mem.c ****                               pages[page_num].size);
 347              		.loc 1 164 81 is_stmt 0 view .LVU83
 348 0044 DFF898C0 		ldr	ip, .L29+16
 349 0048 03EB8301 		add	r1, r3, r3, lsl #2
 350 004c 0CEB4101 		add	r1, ip, r1, lsl #1
 351 0050 0F89     		ldrh	r7, [r1, #8]
 164:emulator/mem/mem.c ****                               pages[page_num].size);
 352              		.loc 1 164 64 view .LVU84
 353 0052 C7F50052 		rsb	r2, r7, #8192
 163:emulator/mem/mem.c ****                               memory.cache +(MEM_PAGE_NUM_SIZE - pages[page_num].size),
 354              		.loc 1 163 9 view .LVU85
 355 0056 03EB8300 		add	r0, r3, r3, lsl #2
 356 005a 0197     		str	r7, [sp, #4]
 357 005c 1E4F     		ldr	r7, .L29+8
 358 005e 3A44     		add	r2, r2, r7
 359 0060 0092     		str	r2, [sp]
 360 0062 CB88     		ldrh	r3, [r1, #6]
 361 0064 8A88     		ldrh	r2, [r1, #4]
 362 0066 4988     		ldrh	r1, [r1, #2]
 363 0068 3CF81000 		ldrh	r0, [ip, r0, lsl #1]
 364 006c FFF7FEFF 		bl	ili9341_mem_read_rect
 365              	.LVL25:
 166:emulator/mem/mem.c ****         memory.state = MEM_PAGE_STATE_READED;
 366              		.loc 1 166 9 is_stmt 1 view .LVU86
 166:emulator/mem/mem.c ****         memory.state = MEM_PAGE_STATE_READED;
 367              		.loc 1 166 22 is_stmt 0 view .LVU87
 368 0070 07F8026C 		strb	r6, [r7, #-2]
 167:emulator/mem/mem.c ****     }
 369              		.loc 1 167 9 is_stmt 1 view .LVU88
 370              	.L20:
 170:emulator/mem/mem.c ****     memory.state       = MEM_PAGE_STATE_MODIFIED;
 371              		.loc 1 170 5 view .LVU89
 170:emulator/mem/mem.c ****     memory.state       = MEM_PAGE_STATE_MODIFIED;
 372              		.loc 1 170 24 is_stmt 0 view .LVU90
 373 0074 174B     		ldr	r3, .L29+4
 374 0076 1819     		adds	r0, r3, r4
 375 0078 8570     		strb	r5, [r0, #2]
 171:emulator/mem/mem.c **** }
 376              		.loc 1 171 5 is_stmt 1 view .LVU91
 171:emulator/mem/mem.c **** }
 377              		.loc 1 171 24 is_stmt 0 view .LVU92
 378 007a 0122     		movs	r2, #1
 379 007c 5A70     		strb	r2, [r3, #1]
 172:emulator/mem/mem.c **** 
 380              		.loc 1 172 1 view .LVU93
 381 007e CCE7     		b	.L17
 382              	.LVL26:
 383              	.L27:
 151:emulator/mem/mem.c ****     addr &= 0x1FFF;
 384              		.loc 1 151 37 view .LVU94
 385 0080 03F5FF53 		add	r3, r3, #8160
ARM GAS  /tmp/cc4GLRty.s 			page 13


 386 0084 1F33     		adds	r3, r3, #31
 387 0086 CFE7     		b	.L19
 388              	.LVL27:
 389              	.L28:
 160:emulator/mem/mem.c ****         }
 390              		.loc 1 160 13 is_stmt 1 view .LVU95
 391              	.LBB18:
 392              	.LBI18:
 114:emulator/mem/mem.c **** {
 393              		.loc 1 114 20 view .LVU96
 394              	.LBB19:
 117:emulator/mem/mem.c ****                            memory.cache + (MEM_PAGE_NUM_SIZE - pages[page].size),
 395              		.loc 1 117 5 view .LVU97
 118:emulator/mem/mem.c ****                            pages[page].size);
 396              		.loc 1 118 75 is_stmt 0 view .LVU98
 397 0088 DFF854C0 		ldr	ip, .L29+16
 398 008c 03EB8301 		add	r1, r3, r3, lsl #2
 399              	.LVL28:
 118:emulator/mem/mem.c ****                            pages[page].size);
 400              		.loc 1 118 75 view .LVU99
 401 0090 0CEB4101 		add	r1, ip, r1, lsl #1
 402 0094 B1F808E0 		ldrh	lr, [r1, #8]
 118:emulator/mem/mem.c ****                            pages[page].size);
 403              		.loc 1 118 62 view .LVU100
 404 0098 CEF50052 		rsb	r2, lr, #8192
 117:emulator/mem/mem.c ****                            memory.cache + (MEM_PAGE_NUM_SIZE - pages[page].size),
 405              		.loc 1 117 5 view .LVU101
 406 009c 03EB8300 		add	r0, r3, r3, lsl #2
 407              	.LVL29:
 117:emulator/mem/mem.c ****                            memory.cache + (MEM_PAGE_NUM_SIZE - pages[page].size),
 408              		.loc 1 117 5 view .LVU102
 409 00a0 CDF804E0 		str	lr, [sp, #4]
 410 00a4 0C4B     		ldr	r3, .L29+8
 411              	.LVL30:
 117:emulator/mem/mem.c ****                            memory.cache + (MEM_PAGE_NUM_SIZE - pages[page].size),
 412              		.loc 1 117 5 view .LVU103
 413 00a6 1344     		add	r3, r3, r2
 414 00a8 0093     		str	r3, [sp]
 415 00aa CB88     		ldrh	r3, [r1, #6]
 416 00ac 8A88     		ldrh	r2, [r1, #4]
 417 00ae 4988     		ldrh	r1, [r1, #2]
 418 00b0 3CF81000 		ldrh	r0, [ip, r0, lsl #1]
 419 00b4 FFF7FEFF 		bl	ili9341_mem_write_rect
 420              	.LVL31:
 120:emulator/mem/mem.c **** 
 421              		.loc 1 120 1 view .LVU104
 422 00b8 C3E7     		b	.L21
 423              	.LVL32:
 424              	.L23:
 120:emulator/mem/mem.c **** 
 425              		.loc 1 120 1 view .LVU105
 426              	.LBE19:
 427              	.LBE18:
 428              	.LBE17:
 429              	.LBE16:
 221:emulator/mem/mem.c **** 	{
 430              		.loc 1 221 10 is_stmt 1 view .LVU106
ARM GAS  /tmp/cc4GLRty.s 			page 14


 221:emulator/mem/mem.c **** 	{
 431              		.loc 1 221 13 is_stmt 0 view .LVU107
 432 00ba B0F5804F 		cmp	r0, #16384
 433 00be 02D3     		bcc	.L24
 223:emulator/mem/mem.c **** 	}
 434              		.loc 1 223 9 is_stmt 1 view .LVU108
 435 00c0 FFF7FEFF 		bl	screen_mem_write
 436              	.LVL33:
 223:emulator/mem/mem.c **** 	}
 437              		.loc 1 223 9 is_stmt 0 view .LVU109
 438 00c4 A9E7     		b	.L17
 439              	.LVL34:
 440              	.L24:
 227:emulator/mem/mem.c ****     }
 441              		.loc 1 227 9 is_stmt 1 view .LVU110
 442 00c6 0146     		mov	r1, r0
 443              	.LVL35:
 227:emulator/mem/mem.c ****     }
 444              		.loc 1 227 9 is_stmt 0 view .LVU111
 445 00c8 0448     		ldr	r0, .L29+12
 446              	.LVL36:
 227:emulator/mem/mem.c ****     }
 447              		.loc 1 227 9 view .LVU112
 448 00ca FFF7FEFF 		bl	logger
 449              	.LVL37:
 450              		.loc 1 229 1 view .LVU113
 451 00ce A4E7     		b	.L17
 452              	.L30:
 453              		.align	2
 454              	.L29:
 455 00d0 00000000 		.word	.LANCHOR1
 456 00d4 00000000 		.word	memory
 457 00d8 02000000 		.word	memory+2
 458 00dc 00000000 		.word	.LC0
 459 00e0 00000000 		.word	.LANCHOR0
 460              		.cfi_endproc
 461              	.LFE6:
 463              		.section	.text.mem_readword,"ax",%progbits
 464              		.align	1
 465              		.global	mem_readword
 466              		.syntax unified
 467              		.thumb
 468              		.thumb_func
 469              		.fpu softvfp
 471              	mem_readword:
 472              	.LVL38:
 473              	.LFB7:
 230:emulator/mem/mem.c **** 
 231:emulator/mem/mem.c **** uint16_t  inline mem_readword(uint16_t addr)
 232:emulator/mem/mem.c **** {
 474              		.loc 1 232 1 is_stmt 1 view -0
 475              		.cfi_startproc
 476              		@ args = 0, pretend = 0, frame = 0
 477              		@ frame_needed = 0, uses_anonymous_args = 0
 478              		.loc 1 232 1 is_stmt 0 view .LVU115
 479 0000 F0B5     		push	{r4, r5, r6, r7, lr}
 480              	.LCFI8:
ARM GAS  /tmp/cc4GLRty.s 			page 15


 481              		.cfi_def_cfa_offset 20
 482              		.cfi_offset 4, -20
 483              		.cfi_offset 5, -16
 484              		.cfi_offset 6, -12
 485              		.cfi_offset 7, -8
 486              		.cfi_offset 14, -4
 487 0002 83B0     		sub	sp, sp, #12
 488              	.LCFI9:
 489              		.cfi_def_cfa_offset 32
 490 0004 0446     		mov	r4, r0
 233:emulator/mem/mem.c ****     uint16_t ret_data;
 491              		.loc 1 233 5 is_stmt 1 view .LVU116
 234:emulator/mem/mem.c **** 
 235:emulator/mem/mem.c ****     ret_data = ((mem_readbyte(addr + 1) << 8) | mem_readbyte(addr));
 492              		.loc 1 235 5 view .LVU117
 493              		.loc 1 235 18 is_stmt 0 view .LVU118
 494 0006 0130     		adds	r0, r0, #1
 495              	.LVL39:
 496              		.loc 1 235 18 view .LVU119
 497 0008 80B2     		uxth	r0, r0
 498              	.LVL40:
 499              	.LBB32:
 500              	.LBI32:
 179:emulator/mem/mem.c **** {
 501              		.loc 1 179 17 is_stmt 1 view .LVU120
 502              	.LBB33:
 185:emulator/mem/mem.c **** 
 503              		.loc 1 185 5 view .LVU121
 187:emulator/mem/mem.c ****     {
 504              		.loc 1 187 5 view .LVU122
 187:emulator/mem/mem.c ****     {
 505              		.loc 1 187 8 is_stmt 0 view .LVU123
 506 000a B0F5C04F 		cmp	r0, #24576
 507 000e 18D2     		bcs	.L47
 191:emulator/mem/mem.c ****     {
 508              		.loc 1 191 10 is_stmt 1 view .LVU124
 191:emulator/mem/mem.c ****     {
 509              		.loc 1 191 13 is_stmt 0 view .LVU125
 510 0010 B0F5B64F 		cmp	r0, #23296
 511 0014 64D3     		bcc	.L37
 193:emulator/mem/mem.c ****     }
 512              		.loc 1 193 9 is_stmt 1 view .LVU126
 193:emulator/mem/mem.c ****     }
 513              		.loc 1 193 29 is_stmt 0 view .LVU127
 514 0016 A0F5B640 		sub	r0, r0, #23296
 515              	.LVL41:
 193:emulator/mem/mem.c ****     }
 516              		.loc 1 193 18 view .LVU128
 517 001a 634B     		ldr	r3, .L55
 518 001c 1D5C     		ldrb	r5, [r3, r0]	@ zero_extendqisi2
 519              	.LVL42:
 520              	.L36:
 204:emulator/mem/mem.c **** }
 521              		.loc 1 204 5 is_stmt 1 view .LVU129
 204:emulator/mem/mem.c **** }
 522              		.loc 1 204 5 is_stmt 0 view .LVU130
 523              	.LBE33:
ARM GAS  /tmp/cc4GLRty.s 			page 16


 524              	.LBE32:
 525              		.loc 1 235 41 view .LVU131
 526 001e 2D02     		lsls	r5, r5, #8
 527              		.loc 1 235 47 view .LVU132
 528 0020 2DB2     		sxth	r5, r5
 529              	.LVL43:
 530              	.LBB41:
 531              	.LBI41:
 179:emulator/mem/mem.c **** {
 532              		.loc 1 179 17 is_stmt 1 view .LVU133
 533              	.LBB42:
 185:emulator/mem/mem.c **** 
 534              		.loc 1 185 5 view .LVU134
 187:emulator/mem/mem.c ****     {
 535              		.loc 1 187 5 view .LVU135
 187:emulator/mem/mem.c ****     {
 536              		.loc 1 187 8 is_stmt 0 view .LVU136
 537 0022 B4F5C04F 		cmp	r4, #24576
 538 0026 65D2     		bcs	.L48
 191:emulator/mem/mem.c ****     {
 539              		.loc 1 191 10 is_stmt 1 view .LVU137
 191:emulator/mem/mem.c ****     {
 540              		.loc 1 191 13 is_stmt 0 view .LVU138
 541 0028 B4F5B64F 		cmp	r4, #23296
 542 002c C0F0B180 		bcc	.L44
 193:emulator/mem/mem.c ****     }
 543              		.loc 1 193 9 is_stmt 1 view .LVU139
 193:emulator/mem/mem.c ****     }
 544              		.loc 1 193 29 is_stmt 0 view .LVU140
 545 0030 A4F5B644 		sub	r4, r4, #23296
 546              	.LVL44:
 193:emulator/mem/mem.c ****     }
 547              		.loc 1 193 18 view .LVU141
 548 0034 5C4B     		ldr	r3, .L55
 549 0036 185D     		ldrb	r0, [r3, r4]	@ zero_extendqisi2
 550              	.LVL45:
 551              	.L43:
 204:emulator/mem/mem.c **** }
 552              		.loc 1 204 5 is_stmt 1 view .LVU142
 204:emulator/mem/mem.c **** }
 553              		.loc 1 204 5 is_stmt 0 view .LVU143
 554              	.LBE42:
 555              	.LBE41:
 556              		.loc 1 235 49 view .LVU144
 557 0038 00B2     		sxth	r0, r0
 558              		.loc 1 235 47 view .LVU145
 559 003a 2843     		orrs	r0, r0, r5
 560              	.LVL46:
 236:emulator/mem/mem.c **** #ifdef MEM_DBG
 237:emulator/mem/mem.c ****     logger("%s A: %04X D: %04X\r\n", __func__, addr, ret_data);
 238:emulator/mem/mem.c **** #endif /* MEM_DBG */
 239:emulator/mem/mem.c ****     
 240:emulator/mem/mem.c ****     return ret_data;
 561              		.loc 1 240 5 is_stmt 1 view .LVU146
 241:emulator/mem/mem.c **** }
 562              		.loc 1 241 1 is_stmt 0 view .LVU147
 563 003c 80B2     		uxth	r0, r0
ARM GAS  /tmp/cc4GLRty.s 			page 17


 564              		.loc 1 241 1 view .LVU148
 565 003e 03B0     		add	sp, sp, #12
 566              	.LCFI10:
 567              		.cfi_remember_state
 568              		.cfi_def_cfa_offset 20
 569              		@ sp needed
 570 0040 F0BD     		pop	{r4, r5, r6, r7, pc}
 571              	.LVL47:
 572              	.L47:
 573              	.LCFI11:
 574              		.cfi_restore_state
 575              	.LBB50:
 576              	.LBB40:
 189:emulator/mem/mem.c ****     }
 577              		.loc 1 189 9 is_stmt 1 view .LVU149
 578              	.LBB34:
 579              	.LBI34:
 122:emulator/mem/mem.c **** {
 580              		.loc 1 122 23 view .LVU150
 581              	.LBB35:
 124:emulator/mem/mem.c ****     addr &= 0x1FFF;
 582              		.loc 1 124 5 view .LVU151
 124:emulator/mem/mem.c ****     addr &= 0x1FFF;
 583              		.loc 1 124 37 is_stmt 0 view .LVU152
 584 0042 C0F57F43 		rsb	r3, r0, #65280
 585 0046 FF33     		adds	r3, r3, #255
 586 0048 002B     		cmp	r3, #0
 587 004a 2CDB     		blt	.L49
 588              	.L33:
 124:emulator/mem/mem.c ****     addr &= 0x1FFF;
 589              		.loc 1 124 37 view .LVU153
 590 004c 5F13     		asrs	r7, r3, #13
 124:emulator/mem/mem.c ****     addr &= 0x1FFF;
 591              		.loc 1 124 26 view .LVU154
 592 004e C3F34736 		ubfx	r6, r3, #13, #8
 593              	.LVL48:
 125:emulator/mem/mem.c ****     
 594              		.loc 1 125 5 is_stmt 1 view .LVU155
 125:emulator/mem/mem.c ****     
 595              		.loc 1 125 10 is_stmt 0 view .LVU156
 596 0052 C0F30C05 		ubfx	r5, r0, #0, #13
 597              	.LVL49:
 127:emulator/mem/mem.c ****     {
 598              		.loc 1 127 5 is_stmt 1 view .LVU157
 127:emulator/mem/mem.c ****     {
 599              		.loc 1 127 15 is_stmt 0 view .LVU158
 600 0056 554B     		ldr	r3, .L55+4
 601 0058 1B78     		ldrb	r3, [r3]	@ zero_extendqisi2
 127:emulator/mem/mem.c ****     {
 602              		.loc 1 127 8 view .LVU159
 603 005a 9E42     		cmp	r6, r3
 604 005c 1FD0     		beq	.L34
 130:emulator/mem/mem.c ****         {
 605              		.loc 1 130 9 is_stmt 1 view .LVU160
 130:emulator/mem/mem.c ****         {
 606              		.loc 1 130 19 is_stmt 0 view .LVU161
 607 005e 534A     		ldr	r2, .L55+4
ARM GAS  /tmp/cc4GLRty.s 			page 18


 608 0060 5278     		ldrb	r2, [r2, #1]	@ zero_extendqisi2
 130:emulator/mem/mem.c ****         {
 609              		.loc 1 130 12 view .LVU162
 610 0062 012A     		cmp	r2, #1
 611 0064 23D0     		beq	.L50
 612              	.LVL50:
 613              	.L35:
 136:emulator/mem/mem.c ****                               memory.cache +(MEM_PAGE_NUM_SIZE - pages[page_num].size),
 614              		.loc 1 136 9 is_stmt 1 view .LVU163
 615 0066 FBB2     		uxtb	r3, r7
 137:emulator/mem/mem.c ****                               pages[page_num].size);
 616              		.loc 1 137 81 is_stmt 0 view .LVU164
 617 0068 DFF84CC1 		ldr	ip, .L55+16
 618 006c 03EB8301 		add	r1, r3, r3, lsl #2
 619 0070 0CEB4101 		add	r1, ip, r1, lsl #1
 620 0074 0F89     		ldrh	r7, [r1, #8]
 137:emulator/mem/mem.c ****                               pages[page_num].size);
 621              		.loc 1 137 64 view .LVU165
 622 0076 C7F50052 		rsb	r2, r7, #8192
 136:emulator/mem/mem.c ****                               memory.cache +(MEM_PAGE_NUM_SIZE - pages[page_num].size),
 623              		.loc 1 136 9 view .LVU166
 624 007a 03EB8300 		add	r0, r3, r3, lsl #2
 625 007e 0197     		str	r7, [sp, #4]
 626 0080 4B4F     		ldr	r7, .L55+8
 627 0082 3A44     		add	r2, r2, r7
 628 0084 0092     		str	r2, [sp]
 629 0086 CB88     		ldrh	r3, [r1, #6]
 630 0088 8A88     		ldrh	r2, [r1, #4]
 631 008a 4988     		ldrh	r1, [r1, #2]
 632 008c 3CF81000 		ldrh	r0, [ip, r0, lsl #1]
 633 0090 FFF7FEFF 		bl	ili9341_mem_read_rect
 634              	.LVL51:
 140:emulator/mem/mem.c ****         memory.state = MEM_PAGE_STATE_READED;
 635              		.loc 1 140 9 is_stmt 1 view .LVU167
 140:emulator/mem/mem.c ****         memory.state = MEM_PAGE_STATE_READED;
 636              		.loc 1 140 22 is_stmt 0 view .LVU168
 637 0094 07F8026C 		strb	r6, [r7, #-2]
 141:emulator/mem/mem.c ****     }
 638              		.loc 1 141 9 is_stmt 1 view .LVU169
 141:emulator/mem/mem.c ****     }
 639              		.loc 1 141 22 is_stmt 0 view .LVU170
 640 0098 0223     		movs	r3, #2
 641 009a 07F8013C 		strb	r3, [r7, #-1]
 642              	.L34:
 144:emulator/mem/mem.c **** }
 643              		.loc 1 144 5 is_stmt 1 view .LVU171
 144:emulator/mem/mem.c **** }
 644              		.loc 1 144 24 is_stmt 0 view .LVU172
 645 009e 4348     		ldr	r0, .L55+4
 646 00a0 2844     		add	r0, r0, r5
 647 00a2 8578     		ldrb	r5, [r0, #2]	@ zero_extendqisi2
 648              	.LVL52:
 144:emulator/mem/mem.c **** }
 649              		.loc 1 144 24 view .LVU173
 650              	.LBE35:
 651              	.LBE34:
 652 00a4 BBE7     		b	.L36
ARM GAS  /tmp/cc4GLRty.s 			page 19


 653              	.LVL53:
 654              	.L49:
 655              	.LBB39:
 656              	.LBB38:
 124:emulator/mem/mem.c ****     addr &= 0x1FFF;
 657              		.loc 1 124 37 view .LVU174
 658 00a6 03F5FF53 		add	r3, r3, #8160
 659 00aa 1F33     		adds	r3, r3, #31
 660 00ac CEE7     		b	.L33
 661              	.LVL54:
 662              	.L50:
 133:emulator/mem/mem.c ****         }
 663              		.loc 1 133 13 is_stmt 1 view .LVU175
 664              	.LBB36:
 665              	.LBI36:
 114:emulator/mem/mem.c **** {
 666              		.loc 1 114 20 view .LVU176
 667              	.LBB37:
 117:emulator/mem/mem.c ****                            memory.cache + (MEM_PAGE_NUM_SIZE - pages[page].size),
 668              		.loc 1 117 5 view .LVU177
 118:emulator/mem/mem.c ****                            pages[page].size);
 669              		.loc 1 118 75 is_stmt 0 view .LVU178
 670 00ae DFF808C1 		ldr	ip, .L55+16
 671 00b2 03EB8301 		add	r1, r3, r3, lsl #2
 672 00b6 0CEB4101 		add	r1, ip, r1, lsl #1
 673 00ba B1F808E0 		ldrh	lr, [r1, #8]
 118:emulator/mem/mem.c ****                            pages[page].size);
 674              		.loc 1 118 62 view .LVU179
 675 00be CEF50052 		rsb	r2, lr, #8192
 117:emulator/mem/mem.c ****                            memory.cache + (MEM_PAGE_NUM_SIZE - pages[page].size),
 676              		.loc 1 117 5 view .LVU180
 677 00c2 03EB8300 		add	r0, r3, r3, lsl #2
 678              	.LVL55:
 117:emulator/mem/mem.c ****                            memory.cache + (MEM_PAGE_NUM_SIZE - pages[page].size),
 679              		.loc 1 117 5 view .LVU181
 680 00c6 CDF804E0 		str	lr, [sp, #4]
 681 00ca 394B     		ldr	r3, .L55+8
 682              	.LVL56:
 117:emulator/mem/mem.c ****                            memory.cache + (MEM_PAGE_NUM_SIZE - pages[page].size),
 683              		.loc 1 117 5 view .LVU182
 684 00cc 1344     		add	r3, r3, r2
 685 00ce 0093     		str	r3, [sp]
 686 00d0 CB88     		ldrh	r3, [r1, #6]
 687 00d2 8A88     		ldrh	r2, [r1, #4]
 688 00d4 4988     		ldrh	r1, [r1, #2]
 689 00d6 3CF81000 		ldrh	r0, [ip, r0, lsl #1]
 690 00da FFF7FEFF 		bl	ili9341_mem_write_rect
 691              	.LVL57:
 120:emulator/mem/mem.c **** 
 692              		.loc 1 120 1 view .LVU183
 693 00de C2E7     		b	.L35
 694              	.LVL58:
 695              	.L37:
 120:emulator/mem/mem.c **** 
 696              		.loc 1 120 1 view .LVU184
 697              	.LBE37:
 698              	.LBE36:
ARM GAS  /tmp/cc4GLRty.s 			page 20


 699              	.LBE38:
 700              	.LBE39:
 195:emulator/mem/mem.c **** 	{
 701              		.loc 1 195 10 is_stmt 1 view .LVU185
 195:emulator/mem/mem.c **** 	{
 702              		.loc 1 195 13 is_stmt 0 view .LVU186
 703 00e0 B0F5804F 		cmp	r0, #16384
 704 00e4 02D2     		bcs	.L51
 201:emulator/mem/mem.c ****     }
 705              		.loc 1 201 9 is_stmt 1 view .LVU187
 201:emulator/mem/mem.c ****     }
 706              		.loc 1 201 18 is_stmt 0 view .LVU188
 707 00e6 334B     		ldr	r3, .L55+12
 708 00e8 1D5C     		ldrb	r5, [r3, r0]	@ zero_extendqisi2
 709              	.LVL59:
 201:emulator/mem/mem.c ****     }
 710              		.loc 1 201 18 view .LVU189
 711 00ea 98E7     		b	.L36
 712              	.LVL60:
 713              	.L51:
 197:emulator/mem/mem.c **** 	}
 714              		.loc 1 197 9 is_stmt 1 view .LVU190
 197:emulator/mem/mem.c **** 	}
 715              		.loc 1 197 20 is_stmt 0 view .LVU191
 716 00ec FFF7FEFF 		bl	screen_mem_read
 717              	.LVL61:
 197:emulator/mem/mem.c **** 	}
 718              		.loc 1 197 20 view .LVU192
 719 00f0 0546     		mov	r5, r0
 720              	.LVL62:
 197:emulator/mem/mem.c **** 	}
 721              		.loc 1 197 20 view .LVU193
 722 00f2 94E7     		b	.L36
 723              	.LVL63:
 724              	.L48:
 197:emulator/mem/mem.c **** 	}
 725              		.loc 1 197 20 view .LVU194
 726              	.LBE40:
 727              	.LBE50:
 728              	.LBB51:
 729              	.LBB49:
 189:emulator/mem/mem.c ****     }
 730              		.loc 1 189 9 is_stmt 1 view .LVU195
 731              	.LBB43:
 732              	.LBI43:
 122:emulator/mem/mem.c **** {
 733              		.loc 1 122 23 view .LVU196
 734              	.LBB44:
 124:emulator/mem/mem.c ****     addr &= 0x1FFF;
 735              		.loc 1 124 5 view .LVU197
 124:emulator/mem/mem.c ****     addr &= 0x1FFF;
 736              		.loc 1 124 37 is_stmt 0 view .LVU198
 737 00f4 C4F57F43 		rsb	r3, r4, #65280
 738 00f8 FF33     		adds	r3, r3, #255
 739 00fa 002B     		cmp	r3, #0
 740 00fc 2CDB     		blt	.L52
 741              	.L40:
ARM GAS  /tmp/cc4GLRty.s 			page 21


 124:emulator/mem/mem.c ****     addr &= 0x1FFF;
 742              		.loc 1 124 37 view .LVU199
 743 00fe 5F13     		asrs	r7, r3, #13
 124:emulator/mem/mem.c ****     addr &= 0x1FFF;
 744              		.loc 1 124 26 view .LVU200
 745 0100 C3F34736 		ubfx	r6, r3, #13, #8
 746              	.LVL64:
 125:emulator/mem/mem.c ****     
 747              		.loc 1 125 5 is_stmt 1 view .LVU201
 125:emulator/mem/mem.c ****     
 748              		.loc 1 125 10 is_stmt 0 view .LVU202
 749 0104 C4F30C04 		ubfx	r4, r4, #0, #13
 750              	.LVL65:
 127:emulator/mem/mem.c ****     {
 751              		.loc 1 127 5 is_stmt 1 view .LVU203
 127:emulator/mem/mem.c ****     {
 752              		.loc 1 127 15 is_stmt 0 view .LVU204
 753 0108 284B     		ldr	r3, .L55+4
 754 010a 1B78     		ldrb	r3, [r3]	@ zero_extendqisi2
 127:emulator/mem/mem.c ****     {
 755              		.loc 1 127 8 view .LVU205
 756 010c 9E42     		cmp	r6, r3
 757 010e 1FD0     		beq	.L41
 130:emulator/mem/mem.c ****         {
 758              		.loc 1 130 9 is_stmt 1 view .LVU206
 130:emulator/mem/mem.c ****         {
 759              		.loc 1 130 19 is_stmt 0 view .LVU207
 760 0110 264A     		ldr	r2, .L55+4
 761 0112 5278     		ldrb	r2, [r2, #1]	@ zero_extendqisi2
 130:emulator/mem/mem.c ****         {
 762              		.loc 1 130 12 view .LVU208
 763 0114 012A     		cmp	r2, #1
 764 0116 23D0     		beq	.L53
 765              	.L42:
 136:emulator/mem/mem.c ****                               memory.cache +(MEM_PAGE_NUM_SIZE - pages[page_num].size),
 766              		.loc 1 136 9 is_stmt 1 view .LVU209
 767 0118 FBB2     		uxtb	r3, r7
 137:emulator/mem/mem.c ****                               pages[page_num].size);
 768              		.loc 1 137 81 is_stmt 0 view .LVU210
 769 011a DFF89CC0 		ldr	ip, .L55+16
 770 011e 03EB8301 		add	r1, r3, r3, lsl #2
 771 0122 0CEB4101 		add	r1, ip, r1, lsl #1
 772 0126 0F89     		ldrh	r7, [r1, #8]
 137:emulator/mem/mem.c ****                               pages[page_num].size);
 773              		.loc 1 137 64 view .LVU211
 774 0128 C7F50052 		rsb	r2, r7, #8192
 136:emulator/mem/mem.c ****                               memory.cache +(MEM_PAGE_NUM_SIZE - pages[page_num].size),
 775              		.loc 1 136 9 view .LVU212
 776 012c 03EB8300 		add	r0, r3, r3, lsl #2
 777 0130 0197     		str	r7, [sp, #4]
 778 0132 1F4F     		ldr	r7, .L55+8
 779 0134 3A44     		add	r2, r2, r7
 780 0136 0092     		str	r2, [sp]
 781 0138 CB88     		ldrh	r3, [r1, #6]
 782 013a 8A88     		ldrh	r2, [r1, #4]
 783 013c 4988     		ldrh	r1, [r1, #2]
 784 013e 3CF81000 		ldrh	r0, [ip, r0, lsl #1]
ARM GAS  /tmp/cc4GLRty.s 			page 22


 785 0142 FFF7FEFF 		bl	ili9341_mem_read_rect
 786              	.LVL66:
 140:emulator/mem/mem.c ****         memory.state = MEM_PAGE_STATE_READED;
 787              		.loc 1 140 9 is_stmt 1 view .LVU213
 140:emulator/mem/mem.c ****         memory.state = MEM_PAGE_STATE_READED;
 788              		.loc 1 140 22 is_stmt 0 view .LVU214
 789 0146 07F8026C 		strb	r6, [r7, #-2]
 141:emulator/mem/mem.c ****     }
 790              		.loc 1 141 9 is_stmt 1 view .LVU215
 141:emulator/mem/mem.c ****     }
 791              		.loc 1 141 22 is_stmt 0 view .LVU216
 792 014a 0223     		movs	r3, #2
 793 014c 07F8013C 		strb	r3, [r7, #-1]
 794              	.L41:
 144:emulator/mem/mem.c **** }
 795              		.loc 1 144 5 is_stmt 1 view .LVU217
 144:emulator/mem/mem.c **** }
 796              		.loc 1 144 24 is_stmt 0 view .LVU218
 797 0150 1648     		ldr	r0, .L55+4
 798 0152 0444     		add	r4, r4, r0
 799              	.LVL67:
 144:emulator/mem/mem.c **** }
 800              		.loc 1 144 24 view .LVU219
 801 0154 A078     		ldrb	r0, [r4, #2]	@ zero_extendqisi2
 802              	.LVL68:
 144:emulator/mem/mem.c **** }
 803              		.loc 1 144 24 view .LVU220
 804              	.LBE44:
 805              	.LBE43:
 806 0156 6FE7     		b	.L43
 807              	.LVL69:
 808              	.L52:
 809              	.LBB48:
 810              	.LBB47:
 124:emulator/mem/mem.c ****     addr &= 0x1FFF;
 811              		.loc 1 124 37 view .LVU221
 812 0158 03F5FF53 		add	r3, r3, #8160
 813 015c 1F33     		adds	r3, r3, #31
 814 015e CEE7     		b	.L40
 815              	.LVL70:
 816              	.L53:
 133:emulator/mem/mem.c ****         }
 817              		.loc 1 133 13 is_stmt 1 view .LVU222
 818              	.LBB45:
 819              	.LBI45:
 114:emulator/mem/mem.c **** {
 820              		.loc 1 114 20 view .LVU223
 821              	.LBB46:
 117:emulator/mem/mem.c ****                            memory.cache + (MEM_PAGE_NUM_SIZE - pages[page].size),
 822              		.loc 1 117 5 view .LVU224
 118:emulator/mem/mem.c ****                            pages[page].size);
 823              		.loc 1 118 75 is_stmt 0 view .LVU225
 824 0160 DFF854C0 		ldr	ip, .L55+16
 825 0164 03EB8301 		add	r1, r3, r3, lsl #2
 826 0168 0CEB4101 		add	r1, ip, r1, lsl #1
 827 016c B1F808E0 		ldrh	lr, [r1, #8]
 118:emulator/mem/mem.c ****                            pages[page].size);
ARM GAS  /tmp/cc4GLRty.s 			page 23


 828              		.loc 1 118 62 view .LVU226
 829 0170 CEF50052 		rsb	r2, lr, #8192
 117:emulator/mem/mem.c ****                            memory.cache + (MEM_PAGE_NUM_SIZE - pages[page].size),
 830              		.loc 1 117 5 view .LVU227
 831 0174 03EB8300 		add	r0, r3, r3, lsl #2
 832 0178 CDF804E0 		str	lr, [sp, #4]
 833 017c 0C4B     		ldr	r3, .L55+8
 834              	.LVL71:
 117:emulator/mem/mem.c ****                            memory.cache + (MEM_PAGE_NUM_SIZE - pages[page].size),
 835              		.loc 1 117 5 view .LVU228
 836 017e 1344     		add	r3, r3, r2
 837 0180 0093     		str	r3, [sp]
 838 0182 CB88     		ldrh	r3, [r1, #6]
 839 0184 8A88     		ldrh	r2, [r1, #4]
 840 0186 4988     		ldrh	r1, [r1, #2]
 841 0188 3CF81000 		ldrh	r0, [ip, r0, lsl #1]
 842 018c FFF7FEFF 		bl	ili9341_mem_write_rect
 843              	.LVL72:
 120:emulator/mem/mem.c **** 
 844              		.loc 1 120 1 view .LVU229
 845 0190 C2E7     		b	.L42
 846              	.LVL73:
 847              	.L44:
 120:emulator/mem/mem.c **** 
 848              		.loc 1 120 1 view .LVU230
 849              	.LBE46:
 850              	.LBE45:
 851              	.LBE47:
 852              	.LBE48:
 195:emulator/mem/mem.c **** 	{
 853              		.loc 1 195 10 is_stmt 1 view .LVU231
 195:emulator/mem/mem.c **** 	{
 854              		.loc 1 195 13 is_stmt 0 view .LVU232
 855 0192 B4F5804F 		cmp	r4, #16384
 856 0196 02D2     		bcs	.L54
 201:emulator/mem/mem.c ****     }
 857              		.loc 1 201 9 is_stmt 1 view .LVU233
 201:emulator/mem/mem.c ****     }
 858              		.loc 1 201 18 is_stmt 0 view .LVU234
 859 0198 064B     		ldr	r3, .L55+12
 860 019a 185D     		ldrb	r0, [r3, r4]	@ zero_extendqisi2
 861              	.LVL74:
 201:emulator/mem/mem.c ****     }
 862              		.loc 1 201 18 view .LVU235
 863 019c 4CE7     		b	.L43
 864              	.LVL75:
 865              	.L54:
 197:emulator/mem/mem.c **** 	}
 866              		.loc 1 197 9 is_stmt 1 view .LVU236
 197:emulator/mem/mem.c **** 	}
 867              		.loc 1 197 20 is_stmt 0 view .LVU237
 868 019e 2046     		mov	r0, r4
 869 01a0 FFF7FEFF 		bl	screen_mem_read
 870              	.LVL76:
 197:emulator/mem/mem.c **** 	}
 871              		.loc 1 197 20 view .LVU238
 872 01a4 48E7     		b	.L43
ARM GAS  /tmp/cc4GLRty.s 			page 24


 873              	.L56:
 874 01a6 00BF     		.align	2
 875              	.L55:
 876 01a8 00000000 		.word	.LANCHOR1
 877 01ac 00000000 		.word	memory
 878 01b0 02000000 		.word	memory+2
 879 01b4 00000000 		.word	__48_rom
 880 01b8 00000000 		.word	.LANCHOR0
 881              	.LBE49:
 882              	.LBE51:
 883              		.cfi_endproc
 884              	.LFE7:
 886              		.section	.text.mem_writeword,"ax",%progbits
 887              		.align	1
 888              		.global	mem_writeword
 889              		.syntax unified
 890              		.thumb
 891              		.thumb_func
 892              		.fpu softvfp
 894              	mem_writeword:
 895              	.LVL77:
 896              	.LFB8:
 242:emulator/mem/mem.c **** 
 243:emulator/mem/mem.c **** void mem_writeword(uint16_t addr, uint16_t w)
 244:emulator/mem/mem.c **** {
 897              		.loc 1 244 1 is_stmt 1 view -0
 898              		.cfi_startproc
 899              		@ args = 0, pretend = 0, frame = 0
 900              		@ frame_needed = 0, uses_anonymous_args = 0
 901              		.loc 1 244 1 is_stmt 0 view .LVU240
 902 0000 38B5     		push	{r3, r4, r5, lr}
 903              	.LCFI12:
 904              		.cfi_def_cfa_offset 16
 905              		.cfi_offset 3, -16
 906              		.cfi_offset 4, -12
 907              		.cfi_offset 5, -8
 908              		.cfi_offset 14, -4
 909 0002 0446     		mov	r4, r0
 910 0004 0D46     		mov	r5, r1
 245:emulator/mem/mem.c **** #ifdef MEM_DBG
 246:emulator/mem/mem.c ****     logger("%s A: %04X D: %04X\r\n", __func__, addr, w);
 247:emulator/mem/mem.c **** #endif /* MEM_DBG */
 248:emulator/mem/mem.c **** 
 249:emulator/mem/mem.c ****     mem_writebyte(addr, (uint8_t)w);
 911              		.loc 1 249 5 is_stmt 1 view .LVU241
 912 0006 C9B2     		uxtb	r1, r1
 913              	.LVL78:
 914              		.loc 1 249 5 is_stmt 0 view .LVU242
 915 0008 FFF7FEFF 		bl	mem_writebyte
 916              	.LVL79:
 250:emulator/mem/mem.c ****     mem_writebyte(addr + 1, (uint8_t)(w >> 8));
 917              		.loc 1 250 5 is_stmt 1 view .LVU243
 918 000c 601C     		adds	r0, r4, #1
 919 000e 290A     		lsrs	r1, r5, #8
 920 0010 80B2     		uxth	r0, r0
 921 0012 FFF7FEFF 		bl	mem_writebyte
 922              	.LVL80:
ARM GAS  /tmp/cc4GLRty.s 			page 25


 251:emulator/mem/mem.c **** }
 923              		.loc 1 251 1 is_stmt 0 view .LVU244
 924 0016 38BD     		pop	{r3, r4, r5, pc}
 925              		.cfi_endproc
 926              	.LFE8:
 928              		.section	.rodata.mem_input.str1.4,"aMS",%progbits,1
 929              		.align	2
 930              	.LC1:
 931 0000 25732064 		.ascii	"%s display attr %02X %02X\015\012\000"
 931      6973706C 
 931      61792061 
 931      74747220 
 931      25303258 
 932              		.align	2
 933              	.LC2:
 934 001c 2573206A 		.ascii	"%s joystick %02X %02X\015\012\000"
 934      6F797374 
 934      69636B20 
 934      25303258 
 934      20253032 
 935              		.align	2
 936              	.LC3:
 937 0034 25732075 		.ascii	"%s unk %02X %02X\015\012\000"
 937      6E6B2025 
 937      30325820 
 937      25303258 
 937      0D0A00
 938              		.section	.text.mem_input,"ax",%progbits
 939              		.align	1
 940              		.global	mem_input
 941              		.syntax unified
 942              		.thumb
 943              		.thumb_func
 944              		.fpu softvfp
 946              	mem_input:
 947              	.LVL81:
 948              	.LFB9:
 252:emulator/mem/mem.c **** 
 253:emulator/mem/mem.c **** uint8_t mem_input(uint8_t portLow, uint8_t portHigh)
 254:emulator/mem/mem.c **** {
 949              		.loc 1 254 1 is_stmt 1 view -0
 950              		.cfi_startproc
 951              		@ args = 0, pretend = 0, frame = 0
 952              		@ frame_needed = 0, uses_anonymous_args = 0
 953              		.loc 1 254 1 is_stmt 0 view .LVU246
 954 0000 10B5     		push	{r4, lr}
 955              	.LCFI13:
 956              		.cfi_def_cfa_offset 8
 957              		.cfi_offset 4, -8
 958              		.cfi_offset 14, -4
 959 0002 0A46     		mov	r2, r1
 255:emulator/mem/mem.c ****     uint8_t ret = 0xFF;
 960              		.loc 1 255 5 is_stmt 1 view .LVU247
 961              	.LVL82:
 256:emulator/mem/mem.c ****     switch (portLow)
 962              		.loc 1 256 5 view .LVU248
 963 0004 FE28     		cmp	r0, #254
ARM GAS  /tmp/cc4GLRty.s 			page 26


 964 0006 0BD0     		beq	.L60
 965 0008 0446     		mov	r4, r0
 966 000a FF28     		cmp	r0, #255
 967 000c 0CD0     		beq	.L61
 968 000e 1F28     		cmp	r0, #31
 969 0010 11D0     		beq	.L67
 257:emulator/mem/mem.c ****     {
 258:emulator/mem/mem.c ****         case 0xFE:
 259:emulator/mem/mem.c ****         {
 260:emulator/mem/mem.c ****             /* keyboar, border, type, beeper */
 261:emulator/mem/mem.c ****             ret = input_key_get(portHigh);
 262:emulator/mem/mem.c ****             break;
 263:emulator/mem/mem.c ****         }
 264:emulator/mem/mem.c ****         case 0xFF:
 265:emulator/mem/mem.c ****         {
 266:emulator/mem/mem.c ****             /* display attr */
 267:emulator/mem/mem.c ****             logger("%s display attr %02X %02X\r\n", __func__, portHigh, portLow);
 268:emulator/mem/mem.c ****             break;
 269:emulator/mem/mem.c ****         }
 270:emulator/mem/mem.c ****         case 0x1F:
 271:emulator/mem/mem.c ****         {
 272:emulator/mem/mem.c ****             /* joystick */
 273:emulator/mem/mem.c ****             logger("%s joystick %02X %02X\r\n", __func__, portHigh, portLow);
 274:emulator/mem/mem.c ****             break;
 275:emulator/mem/mem.c ****         }
 276:emulator/mem/mem.c ****         default:
 277:emulator/mem/mem.c ****             logger("%s unk %02X %02X\r\n", __func__, portHigh, portLow);
 970              		.loc 1 277 13 view .LVU249
 971 0012 0346     		mov	r3, r0
 972 0014 0B49     		ldr	r1, .L68
 973              	.LVL83:
 974              		.loc 1 277 13 is_stmt 0 view .LVU250
 975 0016 0C48     		ldr	r0, .L68+4
 976              	.LVL84:
 977              		.loc 1 277 13 view .LVU251
 978 0018 FFF7FEFF 		bl	logger
 979              	.LVL85:
 278:emulator/mem/mem.c ****             break;
 980              		.loc 1 278 13 is_stmt 1 view .LVU252
 255:emulator/mem/mem.c ****     switch (portLow)
 981              		.loc 1 255 13 is_stmt 0 view .LVU253
 982 001c FF20     		movs	r0, #255
 983              		.loc 1 278 13 view .LVU254
 984 001e 02E0     		b	.L64
 985              	.LVL86:
 986              	.L60:
 261:emulator/mem/mem.c ****             break;
 987              		.loc 1 261 13 is_stmt 1 view .LVU255
 261:emulator/mem/mem.c ****             break;
 988              		.loc 1 261 19 is_stmt 0 view .LVU256
 989 0020 0846     		mov	r0, r1
 990              	.LVL87:
 261:emulator/mem/mem.c ****             break;
 991              		.loc 1 261 19 view .LVU257
 992 0022 FFF7FEFF 		bl	input_key_get
 993              	.LVL88:
 262:emulator/mem/mem.c ****         }
ARM GAS  /tmp/cc4GLRty.s 			page 27


 994              		.loc 1 262 13 is_stmt 1 view .LVU258
 995              	.L64:
 279:emulator/mem/mem.c ****     }
 280:emulator/mem/mem.c **** #ifdef MEM_DBG
 281:emulator/mem/mem.c ****     logger("%s portHigh %02X portLow %02X d: %02X\r\n", __func__, portHigh,  portLow, ret);
 282:emulator/mem/mem.c **** #endif /* MEM_DBG */
 283:emulator/mem/mem.c ****     return ret;
 996              		.loc 1 283 5 view .LVU259
 284:emulator/mem/mem.c **** }
 997              		.loc 1 284 1 is_stmt 0 view .LVU260
 998 0026 10BD     		pop	{r4, pc}
 999              	.LVL89:
 1000              	.L61:
 267:emulator/mem/mem.c ****             break;
 1001              		.loc 1 267 13 is_stmt 1 view .LVU261
 1002 0028 0346     		mov	r3, r0
 1003 002a 0649     		ldr	r1, .L68
 1004              	.LVL90:
 267:emulator/mem/mem.c ****             break;
 1005              		.loc 1 267 13 is_stmt 0 view .LVU262
 1006 002c 0748     		ldr	r0, .L68+8
 1007              	.LVL91:
 267:emulator/mem/mem.c ****             break;
 1008              		.loc 1 267 13 view .LVU263
 1009 002e FFF7FEFF 		bl	logger
 1010              	.LVL92:
 268:emulator/mem/mem.c ****         }
 1011              		.loc 1 268 13 is_stmt 1 view .LVU264
 255:emulator/mem/mem.c ****     switch (portLow)
 1012              		.loc 1 255 13 is_stmt 0 view .LVU265
 1013 0032 2046     		mov	r0, r4
 268:emulator/mem/mem.c ****         }
 1014              		.loc 1 268 13 view .LVU266
 1015 0034 F7E7     		b	.L64
 1016              	.LVL93:
 1017              	.L67:
 273:emulator/mem/mem.c ****             break;
 1018              		.loc 1 273 13 is_stmt 1 view .LVU267
 1019 0036 0346     		mov	r3, r0
 1020 0038 0249     		ldr	r1, .L68
 1021              	.LVL94:
 273:emulator/mem/mem.c ****             break;
 1022              		.loc 1 273 13 is_stmt 0 view .LVU268
 1023 003a 0548     		ldr	r0, .L68+12
 1024              	.LVL95:
 273:emulator/mem/mem.c ****             break;
 1025              		.loc 1 273 13 view .LVU269
 1026 003c FFF7FEFF 		bl	logger
 1027              	.LVL96:
 274:emulator/mem/mem.c ****         }
 1028              		.loc 1 274 13 is_stmt 1 view .LVU270
 255:emulator/mem/mem.c ****     switch (portLow)
 1029              		.loc 1 255 13 is_stmt 0 view .LVU271
 1030 0040 FF20     		movs	r0, #255
 274:emulator/mem/mem.c ****         }
 1031              		.loc 1 274 13 view .LVU272
 1032 0042 F0E7     		b	.L64
ARM GAS  /tmp/cc4GLRty.s 			page 28


 1033              	.L69:
 1034              		.align	2
 1035              	.L68:
 1036 0044 00000000 		.word	.LANCHOR2
 1037 0048 34000000 		.word	.LC3
 1038 004c 00000000 		.word	.LC1
 1039 0050 1C000000 		.word	.LC2
 1040              		.cfi_endproc
 1041              	.LFE9:
 1043              		.section	.rodata.mem_output.str1.4,"aMS",%progbits,1
 1044              		.align	2
 1045              	.LC4:
 1046 0000 25732075 		.ascii	"%s unk %02X %02X D:%02X\015\012\000"
 1046      6E6B2025 
 1046      30325820 
 1046      25303258 
 1046      20443A25 
 1047              		.section	.text.mem_output,"ax",%progbits
 1048              		.align	1
 1049              		.global	mem_output
 1050              		.syntax unified
 1051              		.thumb
 1052              		.thumb_func
 1053              		.fpu softvfp
 1055              	mem_output:
 1056              	.LVL97:
 1057              	.LFB10:
 285:emulator/mem/mem.c **** 
 286:emulator/mem/mem.c **** void mem_output(uint8_t portLow, uint8_t portHigh, uint8_t data)
 287:emulator/mem/mem.c **** {
 1058              		.loc 1 287 1 is_stmt 1 view -0
 1059              		.cfi_startproc
 1060              		@ args = 0, pretend = 0, frame = 0
 1061              		@ frame_needed = 0, uses_anonymous_args = 0
 288:emulator/mem/mem.c **** #ifdef MEM_DBG
 289:emulator/mem/mem.c ****     logger("%s portHigh %02X  portLow %02X data %02X\r\n", __func__, portHigh, portLow, data);
 290:emulator/mem/mem.c **** #endif /* MEM_DBG */
 291:emulator/mem/mem.c **** 
 292:emulator/mem/mem.c ****     switch (portLow)
 1062              		.loc 1 292 5 view .LVU274
 1063 0000 FE28     		cmp	r0, #254
 1064 0002 00D1     		bne	.L76
 1065 0004 7047     		bx	lr
 1066              	.L76:
 287:emulator/mem/mem.c **** #ifdef MEM_DBG
 1067              		.loc 1 287 1 is_stmt 0 view .LVU275
 1068 0006 00B5     		push	{lr}
 1069              	.LCFI14:
 1070              		.cfi_def_cfa_offset 4
 1071              		.cfi_offset 14, -4
 1072 0008 83B0     		sub	sp, sp, #12
 1073              	.LCFI15:
 1074              		.cfi_def_cfa_offset 16
 293:emulator/mem/mem.c ****     {
 294:emulator/mem/mem.c ****         case 0xFE: /*Keyboar, border, type, beeper */
 295:emulator/mem/mem.c ****         {
 296:emulator/mem/mem.c ****             // (data & (1 << 3)) /* Type */
ARM GAS  /tmp/cc4GLRty.s 			page 29


 297:emulator/mem/mem.c ****             // (data & (1 << 4)) /* Beeper */
 298:emulator/mem/mem.c **** 
 299:emulator/mem/mem.c ****             /* border color (no bright colors) */
 300:emulator/mem/mem.c ****             // screen_draw_border(data & 0x07);
 301:emulator/mem/mem.c ****             // logger("type %d\r\n", data & (1 << 3));
 302:emulator/mem/mem.c ****         }
 303:emulator/mem/mem.c ****         break;
 304:emulator/mem/mem.c ****         default:
 305:emulator/mem/mem.c ****             logger("%s unk %02X %02X D:%02X\r\n", __func__, portHigh, portLow, data);
 1075              		.loc 1 305 13 is_stmt 1 view .LVU276
 1076 000a 0092     		str	r2, [sp]
 1077 000c 0346     		mov	r3, r0
 1078 000e 0A46     		mov	r2, r1
 1079              	.LVL98:
 1080              		.loc 1 305 13 is_stmt 0 view .LVU277
 1081 0010 0349     		ldr	r1, .L77
 1082              	.LVL99:
 1083              		.loc 1 305 13 view .LVU278
 1084 0012 0448     		ldr	r0, .L77+4
 1085              	.LVL100:
 1086              		.loc 1 305 13 view .LVU279
 1087 0014 FFF7FEFF 		bl	logger
 1088              	.LVL101:
 306:emulator/mem/mem.c ****             break;
 1089              		.loc 1 306 13 is_stmt 1 view .LVU280
 307:emulator/mem/mem.c ****     }
 308:emulator/mem/mem.c **** }...
 1090              		.loc 1 308 1 is_stmt 0 view .LVU281
 1091 0018 03B0     		add	sp, sp, #12
 1092              	.LCFI16:
 1093              		.cfi_def_cfa_offset 4
 1094              		@ sp needed
 1095 001a 5DF804FB 		ldr	pc, [sp], #4
 1096              	.L78:
 1097 001e 00BF     		.align	2
 1098              	.L77:
 1099 0020 00000000 		.word	.LANCHOR3
 1100 0024 00000000 		.word	.LC4
 1101              		.cfi_endproc
 1102              	.LFE10:
 1104              		.global	__48_rom
 1105              		.section	.bss.ram,"aw",%nobits
 1106              		.align	2
 1107              		.set	.LANCHOR1,. + 0
 1110              	ram:
 1111 0000 00000000 		.space	1280
 1111      00000000 
 1111      00000000 
 1111      00000000 
 1111      00000000 
 1112              		.section	.data.memory,"aw"
 1113              		.align	2
 1116              	memory:
 1117 0000 05       		.byte	5
 1118 0001 00       		.byte	0
 1119 0002 00000000 		.space	8192
 1119      00000000 
ARM GAS  /tmp/cc4GLRty.s 			page 30


 1119      00000000 
 1119      00000000 
 1119      00000000 
 1120              		.section	.rodata.__48_rom,"a"
 1121              		.align	2
 1124              	__48_rom:
 1125 0000 F3AF11FF 		.ascii	"\363\257\021\377\377\303\313\021*]\\\"_\\\030C\303\362"
 1125      FFC3CB11 
 1125      2A5D5C22 
 1125      5F5C1843 
 1125      C3F2
 1126 0012 15FFFFFF 		.ascii	"\025\377\377\377\377\377*]\\~\315}\000\320\315t\000"
 1126      FFFF2A5D 
 1126      5C7ECD7D 
 1126      00D0CD74 
 1126      00
 1127 0023 18F7FFFF 		.ascii	"\030\367\377\377\377\303[3\377\377\377\377\377\305*"
 1127      FFC35B33 
 1127      FFFFFFFF 
 1127      FFC52A
 1128 0032 615CE5C3 		.ascii	"a\\\345\303\236\026\365\345*x\\#\"x\\|\265 \003\375"
 1128      9E16F5E5 
 1128      2A785C23 
 1128      22785C7C 
 1128      B52003FD 
 1129 0046 3440C5D5 		.ascii	"4@\305\325\315\277\002\321\301\341\361\373\311\341n"
 1129      CDBF02D1 
 1129      C1E1F1FB 
 1129      C9E16E
 1130 0055 FD7500ED 		.ascii	"\375u\000\355{=\\\303\305\026\377\377\377\377\377\377"
 1130      7B3D5CC3 
 1130      C516FFFF 
 1130      FFFFFFFF 
 1131 0065 FFF5E52A 		.ascii	"\377\365\345*\260\\|\265 \001\351\341\361\355E*]\\#"
 1131      B05C7CB5 
 1131      2001E9E1 
 1131      F1ED452A 
 1131      5D5C23
 1132 0078 225D5C7E 		.ascii	"\"]\\~\311\376!\320\376\015\310\376\020\330\376\030"
 1132      C9FE21D0 
 1132      FE0DC8FE 
 1132      10D8FE18 
 1133 0088 3FD823FE 		.ascii	"?\330#\376\0268\001#7\"]\\\311\277RN\304INKEY\244P\311"
 1133      16380123 
 1133      37225D5C 
 1133      C9BF524E 
 1133      C4494E4B 
 1134 00a1 46CE504F 		.ascii	"F\316POIN\324SCREEN\244ATT\322A\324TA\302VAL\244COD"
 1134      494ED453 
 1134      43524545 
 1134      4EA44154 
 1134      54D241D4 
 1135 00bf C55641CC 		.ascii	"\305VA\314LE\316SI\316CO\323TA\316AS\316AC\323AT\316"
 1135      4C45CE53 
 1135      49CE434F 
 1135      D35441CE 
 1135      4153CE41 
ARM GAS  /tmp/cc4GLRty.s 			page 31


 1136 00d8 4CCE4558 		.ascii	"L\316EX\320IN\324SQ\322SG\316AB\323PEE\313I\316US\322"
 1136      D0494ED4 
 1136      5351D253 
 1136      47CE4142 
 1136      D3504545 
 1137 00f2 535452A4 		.ascii	"STR\244CHR\244NO\324BI\316O\322AN\304<\275>\275<\276"
 1137      434852A4 
 1137      4E4FD442 
 1137      49CE4FD2 
 1137      414EC43C 
 1138 010b 4C494EC5 		.ascii	"LIN\305THE\316T\317STE\320DEF F\316CA\324FORMA\324M"
 1138      544845CE 
 1138      54CF5354 
 1138      45D04445 
 1138      462046CE 
 1139 0129 4F56C545 		.ascii	"OV\305ERAS\305OPEN \243CLOSE \243MERG\305VERIF\331B"
 1139      524153C5 
 1139      4F50454E 
 1139      20A3434C 
 1139      4F534520 
 1140 014a 4545D043 		.ascii	"EE\320CIRCL\305IN\313PAPE\322FLAS\310BRIGH\324INVER"
 1140      4952434C 
 1140      C5494ECB 
 1140      50415045 
 1140      D2464C41 
 1141 016b 53C54F56 		.ascii	"S\305OVE\322OU\324LPRIN\324LLIS\324STO\320REA\304DA"
 1141      45D24F55 
 1141      D44C5052 
 1141      494ED44C 
 1141      4C4953D4 
 1142 0189 54C15245 		.ascii	"T\301RESTOR\305NE\327BORDE\322CONTINU\305DI\315RE\315"
 1142      53544F52 
 1142      C54E45D7 
 1142      424F5244 
 1142      45D2434F 
 1143 01a9 464FD247 		.ascii	"FO\322GO T\317GO SU\302INPU\324LOA\304LIS\324LE\324"
 1143      4F2054CF 
 1143      474F2053 
 1143      55C2494E 
 1143      5055D44C 
 1144 01c7 50415553 		.ascii	"PAUS\305NEX\324POK\305PRIN\324PLO\324RU\316SAV\305R"
 1144      C54E4558 
 1144      D4504F4B 
 1144      C5505249 
 1144      4ED4504C 
 1145 01e5 414E444F 		.ascii	"ANDOMIZ\305I\306CL\323DRA\327CLEA\322RETUR\316COP\331"
 1145      4D495AC5 
 1145      49C6434C 
 1145      D3445241 
 1145      D7434C45 
 1146 0205 42485936 		.ascii	"BHY65TGVNJU74RFCMKI83EDX\016LO92WSZ \015P01QA\343\304"
 1146      35544756 
 1146      4E4A5537 
 1146      34524643 
 1146      4D4B4938 
 1147 022e E0E4B4BC 		.ascii	"\340\344\264\274\275\273\257\260\261\300\247\246\276"
 1147      BDBBAFB0 
ARM GAS  /tmp/cc4GLRty.s 			page 32


 1147      B1C0A7A6 
 1147      BE
 1148 023b ADB2BAE5 		.ascii	"\255\262\272\345\245\302\341\263\271\301\270~\334\332"
 1148      A5C2E1B3 
 1148      B9C1B87E 
 1148      DCDA
 1149 0249 5CB77B7D 		.ascii	"\\\267{}\330\277\256\252\253\335\336\337\177\265\326"
 1149      D8BFAEAA 
 1149      ABDDDEDF 
 1149      7FB5D6
 1150 0258 7CD55DDB 		.ascii	"|\325]\333\266\331[\327\014\007\006\004\005\010\012"
 1150      B6D95BD7 
 1150      0C070604 
 1150      05080A
 1151 0267 0B090FE2 		.ascii	"\013\011\017\342*?\315\310\314\313^\254-+=.,;\"\307"
 1151      2A3FCDC8 
 1151      CCCB5EAC 
 1151      2D2B3D2E 
 1151      2C3B22C7 
 1152 027b 3CC33EC5 		.ascii	"<\303>\305/\311`\306:\320\316\250\312\323\324\321\322"
 1152      2FC960C6 
 1152      3AD0CEA8 
 1152      CAD3D4D1 
 1152      D2
 1153 028c A9CF2E2F 		.ascii	"\251\317./\021\377\377\001\376\376\355x/\346\037(\016"
 1153      11FFFF01 
 1153      FEFEED78 
 1153      2FE61F28 
 1153      0E
 1154 029d 677D14C0 		.ascii	"g}\024\300\326\010\313<0\372S_ \364-\313\0008\346z<"
 1154      D608CB3C 
 1154      30FA535F 
 1154      20F42DCB 
 1154      0038E67A 
 1155 02b2 C8FE28C8 		.ascii	"\310\376(\310\376\031\310{ZW\376\030\311\315\216\002"
 1155      FE19C87B 
 1155      5A57FE18 
 1155      C9CD8E02 
 1156 02c2 C021005C 		.ascii	"\300!\000\\\313~ \007#5+ \0026\377}!\004\\\275 \356"
 1156      CB7E2007 
 1156      23352B20 
 1156      0236FF7D 
 1156      21045CBD 
 1157 02d8 CD1E03D0 		.ascii	"\315\036\003\320!\000\\\276(.\353!\004\\\276('\313~"
 1157      21005CBE 
 1157      282EEB21 
 1157      045CBE28 
 1157      27CB7E
 1158 02eb 2004EBCB 		.ascii	" \004\353\313~\310_w#6\005#:\011\\w#\375N\007\375V\001"
 1158      7EC85F77 
 1158      23360523 
 1158      3A095C77 
 1158      23FD4E07 
 1159 0302 E5CD3303 		.ascii	"\345\3153\003\341w2\010\\\375\313\001\356\311#6\005"
 1159      E1773208 
 1159      5CFDCB01 
 1159      EEC92336 
ARM GAS  /tmp/cc4GLRty.s 			page 33


 1159      05
 1160 0313 2335C03A 		.ascii	"#5\300:\012\\w#~\030\352B\026\000{\376'\320\376\030"
 1160      0A5C7723 
 1160      7E18EA42 
 1160      16007BFE 
 1160      27D0FE18 
 1161 0327 2003CB78 		.ascii	" \003\313x\300!\005\002\031~7\311{\376:8/\015\372O\003"
 1161      C0210502 
 1161      197E37C9 
 1161      7BFE3A38 
 1161      2F0DFA4F 
 1162 033c 2803C64F 		.ascii	"(\003\306O\311!\353\001\004(\003!\005\002\026\000\031"
 1162      C921EB01 
 1162      04280321 
 1162      05021600 
 1162      19
 1163 034d 7EC92129 		.ascii	"~\311!)\002\313@(\364\313Z(\012\375\3130^\300\004\300"
 1163      02CB4028 
 1163      F4CB5A28 
 1163      0AFDCB30 
 1163      5EC004C0 
 1164 0361 C620C9C6 		.ascii	"\306 \311\306\245\311\3760\330\015\372\235\003 \031"
 1164      A5C9FE30 
 1164      D80DFA9D 
 1164      032019
 1165 0370 215402CB 		.ascii	"!T\002\313h(\323\37680\007\326 \004\310\306\010\311"
 1165      6828D3FE 
 1165      383007D6 
 1165      2004C8C6 
 1165      08C9
 1166 0382 D63604C8 		.ascii	"\3266\004\310\306\376\311!0\002\3769(\272\3760(\266"
 1166      C6FEC921 
 1166      3002FE39 
 1166      28BAFE30 
 1166      28B6
 1167 0394 E607C680 		.ascii	"\346\007\306\200\004\310\356\017\311\004\310\313h!0"
 1167      04C8EE0F 
 1167      C904C8CB 
 1167      682130
 1168 03a3 0220A4D6 		.ascii	"\002 \244\326\020\376\"(\006\376 \300>_\311>@\311\363"
 1168      10FE2228 
 1168      06FE20C0 
 1168      3E5FC93E 
 1168      40C9F3
 1169 03b6 7DCB3DCB 		.ascii	"}\313=\313=/\346\003O\006\000\335!\321\003\335\011:"
 1169      3D2FE603 
 1169      4F0600DD 
 1169      21D103DD 
 1169      093A
 1170 03c8 485CE638 		.ascii	"H\\\3468\017\017\017\366\010\000\000\000\004\014\015"
 1170      0F0F0FF6 
 1170      08000000 
 1170      040C0D
 1171 03d7 20FD0E3F 		.ascii	" \375\016?\005\302\326\003\356\020\323\376DO\313g \011"
 1171      05C2D603 
 1171      EE10D3FE 
 1171      444FCB67 
ARM GAS  /tmp/cc4GLRty.s 			page 34


 1171      2009
 1172 03e9 7AB32809 		.ascii	"z\263(\011yM\033\335\351M\014\335\351\373\311\3571'"
 1172      794D1BDD 
 1172      E94D0CDD 
 1172      E9FBC9EF 
 1172      3127
 1173 03fb C00334EC 		.ascii	"\300\0034\354l\230\037\365\004\241\0178!\222\\~\247"
 1173      6C981FF5 
 1173      04A10F38 
 1173      21925C7E 
 1173      A7
 1174 040c 205E234E 		.ascii	" ^#N#Fx\027\237\271 T#\276 Px\306<\362%\004\342l\004"
 1174      23467817 
 1174      9FB92054 
 1174      23BE2050 
 1174      78C63CF2 
 1175 0425 06FA04D6 		.ascii	"\006\372\004\326\0140\373\306\014\305!n\004\315\006"
 1175      0C30FBC6 
 1175      0CC5216E 
 1175      04CD06
 1176 0434 34CDB433 		.ascii	"4\315\2643\357\0048\361\206w\357\300\00218\315\224\036"
 1176      EF0438F1 
 1176      8677EFC0 
 1176      023138CD 
 1176      941E
 1177 0446 FE0B3022 		.ascii	"\376\0130\"\357\340\004\3404\200CU\237\200\001\0054"
 1177      EFE004E0 
 1177      34804355 
 1177      9F800105 
 1177      34
 1178 0457 35710338 		.ascii	"5q\0038\315\231\036\305\315\231\036\341PYz\263\310\033"
 1178      CD991EC5 
 1178      CD991EE1 
 1178      50597AB3 
 1178      C81B
 1179 0469 C3B503CF 		.ascii	"\303\265\003\317\012\211\002\320\022\206\211\012\227"
 1179      0A8902D0 
 1179      1286890A 
 1179      97
 1180 0476 60758912 		.ascii	"`u\211\022\325\027\037\211\033\220A\002\211$\320S\312"
 1180      D5171F89 
 1180      1B904102 
 1180      8924D053 
 1180      CA
 1181 0487 892E9D36 		.ascii	"\211.\2356\261\2118\377I>\211C\377js\211O\247\000T\211"
 1181      B18938FF 
 1181      493E8943 
 1181      FF6A7389 
 1181      4FA70054 
 1182 049c 5C000000 		.ascii	"\\\000\000\000\211i\024\366$\211v\361\020\005\315\373"
 1182      896914F6 
 1182      248976F1 
 1182      1005CDFB 
 1183 04ac 243A3B5C 		.ascii	"$:;\\\207\372\212\034\341\320\345\315\361+bk\015\370"
 1183      87FA8A1C 
 1183      E1D0E5CD 
 1183      F12B626B 
ARM GAS  /tmp/cc4GLRty.s 			page 35


 1183      0DF8
 1184 04be 09CBFEC9 		.ascii	"\011\313\376\311!?\005\345!\200\037\313\177(\003!\230"
 1184      213F05E5 
 1184      21801FCB 
 1184      7F280321 
 1184      98
 1185 04cf 0C0813DD 		.ascii	"\014\010\023\335+\363>\002G\020\376\323\376\356\017"
 1185      2BF33E02 
 1185      4710FED3 
 1185      FEEE0F
 1186 04de 06A42D20 		.ascii	"\006\244- \365\005%\362\330\004\006/\020\376\323\376"
 1186      F50525F2 
 1186      D804062F 
 1186      10FED3FE 
 1187 04ee 3E0D0637 		.ascii	">\015\0067\020\376\323\376\001\016;\010o\303\007\005"
 1187      10FED3FE 
 1187      010E3B08 
 1187      6FC30705 
 1188 04fe 7AB3280C 		.ascii	"z\263(\014\335n\000|\255g>\0017\303%\005l\030\364y\313"
 1188      DD6E007C 
 1188      AD673E01 
 1188      37C32505 
 1188      6C18F479 
 1189 0513 7810FE30 		.ascii	"x\020\3760\004\006B\020\376\323\376\006> \357\005\257"
 1189      04064210 
 1189      FED3FE06 
 1189      3E20EF05 
 1189      AF
 1190 0524 3CCB15C2 		.ascii	"<\313\025\302\024\005\033\335#\0061>\177\333\376\037"
 1190      14051BDD 
 1190      2306313E 
 1190      7FDBFE1F 
 1191 0534 D07A3CC2 		.ascii	"\320z<\302\376\004\006;\020\376\311\365:H\\\3468\017"
 1191      FE04063B 
 1191      10FEC9F5 
 1191      3A485CE6 
 1191      380F
 1192 0546 0F0FD3FE 		.ascii	"\017\017\323\376>\177\333\376\037\3738\002\317\014\361"
 1192      3E7FDBFE 
 1192      1FFB3802 
 1192      CF0CF1
 1193 0555 C9140815 		.ascii	"\311\024\010\025\363>\017\323\376!?\005\345\333\376"
 1193      F33E0FD3 
 1193      FE213F05 
 1193      E5DBFE
 1194 0564 1FE620F6 		.ascii	"\037\346 \366\002O\277\300\315\347\0050\372!\025\004"
 1194      024FBFC0 
 1194      CDE70530 
 1194      FA211504 
 1195 0574 10FE2B7C 		.ascii	"\020\376+|\265 \371\315\343\0050\353\006\234\315\343"
 1195      B520F9CD 
 1195      E30530EB 
 1195      069CCDE3 
 1196 0584 0530E43E 		.ascii	"\0050\344>\306\2700\340$ \361\006\311\315\347\0050\325"
 1196      C6B830E0 
 1196      2420F106 
 1196      C9CDE705 
ARM GAS  /tmp/cc4GLRty.s 			page 36


 1196      30D5
 1197 0596 78FED430 		.ascii	"x\376\3240\364\315\347\005\320y\356\003O&\000\006\260"
 1197      F4CDE705 
 1197      D079EE03 
 1197      4F260006 
 1197      B0
 1198 05a7 181F0820 		.ascii	"\030\037\010 \0070\017\335u\000\030\017\313\021\255"
 1198      07300FDD 
 1198      7500180F 
 1198      CB11AD
 1199 05b6 C0791F4F 		.ascii	"\300y\037O\023\030\007\335~\000\255\300\335#\033\010"
 1199      131807DD 
 1199      7E00ADC0 
 1199      DD231B08 
 1200 05c6 06B22E01 		.ascii	"\006\262.\001\315\343\005\320>\313\270\313\025\006\260"
 1200      CDE305D0 
 1200      3ECBB8CB 
 1200      1506B0
 1201 05d5 D2CA057C 		.ascii	"\322\312\005|\255gz\263 \312|\376\001\311\315\347\005"
 1201      AD677AB3 
 1201      20CA7CFE 
 1201      01C9CDE7 
 1201      05
 1202 05e6 D03E163D 		.ascii	"\320>\026= \375\247\004\310>\177\333\376\037\320\251"
 1202      20FDA704 
 1202      C83E7FDB 
 1202      FE1FD0A9 
 1203 05f6 E62028F3 		.ascii	"\346 (\363y/O\346\007\366\010\323\3767\311\361:t\\\326"
 1203      792F4FE6 
 1203      07F608D3 
 1203      FE37C9F1 
 1203      3A745CD6 
 1204 060a E032745C 		.ascii	"\3402t\\\315\214\034\3150%(<\001\021\000:t\\\247(\002"
 1204      CD8C1CCD 
 1204      3025283C 
 1204      0111003A 
 1204      745CA728 
 1205 061f 0E22F7D5 		.ascii	"\016\"\367\325\335\341\006\013> \022\023\020\374\335"
 1205      DDE1060B 
 1205      3E201213 
 1205      10FCDD
 1206 062e 3601FFCD 		.ascii	"6\001\377\315\361+!\366\377\013\011\0030\017:t\\\247"
 1206      F12B21F6 
 1206      FF0B0903 
 1206      300F3A74 
 1206      5CA7
 1207 0640 2002CF0E 		.ascii	" \002\317\016x\261(\012\001\012\000\335\345\341#\353"
 1207      78B1280A 
 1207      010A00DD 
 1207      E5E123EB 
 1208 0650 EDB0DFFE 		.ascii	"\355\260\337\376\344 I:t\\\376\003\312\212\034\347\315"
 1208      E420493A 
 1208      745CFE03 
 1208      CA8A1CE7 
 1208      CD
 1209 0661 B228CBF9 		.ascii	"\262(\313\3710\013!\000\000:t\\=(\025\317\001\302\212"
 1209      300B2100 
ARM GAS  /tmp/cc4GLRty.s 			page 37


 1209      003A745C 
 1209      3D2815CF 
 1209      01C28A
 1210 0674 1CCD3025 		.ascii	"\034\3150%(\030#~\335w\013#~\335w\014#\335q\016>\001"
 1210      2818237E 
 1210      DD770B23 
 1210      7EDD770C 
 1210      23DD710E 
 1211 068a CB712801 		.ascii	"\313q(\001<\335w\000\353\347\376) \332\347\315\356\033"
 1211      3CDD7700 
 1211      EBE7FE29 
 1211      20DAE7CD 
 1211      EE1B
 1212 069c EBC35A07 		.ascii	"\353\303Z\007\376\252 \037:t\\\376\003\312\212\034\347"
 1212      FEAA201F 
 1212      3A745CFE 
 1212      03CA8A1C 
 1212      E7
 1213 06ad CDEE1BDD 		.ascii	"\315\356\033\3356\013\000\3356\014\033!\000@\335u\015"
 1213      360B00DD 
 1213      360C1B21 
 1213      0040DD75 
 1213      0D
 1214 06be DD740E18 		.ascii	"\335t\016\030M\376\257 O:t\\\376\003\312\212\034\347"
 1214      4DFEAF20 
 1214      4F3A745C 
 1214      FE03CA8A 
 1214      1CE7
 1215 06d0 CD482020 		.ascii	"\315H  \014:t\\\247\312\212\034\315\346\034\030\017"
 1215      0C3A745C 
 1215      A7CA8A1C 
 1215      CDE61C18 
 1215      0F
 1216 06e1 CD821CDF 		.ascii	"\315\202\034\337\376,(\014:t\\\247\312\212\034\315\346"
 1216      FE2C280C 
 1216      3A745CA7 
 1216      CA8A1CCD 
 1216      E6
 1217 06f2 1C1804E7 		.ascii	"\034\030\004\347\315\202\034\315\356\033\315\231\036"
 1217      CD821CCD 
 1217      EE1BCD99 
 1217      1E
 1218 06ff DD710BDD 		.ascii	"\335q\013\335p\014\315\231\036\335q\015\335p\016`i\335"
 1218      700CCD99 
 1218      1EDD710D 
 1218      DD700E60 
 1218      69DD
 1219 0711 36000318 		.ascii	"6\000\003\030D\376\312(\011\315\356\033\3356\016\200"
 1219      44FECA28 
 1219      09CDEE1B 
 1219      DD360E80 
 1220 0721 18173A74 		.ascii	"\030\027:t\\\247\302\212\034\347\315\202\034\315\356"
 1220      5CA7C28A 
 1220      1CE7CD82 
 1220      1CCDEE
 1221 0730 1BCD991E 		.ascii	"\033\315\231\036\335q\015\335p\016\3356\000\000*Y\\"
 1221      DD710DDD 
ARM GAS  /tmp/cc4GLRty.s 			page 38


 1221      700EDD36 
 1221      00002A59 
 1221      5C
 1222 0741 ED5B535C 		.ascii	"\355[S\\7\355R\335u\013\335t\014*K\\\355R\335u\017\335"
 1222      37ED52DD 
 1222      750BDD74 
 1222      0C2A4B5C 
 1222      ED52DD75 
 1223 0757 7410EB3A 		.ascii	"t\020\353:t\\\247\312p\011\345\001\021\000\335\011\335"
 1223      745CA7CA 
 1223      7009E501 
 1223      1100DD09 
 1223      DD
 1224 0768 E5111100 		.ascii	"\345\021\021\000\2577\315V\005\335\3410\362>\376\315"
 1224      AF37CD56 
 1224      05DDE130 
 1224      F23EFECD 
 1225 0778 0116FD36 		.ascii	"\001\026\3756R\003\016\200\335~\000\335\276\357 \002"
 1225      52030E80 
 1225      DD7E00DD 
 1225      BEEF2002 
 1226 0788 0EF6FE04 		.ascii	"\016\366\376\0040\331\021\300\011\305\315\012\014\301"
 1226      30D911C0 
 1226      09C5CD0A 
 1226      0CC1
 1227 0796 DDE5D121 		.ascii	"\335\345\321!\360\377\031\006\012~< \003y\200O\023\032"
 1227      F0FF1906 
 1227      0A7E3C20 
 1227      0379804F 
 1227      131A
 1228 07a8 BE232001 		.ascii	"\276# \001\014\327\020\366\313y \263>\015\327\341\335"
 1228      0CD710F6 
 1228      CB7920B3 
 1228      3E0DD7E1 
 1228      DD
 1229 07b9 7E00FE03 		.ascii	"~\000\376\003(\014:t\\=\312\010\010\376\002\312\266"
 1229      280C3A74 
 1229      5C3DCA08 
 1229      08FE02CA 
 1229      B6
 1230 07ca 08E5DD6E 		.ascii	"\010\345\335n\372\335"
 1230      FADD
 1231 07d0 66FBDD5E 		.ascii	"f\373\335^\013\335V\014|\265(\015\355R8&(\007\335~\000"
 1231      0BDD560C 
 1231      7CB5280D 
 1231      ED523826 
 1231      2807DD7E 
 1232 07e5 FE03201D 		.ascii	"\376\003 \035\341|\265 \006\335n\015\335f\016\345\335"
 1232      E17CB520 
 1232      06DD6E0D 
 1232      DD660EE5 
 1232      DD
 1233 07f6 E13A745C 		.ascii	"\341:t\\\376\0027 \001\247>\377\315V\005\330\317\032"
 1233      FE023720 
 1233      01A73EFF 
 1233      CD5605D8 
 1233      CF1A
ARM GAS  /tmp/cc4GLRty.s 			page 39


 1234 0808 DD5E0BDD 		.ascii	"\335^\013\335V\014\345|\265 \006\023\023\023\353\030"
 1234      560CE57C 
 1234      B5200613 
 1234      1313EB18 
 1235 0818 0CDD6EFA 		.ascii	"\014\335n\372\335f\373\3537\355R8\011\021\005\000\031"
 1235      DD66FBEB 
 1235      37ED5238 
 1235      09110500 
 1235      19
 1236 0829 444DCD05 		.ascii	"DM\315\005\037\341\335~\000\247(>|\265(\023+F+N+\003"
 1236      1FE1DD7E 
 1236      00A7283E 
 1236      7CB52813 
 1236      2B462B4E 
 1237 083f 0303DD22 		.ascii	"\003\003\335\"_\\\315\350\031\335*_\\*Y\\+\335N\013"
 1237      5F5CCDE8 
 1237      19DD2A5F 
 1237      5C2A595C 
 1237      2BDD4E0B 
 1238 0853 DD460CC5 		.ascii	"\335F\014\305\003\003\003\335~\375\365\315U\026#\361"
 1238      030303DD 
 1238      7EFDF5CD 
 1238      551623F1 
 1239 0863 77D12373 		.ascii	"w\321#s#r#\345\335\3417>\377\303\002\010\353*Y\\+\335"
 1239      237223E5 
 1239      DDE1373E 
 1239      FFC30208 
 1239      EB2A595C 
 1240 0879 225F5CDD 		.ascii	"\"_\\\335N\013\335F\014\305\315\345\031\301\345\305"
 1240      4E0BDD46 
 1240      0CC5CDE5 
 1240      19C1E5C5 
 1241 0889 CD5516DD 		.ascii	"\315U\026\335*_\\#\335N\017\335F\020\011\"K\\\335f\016"
 1241      2A5F5C23 
 1241      DD4E0FDD 
 1241      46100922 
 1241      4B5CDD66 
 1242 089e 7CE6C020 		.ascii	"|\346\300 \012\335n\015\"B\\\3756\012\000\321\335\341"
 1242      0ADD6E0D 
 1242      22425CFD 
 1242      360A00D1 
 1242      DDE1
 1243 08b0 373EFFC3 		.ascii	"7>\377\303\002\010\335N\013\335F\014\305\003\3676\200"
 1243      0208DD4E 
 1243      0BDD460C 
 1243      C503F736 
 1243      80
 1244 08c1 EBD1E5E5 		.ascii	"\353\321\345\345\335\3417>\377\315\002\010\341\355["
 1244      DDE1373E 
 1244      FFCD0208 
 1244      E1ED5B
 1245 08d0 535C7EE6 		.ascii	"S\\~\346\300 \031\032\023\276# \002\032\276\033+0\010"
 1245      C020191A 
 1245      13BE2320 
 1245      021ABE1B 
 1245      2B3008
 1246 08e3 E5EBCDB8 		.ascii	"\345\353\315\270\031\341\030\354\315,\011\030\342~O"
ARM GAS  /tmp/cc4GLRty.s 			page 40


 1246      19E118EC 
 1246      CD2C0918 
 1246      E27E4F
 1247 08f2 FE80C8E5 		.ascii	"\376\200\310\345*K\\~\376\200(%\271(\010\305\315\270"
 1247      2A4B5C7E 
 1247      FE802825 
 1247      B92808C5 
 1247      CDB8
 1248 0904 19C1EB18 		.ascii	"\031\301\353\030\360\346\340\376\240 \022\321\325\345"
 1248      F0E6E0FE 
 1248      A02012D1 
 1248      D5E5
 1249 0912 23131ABE 		.ascii	"#\023\032\276 \006\0270\367\341\030\003\341\030\340"
 1249      20061730 
 1249      F7E11803 
 1249      E118E0
 1250 0921 3EFFD1EB 		.ascii	">\377\321\353<7\315,\011\030\304 \020\010\"_\\\353\315"
 1250      3C37CD2C 
 1250      0918C420 
 1250      1008225F 
 1250      5CEBCD
 1251 0934 B819CDE8 		.ascii	"\270\031\315\350\031\353*_\\\010\010\325\315\270\031"
 1251      19EB2A5F 
 1251      5C0808D5 
 1251      CDB819
 1252 0943 225F5C2A 		.ascii	"\"_\\*S\\\343\305\0108\007+\315U\026#\030\003\315U\026"
 1252      535CE3C5 
 1252      0838072B 
 1252      CD551623 
 1252      1803CD55 
 1253 0958 23C1D1ED 		.ascii	"#\301\321\355SS\\\355[_\\\305\325\353\355\260\341\301"
 1253      53535CED 
 1253      5B5F5CC5 
 1253      D5EBEDB0 
 1253      E1C1
 1254 096a D5CDE819 		.ascii	"\325\315\350\031\321\311\345>\375\315\001\026\257\021"
 1254      D1C9E53E 
 1254      FDCD0116 
 1254      AF11
 1255 0978 A109CD0A 		.ascii	"\241\011\315\012\014\375\313\002\356\315\324\025\335"
 1255      0CFDCB02 
 1255      EECDD415 
 1255      DD
 1256 0985 E5111100 		.ascii	"\345\021\021\000\257\315\302\004\335\341\0062v\020\375"
 1256      AFCDC204 
 1256      DDE10632 
 1256      7610FD
 1257 0994 DD5E0BDD 		.ascii	"\335^\013\335V\014>\377\335\341\303\302\004\200Star"
 1257      560C3EFF 
 1257      DDE1C3C2 
 1257      04805374 
 1257      6172
 1258 09a6 74207461 		.ascii	"t tape, then press any key\256\015Program:\240\015N"
 1258      70652C20 
 1258      7468656E 
 1258      20707265 
 1258      73732061 
ARM GAS  /tmp/cc4GLRty.s 			page 41


 1259 09cd 756D6265 		.ascii	"umber array:\240\015Character array:\240\015Bytes:\240"
 1259      72206172 
 1259      7261793A 
 1259      A00D4368 
 1259      61726163 
 1260 09f4 CD030BFE 		.ascii	"\315\003\013\376 \322\331\012\376\0068i\376\0300e!\013"
 1260      20D2D90A 
 1260      FE063869 
 1260      FE183065 
 1260      210B
 1261 0a06 0A5F1600 		.ascii	"\012_\026\000\031^\031\345\303\003\013NW\020)TSR7PO"
 1261      195E19E5 
 1261      C3030B4E 
 1261      57102954 
 1261      53523750 
 1262 0a1b 5F5E5D5C 		.ascii	"_^]\\[ZTS\014>\"\271 \021\375\313\001N \011\004\016"
 1262      5B5A5453 
 1262      0C3E22B9 
 1262      2011FDCB 
 1262      014E2009 
 1263 0a31 023E18B8 		.ascii	"\002>\030\270 \003\005\016!\303\331\015:\221\\\365\375"
 1263      2003050E 
 1263      21C3D90D 
 1263      3A915CF5 
 1263      FD
 1264 0a42 3657013E 		.ascii	"6W\001> \315e\013\3612\221\\\311\375\313\001N\302\315"
 1264      20CD650B 
 1264      F132915C 
 1264      C9FDCB01 
 1264      4EC2CD
 1265 0a55 0E0E21CD 		.ascii	"\016\016!\315U\014\005\303\331\015\315\003\013y==\346"
 1265      550C05C3 
 1265      D90DCD03 
 1265      0B793D3D 
 1265      E6
 1266 0a66 10185A3E 		.ascii	"\020\030Z>?\030l\021\207\0122\017\\\030\013\021m\012"
 1266      3F186C11 
 1266      870A320F 
 1266      5C180B11 
 1266      6D0A
 1267 0a78 18031187 		.ascii	"\030\003\021\207\0122\016\\*Q\\s#r\311\021\364\011\315"
 1267      0A320E5C 
 1267      2A515C73 
 1267      2372C911 
 1267      F409CD
 1268 0a8b 800A2A0E 		.ascii	"\200\012*\016\\W}\376\026\332\021\" )DJ>\037\2218\014"
 1268      5C577DFE 
 1268      16DA1122 
 1268      2029444A 
 1268      3E1F9138 
 1269 0aa0 C6024FFD 		.ascii	"\306\002O\375\313\001N \026>\026\220\332\237\036<G\004"
 1269      CB014E20 
 1269      163E1690 
 1269      DA9F1E3C 
 1269      4704
 1270 0ab2 FDCB0246 		.ascii	"\375\313\002F\302U\014\375\2761\332\206\014\303\331"
 1270      C2550CFD 
ARM GAS  /tmp/cc4GLRty.s 			page 42


 1270      BE31DA86 
 1270      0CC3D9
 1271 0ac1 0D7CCD03 		.ascii	"\015|\315\003\013\201=\346\037\310W\375\313\001\306"
 1271      0B813DE6 
 1271      1FC857FD 
 1271      CB01C6
 1272 0ad0 3E20CD3B 		.ascii	"> \315;\014\025 \370\311\315$\013\375\313\001N \032"
 1272      0C1520F8 
 1272      C9CD240B 
 1272      FDCB014E 
 1272      201A
 1273 0ae2 FDCB0246 		.ascii	"\375\313\002F \010\355C\210\\\"\204\\\311\355C\212\\"
 1273      2008ED43 
 1273      885C2284 
 1273      5CC9ED43 
 1273      8A5C
 1274 0af4 ED43825C 		.ascii	"\355C\202\\\"\206\\\311\375qE\"\200\\\311\375\313\001"
 1274      22865CC9 
 1274      FD714522 
 1274      805CC9FD 
 1274      CB01
 1275 0b06 4E2014ED 		.ascii	"N \024\355K\210\\*\204\\\375\313\002F\310\355K\212\\"
 1275      4B885C2A 
 1275      845CFDCB 
 1275      0246C8ED 
 1275      4B8A5C
 1276 0b19 2A865CC9 		.ascii	"*\206\\\311\375NE*\200\\\311\376\2008=\376\2200&G\315"
 1276      FD4E452A 
 1276      805CC9FE 
 1276      80383DFE 
 1276      90302647 
 1277 0b2e 380BCD03 		.ascii	"8\013\315\003\013\021\222\\\030G!\222\\\315>\013\313"
 1277      0B11925C 
 1277      18472192 
 1277      5CCD3E0B 
 1277      CB
 1278 0b3f 189FE60F 		.ascii	"\030\237\346\017O\313\030\237\346\360\261\016\004w#"
 1278      4FCB189F 
 1278      E6F0B10E 
 1278      047723
 1279 0b4e 0D20FBC9 		.ascii	"\015 \373\311\326\2450\011\306\025\305\355K{\\\030\013"
 1279      D6A53009 
 1279      C615C5ED 
 1279      4B7B5C18 
 1279      0B
 1280 0b5f CD100CC3 		.ascii	"\315\020\014\303\003\013\305\355K6\\\353!;\\\313\206"
 1280      030BC5ED 
 1280      4B365CEB 
 1280      213B5CCB 
 1280      86
 1281 0b70 FE202002 		.ascii	"\376  \002\313\306&\000o)))\011\301\353y=>! \016\005"
 1281      CBC62600 
 1281      6F292929 
 1281      09C1EB79 
 1281      3D3E2120 
 1282 0b86 4FFDCB01 		.ascii	"O\375\313\001N(\006\325\315\315\016\321y\271\325\314"
 1282      4E2806D5 
ARM GAS  /tmp/cc4GLRty.s 			page 43


 1282      CDCD0ED1 
 1282      79B9D5CC 
 1283 0b96 550CD1C5 		.ascii	"U\014\321\305\345:\221\\\006\377\0378\001\004\037\037"
 1283      E53A915C 
 1283      06FF1F38 
 1283      01041F1F 
 1284 0ba6 9F4F3E08 		.ascii	"\237O>\010\247\375\313\001N(\005\375\3130\3167\353\010"
 1284      A7FDCB01 
 1284      4E2805FD 
 1284      CB30CE37 
 1284      EB08
 1285 0bb8 1AA0AEA9 		.ascii	"\032\240\256\251\022\0108\023\024#= \362\353%\375\313"
 1285      12083813 
 1285      14233D20 
 1285      F2EB25FD 
 1285      CB
 1286 0bc9 014ECCDB 		.ascii	"\001N\314\333\013\341\301\015#\311\010> \203_\010\030"
 1286      0BE1C10D 
 1286      23C9083E 
 1286      20835F08 
 1286      18
 1287 0bda E67C0F0F 		.ascii	"\346|\017\017\017\346\003\366Xg\355[\217\\~\253\242"
 1287      0FE603F6 
 1287      5867ED5B 
 1287      8F5C7EAB 
 1287      A2
 1288 0beb ABFDCB57 		.ascii	"\253\375\313Wv(\010\346\307\313W \002\3568\375\313W"
 1288      762808E6 
 1288      C7CB5720 
 1288      02EE38FD 
 1288      CB57
 1289 0bfd 662808E6 		.ascii	"f(\010\346\370\313o \002\356\007w\311\345&\000\343\030"
 1289      F8CB6F20 
 1289      02EE0777 
 1289      C9E52600 
 1289      E318
 1290 0c0f 04119500 		.ascii	"\004\021\225\000\365\315A\0148\011> \375\313\001F\314"
 1290      F5CD410C 
 1290      38093E20 
 1290      FDCB0146 
 1290      CC
 1291 0c20 3B0C1AE6 		.ascii	";\014\032\346\177\315;\014\032\023\2070\365\321\376"
 1291      7FCD3B0C 
 1291      1A138730 
 1291      F5D1FE
 1292 0c2f 482803FE 		.ascii	"H(\003\376\202\330z\376\003\330> \325\331\327\331\321"
 1292      82D87AFE 
 1292      03D83E20 
 1292      D5D9D7D9 
 1292      D1
 1293 0c40 C9F5EB3C 		.ascii	"\311\365\353<\313~#(\373= \370\353\361\376 \330\032"
 1293      CB7E2328 
 1293      FB3D20F8 
 1293      EBF1FE20 
 1293      D81A
 1294 0c52 D641C9FD 		.ascii	"\326A\311\375\313\001N\300\021\331\015\325x\375\313"
 1294      CB014EC0 
ARM GAS  /tmp/cc4GLRty.s 			page 44


 1294      11D90DD5 
 1294      78FDCB
 1295 0c61 0246C202 		.ascii	"\002F\302\002\015\375\27618\033\300\375\313\002f(\026"
 1295      0DFDBE31 
 1295      381BC0FD 
 1295      CB026628 
 1295      16
 1296 0c72 FD5E2D1D 		.ascii	"\375^-\035(Z>\000\315\001\026\355{?\\\375\313\002\246"
 1296      285A3E00 
 1296      CD0116ED 
 1296      7B3F5CFD 
 1296      CB02A6
 1297 0c85 C9CF04FD 		.ascii	"\311\317\004\3755R E>\030\2202\214\\*\217\\\345:\221"
 1297      35522045 
 1297      3E189032 
 1297      8C5C2A8F 
 1297      5CE53A91 
 1298 0c99 5CF53EFD 		.ascii	"\\\365>\375\315\001\026\257\021\370\014\315\012\014"
 1298      CD0116AF 
 1298      11F80CCD 
 1298      0A0C
 1299 0ca7 FDCB02EE 		.ascii	"\375\313\002\356!;\\\313\336\313\256\331\315\324\025"
 1299      213B5CCB 
 1299      DECBAED9 
 1299      CDD415
 1300 0cb6 D9FE2028 		.ascii	"\331\376 (E\376\342(A\366 \376n(;>\376\315\001\026\361"
 1300      45FEE228 
 1300      41F620FE 
 1300      6E283B3E 
 1300      FECD0116 
 1301 0ccb 32915CE1 		.ascii	"2\221\\\341\"\217\\\315\376\015\375F1\004\016!\305\315"
 1301      228F5CCD 
 1301      FE0DFD46 
 1301      31040E21 
 1301      C5CD
 1302 0cdd 9B0E7C0F 		.ascii	"\233\016|\017\017\017\346\003\366Xg\021\340Z\032N\006"
 1302      0F0FE603 
 1302      F6586711 
 1302      E05A1A4E 
 1302      06
 1303 0cee 20EB1271 		.ascii	" \353\022q\023#\020\372\301\311\200scroll\277\317\014"
 1303      132310FA 
 1303      C1C98073 
 1303      63726F6C 
 1303      6CBFCF0C 
 1304 0d02 FE023880 		.ascii	"\376\0028\200\375\2061\326\031\320\355D\305G*\217\\"
 1304      FD8631D6 
 1304      19D0ED44 
 1304      C5472A8F 
 1304      5C
 1305 0d13 E52A915C 		.ascii	"\345*\221\\\345\315M\015x\365!k\\Fx<w!\211\\\2768\003"
 1305      E5CD4D0D 
 1305      78F5216B 
 1305      5C46783C 
 1305      7721895C 
 1306 0d2a 340618CD 		.ascii	"4\006\030\315\000\016\361= \350\341\375uW\341\"\217"
 1306      000EF13D 
ARM GAS  /tmp/cc4GLRty.s 			page 45


 1306      20E8E1FD 
 1306      7557E122 
 1306      8F
 1307 0d3b 5CED4B88 		.ascii	"\\\355K\210\\\375\313\002\206\315\331\015\375\313\002"
 1307      5CFDCB02 
 1307      86CDD90D 
 1307      FDCB02
 1308 0d4a C6C1C9AF 		.ascii	"\306\301\311\257*\215\\\375\313\002F(\004g\375n\016"
 1308      2A8D5CFD 
 1308      CB024628 
 1308      0467FD6E 
 1308      0E
 1309 0d5b 228F5C21 		.ascii	"\"\217\\!\221\\ \002~\017\256\346U\256w\311\315\257"
 1309      915C2002 
 1309      7E0FAEE6 
 1309      55AE77C9 
 1309      CDAF
 1310 0d6d 0D213C5C 		.ascii	"\015!<\\\313\256\313\306\315M\015\375F1\315D\016!\300"
 1310      CBAECBC6 
 1310      CD4D0DFD 
 1310      4631CD44 
 1310      0E21C0
 1311 0d80 5A3A8D5C 		.ascii	"Z:\215\\\005\030\007\016 +w\015 \373\020\367\37561\002"
 1311      0518070E 
 1311      202B770D 
 1311      20FB10F7 
 1311      FD363102 
 1312 0d94 3EFDCD01 		.ascii	">\375\315\001\026*Q\\\021\364\011\247s#r#\021\250\020"
 1312      162A515C 
 1312      11F409A7 
 1312      73237223 
 1312      11A810
 1313 0da7 3F38F601 		.ascii	"?8\366\001!\027\030*!\000\000\"}\\\375\3130\206\315"
 1313      2117182A 
 1313      21000022 
 1313      7D5CFDCB 
 1313      3086CD
 1314 0dba 940D3EFE 		.ascii	"\224\015>\376\315\001\026\315M\015\006\030\315D\016"
 1314      CD0116CD 
 1314      4D0D0618 
 1314      CD440E
 1315 0dc9 2A515C11 		.ascii	"*Q\\\021\364\011s#r\3756R\001\001!\030!\000[\375\313"
 1315      F4097323 
 1315      72FD3652 
 1315      01012118 
 1315      21005BFD 
 1316 0dde 014E2012 		.ascii	"\001N \022x\375\313\002F(\005\375\2061\326\030\305G"
 1316      78FDCB02 
 1316      462805FD 
 1316      8631D618 
 1316      C547
 1317 0df0 CD9B0EC1 		.ascii	"\315\233\016\301>!\221_\026\000\031\303\334\012\006"
 1317      3E21915F 
 1317      160019C3 
 1317      DC0A06
 1318 0dff 17CD9B0E 		.ascii	"\027\315\233\016\016\010\305\345x\346\007x \014\353"
 1318      0E08C5E5 
ARM GAS  /tmp/cc4GLRty.s 			page 46


 1318      78E60778 
 1318      200CEB
 1319 0e0e 21E0F819 		.ascii	"!\340\370\031\353\001 \000=\355\260\353!\340\377\031"
 1319      EB012000 
 1319      3DEDB0EB 
 1319      21E0FF19 
 1320 0e1e EB47E607 		.ascii	"\353G\346\007\017\017\017Ox\006\000\355\260\006\007"
 1320      0F0F0F4F 
 1320      780600ED 
 1320      B00607
 1321 0e2d 09E6F820 		.ascii	"\011\346\370 \333\341$\301\015 \315\315\210\016!\340"
 1321      DBE124C1 
 1321      0D20CDCD 
 1321      880E21E0 
 1322 0e3d FF19EBED 		.ascii	"\377\031\353\355\260\006\001\305\315\233\016\016\010"
 1322      B00601C5 
 1322      CD9B0E0E 
 1322      08
 1323 0e4a C5E578E6 		.ascii	"\305\345x\346\007\017\017\017Ox\006\000\015T]6\000\023"
 1323      070F0F0F 
 1323      4F780600 
 1323      0D545D36 
 1323      0013
 1324 0e5c EDB01101 		.ascii	"\355\260\021\001\007\031=\346\370G \345\341$\301\015"
 1324      07193DE6 
 1324      F84720E5 
 1324      E124C10D 
 1325 0e6c 20DCCD88 		.ascii	" \334\315\210\016bk\023:\215\\\375\313\002F(\003:H\\"
 1325      0E626B13 
 1325      3A8D5CFD 
 1325      CB024628 
 1325      033A485C 
 1326 0e80 770BEDB0 		.ascii	"w\013\355\260\301\016!\311|\017\017\017=\366Pg\353a"
 1326      C10E21C9 
 1326      7C0F0F0F 
 1326      3DF65067 
 1326      EB61
 1327 0e92 68292929 		.ascii	"h)))))DM\311>\030\220W\017\017\017\346\340oz\346\030"
 1327      2929444D 
 1327      C93E1890 
 1327      570F0F0F 
 1327      E6E06F7A 
 1328 0ea8 F64067C9 		.ascii	"\366@g\311\363\006\260!\000@\345\305\315\364\016\301"
 1328      F306B021 
 1328      0040E5C5 
 1328      CDF40EC1 
 1329 0eb8 E1247CE6 		.ascii	"\341$|\346\007 \012}\306 o?\237\346\370\204g\020\347"
 1329      07200A7D 
 1329      C6206F3F 
 1329      9FE6F884 
 1329      6710E7
 1330 0ecb 180DF321 		.ascii	"\030\015\363!\000[\006\010\305\315\364\016\301\020\371"
 1330      005B0608 
 1330      C5CDF40E 
 1330      C110F9
 1331 0eda 3E04D3FB 		.ascii	">\004\323\373\373!\000[\375uF\257Gw#\020\374\375\313"
 1331      FB21005B 
ARM GAS  /tmp/cc4GLRty.s 			page 47


 1331      FD7546AF 
 1331      47772310 
 1331      FCFDCB
 1332 0eed 308E0E21 		.ascii	"0\216\016!\303\331\015x\376\003\237\346\002\323\373"
 1332      C3D90D78 
 1332      FE039FE6 
 1332      02D3FB
 1333 0efc 57CD541F 		.ascii	"W\315T\0378\012>\004\323\373\373\315\337\016\317\014"
 1333      380A3E04 
 1333      D3FBFBCD 
 1333      DF0ECF0C 
 1334 0f0c DBFB87F8 		.ascii	"\333\373\207\3700\353\016 ^#\006\010\313\022\313\023"
 1334      30EB0E20 
 1334      5E230608 
 1334      CB12CB13 
 1335 0f1c CB1ADBFB 		.ascii	"\313\032\333\373\0370\373z\323\373\020\360\015 \351"
 1335      1F30FB7A 
 1335      D3FB10F0 
 1335      0D20E9
 1336 0f2b C92A3D5C 		.ascii	"\311*=\\\345!\177\020\345\355s=\\\315\324\025\365\026"
 1336      E5217F10 
 1336      E5ED733D 
 1336      5CCDD415 
 1336      F516
 1337 0f3d 00FD5EFF 		.ascii	"\000\375^\377!\310\000\315\265\003\361!8\017\345\376"
 1337      21C800CD 
 1337      B503F121 
 1337      380FE5FE 
 1338 0f4d 183031FE 		.ascii	"\03001\376\0078-\376\0208:\001\002\000W\376\0268\014"
 1338      07382DFE 
 1338      10383A01 
 1338      020057FE 
 1338      16380C
 1339 0f60 03FDCB37 		.ascii	"\003\375\3137~\312\036\020\315\324\025_\315\324\025"
 1339      7ECA1E10 
 1339      CDD4155F 
 1339      CDD415
 1340 0f6f D52A5B5C 		.ascii	"\325*[\\\375\313\007\206\315U\026\301#p#q\030\012\375"
 1340      FDCB0786 
 1340      CD5516C1 
 1340      23702371 
 1340      180AFD
 1341 0f82 CB07862A 		.ascii	"\313\007\206*[\\\315R\026\022\023\355S[\\\311_\026\000"
 1341      5B5CCD52 
 1341      161213ED 
 1341      535B5CC9 
 1341      5F1600
 1342 0f95 21990F19 		.ascii	"!\231\017\031^\031\345*[\\\311"
 1342      5E19E52A 
 1342      5B5CC9
 1343 0fa0 09666A50 		.ascii	"\011fjP\265p~\317\324*I\\\375\3137n\302\227\020\315"
 1343      B5707ECF 
 1343      D42A495C 
 1343      FDCB376E 
 1343      C29710CD 
 1344 0fb4 6E19CD95 		.ascii	"n\031\315\225\026z\263\312\227\020\345#N#F!\012\000"
 1344      167AB3CA 
ARM GAS  /tmp/cc4GLRty.s 			page 48


 1344      9710E523 
 1344      4E234621 
 1344      0A00
 1345 0fc6 09444DCD 		.ascii	"\011DM\315\005\037\315\227\020*Q\\\343\345>\377\315"
 1345      051FCD97 
 1345      102A515C 
 1345      E3E53EFF 
 1345      CD
 1346 0fd7 0116E12B 		.ascii	"\001\026\341+\3755\017\315U\030\3754\017*Y\\####\"["
 1346      FD350FCD 
 1346      5518FD34 
 1346      0F2A595C 
 1346      23232323 
 1347 0fed 5CE1CD15 		.ascii	"\\\341\315\025\026\311\375\3137n \010!I\\\315\017\031"
 1347      16C9FDCB 
 1347      376E2008 
 1347      21495CCD 
 1347      0F19
 1348 0fff 186DFD36 		.ascii	"\030m\3756\000\020\030\035\3151\020\030\005~\376\015"
 1348      0010181D 
 1348      CD311018 
 1348      057EFE0D 
 1349 100f C823225B 		.ascii	"\310#\"[\\\311\3151\020\001\001\000\303\350\031\315"
 1349      5CC9CD31 
 1349      10010100 
 1349      C3E819CD 
 1350 101f D415CDD4 		.ascii	"\324\025\315\324\025\341\341\341\"=\\\375\313\000~\300"
 1350      15E1E1E1 
 1350      223D5CFD 
 1350      CB007EC0 
 1351 102f F9C937CD 		.ascii	"\371\3117\315\225\021\355R\031#\301\330\305DMbk#\032"
 1351      9511ED52 
 1351      1923C1D8 
 1351      C5444D62 
 1351      6B231A
 1352 1042 E6F0FE10 		.ascii	"\346\360\376\020 \011#\032\326\027\316\000 \001#\247"
 1352      2009231A 
 1352      D617CE00 
 1352      200123A7 
 1353 1052 ED4209EB 		.ascii	"\355B\011\3538\346\311\375\3137n\300*I\\\315n\031\353"
 1353      38E6C9FD 
 1353      CB376EC0 
 1353      2A495CCD 
 1353      6E19EB
 1354 1065 CD951621 		.ascii	"\315\225\026!J\\\315\034\031\315\225\027>\000\303\001"
 1354      4A5CCD1C 
 1354      19CD9517 
 1354      3E00C301 
 1355 1075 16FDCB37 		.ascii	"\026\375\3137~(\250\303\201\017\375\3130f(\241\3756"
 1355      7E28A8C3 
 1355      810FFDCB 
 1355      306628A1 
 1355      FD36
 1356 1087 00FF1600 		.ascii	"\000\377\026\000\375^\376!\220\032\315\265\003\3030"
 1356      FD5EFE21 
 1356      901ACDB5 
 1356      03C330
ARM GAS  /tmp/cc4GLRty.s 			page 49


 1357 1096 0FE5CD90 		.ascii	"\017\345\315\220\021+\315\345\031\"[\\\3756\007\000"
 1357      112BCDE5 
 1357      19225B5C 
 1357      FD360700 
 1358 10a6 E1C9FDCB 		.ascii	"\341\311\375\313\002^\304\035\021\247\375\313\001n\310"
 1358      025EC41D 
 1358      11A7FDCB 
 1358      016EC8
 1359 10b5 3A085CFD 		.ascii	":\010\\\375\313\001\256\365\375\313\002n\304n\015\361"
 1359      CB01AEF5 
 1359      FDCB026E 
 1359      C46E0DF1 
 1360 10c5 FE203052 		.ascii	"\376 0R\376\0200-\376\0060\012G\346\001Ox\037\306\022"
 1360      FE10302D 
 1360      FE06300A 
 1360      47E6014F 
 1360      781FC612 
 1361 10d9 182A2009 		.ascii	"\030* \011!j\\>\010\256w\030\016\376\016\330\326\015"
 1361      216A5C3E 
 1361      08AE7718 
 1361      0EFE0ED8 
 1361      D60D
 1362 10eb 21415CBE 		.ascii	"!A\\\276w \0026\000\375\313\002\336\277\311G\346\007"
 1362      77200236 
 1362      00FDCB02 
 1362      DEBFC947 
 1362      E607
 1363 10fd 4F3E10CB 		.ascii	"O>\020\313X \001<\375q\323\021\015\021\030\006:\015"
 1363      5820013C 
 1363      FD71D311 
 1363      0D111806 
 1363      3A0D
 1364 110f 5C11A810 		.ascii	"\\\021\250\020*O\\##s#r7\311\315M\015\375\313\002\236"
 1364      2A4F5C23 
 1364      23732372 
 1364      37C9CD4D 
 1364      0DFDCB02 
 1365 1124 FDCB02AE 		.ascii	"\375\313\002\256*\212\\\345*=\\\345!g\021\345\355s="
 1365      2A8A5CE5 
 1365      2A3D5CE5 
 1365      216711E5 
 1365      ED733D
 1366 1137 5C2A825C 		.ascii	"\\*\202\\\3457\315\225\021\353\315}\030\353\315\341"
 1366      E537CD95 
 1366      11EBCD7D 
 1366      18EBCDE1 
 1367 1147 182A8A5C 		.ascii	"\030*\212\\\343\353\315M\015:\213\\\2228& \006{\375"
 1367      E3EBCD4D 
 1367      0D3A8B5C 
 1367      92382620 
 1367      067BFD
 1368 115a 9650301E 		.ascii	"\226P0\036> \325\315\364\011\321\030\351\026\000\375"
 1368      3E20D5CD 
 1368      F409D118 
 1368      E91600FD 
 1369 116a 5EFE2190 		.ascii	"^\376!\220\032\315\265\003\3756\000\377\355[\212\\\030"
 1369      1ACDB503 
ARM GAS  /tmp/cc4GLRty.s 			page 50


 1369      FD3600FF 
 1369      ED5B8A5C 
 1369      18
 1370 117b 02D1E1E1 		.ascii	"\002\321\341\341\"=\\\301\325\315\331\015\341\"\202"
 1370      223D5CC1 
 1370      D5CDD90D 
 1370      E12282
 1371 118a 5CFD3626 		.ascii	"\\\3756&\000\311*a\\+\247\355[Y\\\375\3137n\310\355"
 1371      00C92A61 
 1371      5C2BA7ED 
 1371      5B595CFD 
 1371      CB376EC8 
 1372 119f 5B615CD8 		.ascii	"[a\\\330*c\\\311~\376\016\001\006\000\314\350\031~#"
 1372      2A635CC9 
 1372      7EFE0E01 
 1372      0600CCE8 
 1372      197E23
 1373 11b2 FE0D20F1 		.ascii	"\376\015 \361\311\363>\377\355[\262\\\331\355K\264\\"
 1373      C9F33EFF 
 1373      ED5BB25C 
 1373      D9ED4BB4 
 1373      5C
 1374 11c3 ED5B385C 		.ascii	"\355[8\\*{\\\331G>\007\323\376>?\355G\000\000\000\000"
 1374      2A7B5CD9 
 1374      473E07D3 
 1374      FE3E3FED 
 1374      47000000 
 1375 11d8 0000626B 		.ascii	"\000\000bk6\002+\274 \372\247\355R\031#0\0065(\0035"
 1375      36022BBC 
 1375      20FAA7ED 
 1375      52192330 
 1375      06352803 
 1376 11ed 28F32BD9 		.ascii	"(\363+\331\355C\264\\\355S8\\\"{\\\331\004(\031\"\264"
 1376      ED43B45C 
 1376      ED53385C 
 1376      227B5CD9 
 1376      04281922 
 1377 1202 5C11AF3E 		.ascii	"\\\021\257>\001\250\000\353\355\270\353#\"{\\+\001@"
 1377      01A800EB 
 1377      EDB8EB23 
 1377      227B5C2B 
 1377      0140
 1378 1214 00ED4338 		.ascii	"\000\355C8\\\"\262\\!\000<\"6\\*\262\\6>+\371++\"=\\"
 1378      5C22B25C 
 1378      21003C22 
 1378      365C2AB2 
 1378      5C363E2B 
 1379 122e ED56FD21 		.ascii	"\355V\375!:\\\373!\266\\\"O\\\021\257\025\001\025\000"
 1379      3A5CFB21 
 1379      B65C224F 
 1379      5C11AF15 
 1379      011500
 1380 1241 EBEDB0EB 		.ascii	"\353\355\260\353+\"W\\#\"S\\\"K\\6\200#\"Y\\6\015#6"
 1380      2B22575C 
 1380      2322535C 
 1380      224B5C36 
 1380      80232259 
ARM GAS  /tmp/cc4GLRty.s 			page 51


 1381 125a 80232261 		.ascii	"\200#\"a\\\"c\\\"e\\>82\215\\2\217\\2H\\!#\005\"\011"
 1381      5C22635C 
 1381      22655C3E 
 1381      38328D5C 
 1381      328F5C32 
 1382 1275 5CFD35C6 		.ascii	"\\\3755\306\3755\312!\306\025\021\020\\\001\016\000"
 1382      FD35CA21 
 1382      C6151110 
 1382      5C010E00 
 1383 1285 EDB0FDCB 		.ascii	"\355\260\375\313\001\316\315\337\016\37561\002\315k"
 1383      01CECDDF 
 1383      0EFD3631 
 1383      02CD6B
 1384 1294 0DAF1138 		.ascii	"\015\257\0218\025\315\012\014\375\313\002\356\030\007"
 1384      15CD0A0C 
 1384      FDCB02EE 
 1384      1807
 1385 12a2 FD363102 		.ascii	"\37561\002\315\225\027\315\260\026>\000\315\001\026"
 1385      CD9517CD 
 1385      B0163E00 
 1385      CD0116
 1386 12b1 CD2C0FCD 		.ascii	"\315,\017\315\027\033\375\313\000~ \022\375\3130f(@"
 1386      171BFDCB 
 1386      007E2012 
 1386      FDCB3066 
 1386      2840
 1387 12c3 2A595CCD 		.ascii	"*Y\\\315\247\021\3756\000\377\030\335*Y\\\"]\\\315\373"
 1387      A711FD36 
 1387      00FF18DD 
 1387      2A595C22 
 1387      5D5CCDFB 
 1388 12d7 1978B1C2 		.ascii	"\031x\261\302]\025\337\376\015(\300\375\3130F\304\257"
 1388      5D15DFFE 
 1388      0D28C0FD 
 1388      CB3046C4 
 1388      AF
 1389 12e8 0DCD6E0D 		.ascii	"\015\315n\015>\031\375\226O2\214\\\375\313\001\376\375"
 1389      3E19FD96 
 1389      4F328C5C 
 1389      FDCB01FE 
 1389      FD
 1390 12f9 3600FFFD 		.ascii	"6\000\377\3756\012\001\315\212\033v\375\313\001\256"
 1390      360A01CD 
 1390      8A1B76FD 
 1390      CB01AE
 1391 1308 FDCB304E 		.ascii	"\375\3130N\304\315\016::\\<\365!\000\000\375t7\375t"
 1391      C4CD0E3A 
 1391      3A5C3CF5 
 1391      210000FD 
 1391      7437FD74 
 1392 131c 26220B5C 		.ascii	"&\"\013\\!\001\000\"\026\\\315\260\026\375\3137\256"
 1392      21010022 
 1392      165CCDB0 
 1392      16FDCB37 
 1392      AE
 1393 132d CD6E0DFD 		.ascii	"\315n\015\375\313\002\356\361G\376\0128\002\306\007"
 1393      CB02EEF1 
ARM GAS  /tmp/cc4GLRty.s 			page 52


 1393      47FE0A38 
 1393      02C607
 1394 133c CDEF153E 		.ascii	"\315\357\025> \327x\021\221\023\315\012\014\257\021"
 1394      20D77811 
 1394      9113CD0A 
 1394      0CAF11
 1395 134b 3615CD0A 		.ascii	"6\025\315\012\014\355KE\\\315\033\032>:\327\375N\015"
 1395      0CED4B45 
 1395      5CCD1B1A 
 1395      3E3AD7FD 
 1395      4E0D
 1396 135d 0600CD1B 		.ascii	"\006\000\315\033\032\315\227\020::\\<(\033\376\011("
 1396      1ACD9710 
 1396      3A3A5C3C 
 1396      281BFE09 
 1396      28
 1397 136e 04FE1520 		.ascii	"\004\376\025 \003\3754\015\001\003\000\021p\\!D\\\313"
 1397      03FD340D 
 1397      01030011 
 1397      705C2144 
 1397      5CCB
 1398 1380 7E280109 		.ascii	"~(\001\011\355\270\3756\012\377\375\313\001\236\303"
 1398      EDB8FD36 
 1398      0AFFFDCB 
 1398      019EC3
 1399 138f AC12804F 		.ascii	"\254\022\200O\313NEXT without FO\322Variable not fo"
 1399      CB4E4558 
 1399      54207769 
 1399      74686F75 
 1399      7420464F 
 1400 13b3 756EE453 		.ascii	"un\344Subscript wron\347Out of memor\371Out of scre"
 1400      75627363 
 1400      72697074 
 1400      2077726F 
 1400      6EE74F75 
 1401 13dd 65EE4E75 		.ascii	"e\356Number too bi\347RETURN without GOSU\302End of"
 1401      6D626572 
 1401      20746F6F 
 1401      206269E7 
 1401      52455455 
 1402 1407 2066696C 		.ascii	" fil\345STOP statemen\364Invalid argumen\364Integer"
 1402      E553544F 
 1402      50207374 
 1402      6174656D 
 1402      656EF449 
 1403 1431 206F7574 		.ascii	" out of rang\345Nonsense in BASI\303BREAK - CONT re"
 1403      206F6620 
 1403      72616E67 
 1403      E54E6F6E 
 1403      73656E73 
 1404 145e 70656174 		.ascii	"peat\363Out of DAT\301Invalid file nam\345No room f"
 1404      F34F7574 
 1404      206F6620 
 1404      444154C1 
 1404      496E7661 
 1405 1488 6F72206C 		.ascii	"or lin\345STOP in INPU\324FOR without NEX\324Invali"
 1405      696EE553 
ARM GAS  /tmp/cc4GLRty.s 			page 53


 1405      544F5020 
 1405      696E2049 
 1405      4E5055D4 
 1406 14b2 6420492F 		.ascii	"d I/O devic\345Invalid colou\362BREAK into progra\355"
 1406      4F206465 
 1406      766963E5 
 1406      496E7661 
 1406      6C696420 
 1407 14de 52414D54 		.ascii	"RAMTOP no goo\344Statement los\364Invalid strea\355"
 1407      4F50206E 
 1407      6F20676F 
 1407      6FE45374 
 1407      6174656D 
 1408 1508 464E2077 		.ascii	"FN without DE\306Parameter erro\362Tape loading err"
 1408      6974686F 
 1408      75742044 
 1408      45C65061 
 1408      72616D65 
 1409 1535 6FF22CA0 		.ascii	"o\362,\240\177 1982 Sinclair Research Lt\344>\020\001"
 1409      7F203139 
 1409      38322053 
 1409      696E636C 
 1409      61697220 
 1410 1558 0000C313 		.ascii	"\000\000\303\023\023\355CI\\*]\\\353!U\025\345*a\\7"
 1410      13ED4349 
 1410      5C2A5D5C 
 1410      EB215515 
 1410      E52A615C 
 1411 156d ED52E560 		.ascii	"\355R\345`i\315n\031 \006\315\270\031\315\350\031\301"
 1411      69CD6E19 
 1411      2006CDB8 
 1411      19CDE819 
 1411      C1
 1412 157e 793DB028 		.ascii	"y=\260((\305\003\003\003\003+\355[S\\\325\315U\026\341"
 1412      28C50303 
 1412      03032BED 
 1412      5B535CD5 
 1412      CD5516E1 
 1413 1592 22535CC1 		.ascii	"\"S\\\301\305\023*a\\++\355\270*I\\\353\301p+q+s+r\361"
 1413      C5132A61 
 1413      5C2B2BED 
 1413      B82A495C 
 1413      EBC1702B 
 1414 15ac C3A212F4 		.ascii	"\303\242\022\364\011\250\020K\364\011\304\025S\201\017"
 1414      09A8104B 
 1414      F409C415 
 1414      53810F
 1415 15bb C41552F4 		.ascii	"\304\025R\364\011\304\025P\200\317\022\001\000\006\000"
 1415      09C41550 
 1415      80CF1201 
 1415      000600
 1416 15ca 0B000100 		.ascii	"\013\000\001\000\001\000\006\000\020\000\375\313\002"
 1416      01000600 
 1416      1000FDCB 
 1416      02
 1417 15d7 6E2004FD 		.ascii	"n \004\375\313\002\336\315\346\025\330(\372\317\007"
 1417      CB02DECD 
ARM GAS  /tmp/cc4GLRty.s 			page 54


 1417      E615D828 
 1417      FACF07
 1418 15e6 D9E52A51 		.ascii	"\331\345*Q\\##\030\010\0360\203\331\345*Q\\^#V\353\315"
 1418      5C232318 
 1418      081E3083 
 1418      D9E52A51 
 1418      5C5E2356 
 1419 15fc 2C16E1D9 		.ascii	",\026\341\331\311\207\306\026o&\\^#Vz\263 \002\317\027"
 1419      C987C616 
 1419      6F265C5E 
 1419      23567AB3 
 1419      2002CF17 
 1420 1610 1B2A4F5C 		.ascii	"\033*O\\\031\"Q\\\375\3130\246####N!-\026\315\334\026"
 1420      1922515C 
 1420      FDCB30A6 
 1420      23232323 
 1420      4E212D16 
 1421 1627 D016005E 		.ascii	"\320\026\000^\031\351K\006S\022P\033\000\375\313\002"
 1421      19E94B06 
 1421      5312501B 
 1421      00FDCB02 
 1422 1637 C6FDCB01 		.ascii	"\306\375\313\001\256\375\3130\346\030\004\375\313\002"
 1422      AEFDCB30 
 1422      E61804FD 
 1422      CB02
 1423 1645 86FDCB01 		.ascii	"\206\375\313\001\216\303M\015\375\313\001\316\311\001"
 1423      8EC34D0D 
 1423      FDCB01CE 
 1423      C901
 1424 1653 0100E5CD 		.ascii	"\001\000\345\315\005\037\341\315d\026*e\\\353\355\270"
 1424      051FE1CD 
 1424      64162A65 
 1424      5CEBEDB8 
 1425 1663 C9F5E521 		.ascii	"\311\365\345!K\\>\016^#V\343\247\355R\031\3430\011\325"
 1425      4B5C3E0E 
 1425      5E2356E3 
 1425      A7ED5219 
 1425      E33009D5 
 1426 1677 EB09EB72 		.ascii	"\353\011\353r+s#\321#= \350\353\321\361\247\355RDM\003"
 1426      2B7323D1 
 1426      233D20E8 
 1426      EBD1F1A7 
 1426      ED52444D 
 1427 168c 19EBC900 		.ascii	"\031\353\311\000\000\353\021\217\026~\346\300 \367V"
 1427      00EB118F 
 1427      167EE6C0 
 1427      20F756
 1428 169b 235EC92A 		.ascii	"#^\311*c\\+\315U\026##\301\355Ca\\\301\353#\311*Y\\"
 1428      635C2BCD 
 1428      55162323 
 1428      C1ED4361 
 1428      5CC1EB23 
 1429 16b3 360D225B 		.ascii	"6\015\"[\\#6\200#\"a\\*a\\\"c\\*c\\\"e\\\345!\222\\"
 1429      5C233680 
 1429      2322615C 
 1429      2A615C22 
 1429      635C2A63 
ARM GAS  /tmp/cc4GLRty.s 			page 55


 1430 16cf 22685CE1 		.ascii	"\"h\\\341\311\355[Y\\\303\345\031#~\247\310\271# \370"
 1430      C9ED5B59 
 1430      5CC3E519 
 1430      237EA7C8 
 1430      B92320F8 
 1431 16e3 37C9CD1E 		.ascii	"7\311\315\036\027\315\001\027\001\000\000\021\342\243"
 1431      17CD0117 
 1431      01000011 
 1431      E2A3
 1432 16f1 EB193807 		.ascii	"\353\0318\007\001\324\025\011N#F\353q#p\311\345*O\\"
 1432      01D41509 
 1432      4E2346EB 
 1432      712370C9 
 1432      E52A4F5C 
 1433 1705 09232323 		.ascii	"\011###N\353!\026\027\315\334\026N\006\000\011\351K"
 1433      4EEB2116 
 1433      17CDDC16 
 1433      4E060009 
 1433      E94B
 1434 1717 05530350 		.ascii	"\005S\003P\001\341\311\315\224\036\376\0208\002\317"
 1434      01E1C9CD 
 1434      941EFE10 
 1434      3802CF
 1435 1726 17C60307 		.ascii	"\027\306\003\007!\020\\O\006\000\011N#F+\311\357\001"
 1435      21105C4F 
 1435      0600094E 
 1435      23462BC9 
 1435      EF01
 1436 1738 38CD1E17 		.ascii	"8\315\036\027x\261(\026\353*O\\\011###~\353\376K(\010"
 1436      78B12816 
 1436      EB2A4F5C 
 1436      09232323 
 1436      7EEBFE4B 
 1437 174e FE532804 		.ascii	"\376S(\004\376P \317\315]\027s#r\311\345\315\361+x\261"
 1437      FE5020CF 
 1437      CD5D1773 
 1437      2372C9E5 
 1437      CDF12B78 
 1438 1763 2002CF0E 		.ascii	" \002\317\016\305\032\346\337O!z\027\315"
 1438      C51AE6DF 
 1438      4F217A17 
 1438      CD
 1439 1770 DC1630F1 		.ascii	"\334\0260\361N\006\000\011\301\351K\006S\010P\012\000"
 1439      4E060009 
 1439      C1E94B06 
 1439      5308500A 
 1439      00
 1440 1781 1E011806 		.ascii	"\036\001\030\006\036\006\030\002\036\020\013x\261 \325"
 1440      1E061802 
 1440      1E100B78 
 1440      B120D5
 1441 1790 57E1C918 		.ascii	"W\341\311\030\220\355s?\\\3756\002\020\315\257\015\375"
 1441      90ED733F 
 1441      5CFD3602 
 1441      10CDAF0D 
 1441      FD
 1442 17a1 CB02C6FD 		.ascii	"\313\002\306\375F1\315D\016\375\313\002\206\375\313"
ARM GAS  /tmp/cc4GLRty.s 			page 56


 1442      4631CD44 
 1442      0EFDCB02 
 1442      86FDCB
 1443 17b0 30C62A49 		.ascii	"0\306*I\\\355[l\\\247\355R\0318\"\325\315n\031\021\300"
 1443      5CED5B6C 
 1443      5CA7ED52 
 1443      193822D5 
 1443      CD6E1911 
 1444 17c5 02EBED52 		.ascii	"\002\353\355R\343\315n\031\301\305\315\270\031\301\011"
 1444      E3CD6E19 
 1444      C1C5CDB8 
 1444      19C109
 1445 17d4 380EEB56 		.ascii	"8\016\353V#^+\355Sl\\\030\355\"l\\*l\\\315n\031(\001"
 1445      235E2BED 
 1445      536C5C18 
 1445      ED226C5C 
 1445      2A6C5CCD 
 1446 17ec EBCD3318 		.ascii	"\353\3153\030\375\313\002\246\311>\003\030\002>\002"
 1446      FDCB02A6 
 1446      C93E0318 
 1446      023E02
 1447 17fb FD360200 		.ascii	"\3756\002\000\3150%\304\001\026\337\315p 8\024\337\376"
 1447      CD3025C4 
 1447      0116DFCD 
 1447      70203814 
 1447      DFFE
 1448 180d 3B2804FE 		.ascii	";(\004\376, \006\347\315\202\034\030\010\315\346\034"
 1448      2C2006E7 
 1448      CD821C18 
 1448      08CDE61C 
 1449 181d 1803CDDE 		.ascii	"\030\003\315\336\034\315\356\033\315\231\036x\346?g"
 1449      1CCDEE1B 
 1449      CD991E78 
 1449      E63F67
 1450 182c 6922495C 		.ascii	"i\"I\\\315n\031\036\001\315U\030\327\375\313\002f(\366"
 1450      CD6E191E 
 1450      01CD5518 
 1450      D7FDCB02 
 1450      6628F6
 1451 183f 3A6B5CFD 		.ascii	":k\\\375\226O \356\253\310\345\325!l\\\315\017\031\321"
 1451      964F20EE 
 1451      ABC8E5D5 
 1451      216C5CCD 
 1451      0F19D1
 1452 1852 E118E0ED 		.ascii	"\341\030\340\355KI\\\315\200\031\026>(\005\021\000\000"
 1452      4B495CCD 
 1452      8019163E 
 1452      28051100 
 1452      00
 1453 1863 CB13FD73 		.ascii	"\313\023\375s-~\376@\301\320\305\315(\032###\375\313"
 1453      2D7EFE40 
 1453      C1D0C5CD 
 1453      281A2323 
 1453      23FDCB
 1454 1876 01867AA7 		.ascii	"\001\206z\247(\005\327\375\313\001\306\325\353\375\313"
 1454      2805D7FD 
 1454      CB01C6D5 
ARM GAS  /tmp/cc4GLRty.s 			page 57


 1454      EBFDCB
 1455 1885 3096213B 		.ascii	"0\226!;\\\313\226\375\3137n(\002\313\326*_\\\247\355"
 1455      5CCB96FD 
 1455      CB376E28 
 1455      02CBD62A 
 1455      5F5CA7ED 
 1456 1899 5220053E 		.ascii	"R \005>?\315\301\030\315\341\030\353~\315\266\030#\376"
 1456      3FCDC118 
 1456      CDE118EB 
 1456      7ECDB618 
 1456      23FE
 1457 18ab 0D2806EB 		.ascii	"\015(\006\353\3157\031\030\340\321\311\376\016\300#"
 1457      CD371918 
 1457      E0D1C9FE 
 1457      0EC023
 1458 18ba 23232323 		.ascii	"#####~\311\331*\217\\\345\313\274\313\375\"\217\\!\221"
 1458      237EC9D9 
 1458      2A8F5CE5 
 1458      CBBCCBFD 
 1458      228F5C21 
 1459 18cf 5C56D536 		.ascii	"\\V\3256\000\315\364\011\341\375tW\341\"\217\\\331\311"
 1459      00CDF409 
 1459      E1FD7457 
 1459      E1228F5C 
 1459      D9C9
 1460 18e1 2A5B5CA7 		.ascii	"*[\\\247\355R\300:A\\\313\007(\004\306C\030\026!;\\"
 1460      ED52C03A 
 1460      415CCB07 
 1460      2804C643 
 1460      1816213B 
 1461 18f6 CB9E3E4B 		.ascii	"\313\236>K\313V(\013\313\336<\375\3130^(\002>C\325\315"
 1461      CB56280B 
 1461      CBDE3CFD 
 1461      CB305E28 
 1461      023E43D5 
 1462 190b C118D1C9 		.ascii	"\301\030\321\311^#V\345\353#\315n\031\315\225\026\341"
 1462      5E2356E5 
 1462      EB23CD6E 
 1462      19CD9516 
 1462      E1
 1463 191c FDCB376E 		.ascii	"\375\3137n\300r+s\311{\247\370\030\015\257\011<8\374"
 1463      C0722B73 
 1463      C97BA7F8 
 1463      180DAF09 
 1463      3C38FC
 1464 192f ED423D28 		.ascii	"\355B=(\361\303\357\025\315\033-00\376!8,\375\313\001"
 1464      F1C3EF15 
 1464      CD1B2D30 
 1464      30FE2138 
 1464      2CFDCB01 
 1465 1943 96FECB28 		.ascii	"\226\376\313($\376: \016\375\3137n \026\375\3130V(\024"
 1465      24FE3A20 
 1465      0EFDCB37 
 1465      6E2016FD 
 1465      CB305628 
 1466 1958 180EFE22 		.ascii	"\030\016\376\" \012\365:j\\\356\0042j\\\361\375\313"
 1466      200AF53A 
ARM GAS  /tmp/cc4GLRty.s 			page 58


 1466      6A5CEE04 
 1466      326A5CF1 
 1466      FDCB
 1467 196a 01D6D7C9 		.ascii	"\001\326\327\311\345*S\\T]\301\315\200\031\320\305\315"
 1467      E52A535C 
 1467      545DC1CD 
 1467      8019D0C5 
 1467      CD
 1468 197b B819EB18 		.ascii	"\270\031\353\030\364~\270\300#~+\271\311###\"]\\\016"
 1468      F47EB8C0 
 1468      237E2BB9 
 1468      C9232323 
 1468      225D5C0E 
 1469 198f 0015C8E7 		.ascii	"\000\025\310\347\273 \004\247\311#~\315\266\030\"]\\"
 1469      BB2004A7 
 1469      C9237ECD 
 1469      B618225D 
 1469      5C
 1470 19a0 FE222001 		.ascii	"\376\" \001\015\376:(\004\376\313 \004\313A(\337\376"
 1470      0DFE3A28 
 1470      04FECB20 
 1470      04CB4128 
 1470      DFFE
 1471 19b2 0D20E315 		.ascii	"\015 \343\0257\311\345~\376@8\027\313o(\024\207\372"
 1471      37C9E57E 
 1471      FE403817 
 1471      CB6F2814 
 1471      87FA
 1472 19c4 C7193F01 		.ascii	"\307\031?\001\005\0000\002\016\022\027#~0\373\030\006"
 1472      05003002 
 1472      0E121723 
 1472      7E30FB18 
 1472      06
 1473 19d5 23234E23 		.ascii	"##N#F#\011\321\247\355RDM\031\353\311\315\335\031\305"
 1473      462309D1 
 1473      A7ED5244 
 1473      4D19EBC9 
 1473      CDDD19C5 
 1474 19e9 782F4779 		.ascii	"x/Gy/O\003\315d\026\353\341\031\325\355\260\341\311"
 1474      2F4F03CD 
 1474      6416EBE1 
 1474      19D5EDB0 
 1474      E1C9
 1475 19fb 2A595C2B 		.ascii	"*Y\\+\"]\\\347!\222\\\"e\\\315;-\315\242-8\004!\360"
 1475      225D5CE7 
 1475      21925C22 
 1475      655CCD3B 
 1475      2DCDA22D 
 1476 1a13 D809DA8A 		.ascii	"\330\011\332\212\034\303\305\026\325\345\257\313x  "
 1476      1CC3C516 
 1476      D5E5AFCB 
 1476      782020
 1477 1a22 60691EFF 		.ascii	"`i\036\377\030\010\325V#^\345\353\036 \001\030\374\315"
 1477      1808D556 
 1477      235EE5EB 
 1477      1E200118 
 1477      FCCD
ARM GAS  /tmp/cc4GLRty.s 			page 59


 1478 1a34 2A19019C 		.ascii	"*\031\001\234\377\315*\031\016\366\315*\031}\315\357"
 1478      FFCD2A19 
 1478      0EF6CD2A 
 1478      197DCDEF 
 1479 1a44 15E1D1C9 		.ascii	"\025\341\321\311\261\313\274\277\304\257\264\223\221"
 1479      B1CBBCBF 
 1479      C4AFB493 
 1479      91
 1480 1a51 92959898 		.ascii	"\222\225\230\230\230\230\230\230\230\177\201.lnpH\224"
 1480      98989898 
 1480      987F812E 
 1480      6C6E7048 
 1480      94
 1481 1a62 563F412B 		.ascii	"V?A+\027\0377wD\017Y+C-Q:mB\015I\\D\025]\001=\002\006"
 1481      171F3777 
 1481      440F592B 
 1481      432D513A 
 1481      6D420D49 
 1482 1a7e 00671E06 		.ascii	"\000g\036\006\313\005\360\034\006\000\355\036\000\356"
 1482      CB05F01C 
 1482      0600ED1E 
 1482      00EE
 1483 1a8c 1C00231F 		.ascii	"\034\000#\037\004=\006\314\006\005\003\035\004\000\253"
 1483      043D06CC 
 1483      0605031D 
 1483      0400AB
 1484 1a9b 1D05CD1F 		.ascii	"\035\005\315\037\005\211 \005\002,\005\262\033\000\267"
 1484      05892005 
 1484      022C05B2 
 1484      1B00B7
 1485 1aaa 1103A11E 		.ascii	"\021\003\241\036\005\371\027\010\000\200\036\003O\036"
 1485      05F91708 
 1485      00801E03 
 1485      4F1E
 1486 1ab8 005F1E03 		.ascii	"\000_\036\003\254\036\000k\015\011\000\334\"\006\000"
 1486      AC1E006B 
 1486      0D0900DC 
 1486      220600
 1487 1ac7 3A1F05ED 		.ascii	":\037\005\355\035\005'\036\003B\036\011\005\202#\000"
 1487      1D05271E 
 1487      03421E09 
 1487      05822300 
 1488 1ad7 AC0E05C9 		.ascii	"\254\016\005\311\037\005\365\027\013\013\013\013\010"
 1488      1F05F517 
 1488      0B0B0B0B 
 1488      08
 1489 1ae4 00F80309 		.ascii	"\000\370\003\011\005 #\007\007\007\007\007\007\010\000"
 1489      05202307 
 1489      07070707 
 1489      070800
 1490 1af3 7A1E0600 		.ascii	"z\036\006\000\224\"\005`\037\006,\012\0006\027\006\000"
 1490      94220560 
 1490      1F062C0A 
 1490      00361706 
 1490      00
 1491 1b04 E5160A00 		.ascii	"\345\026\012\000\223\027\012,\012\000\223\027\012\000"
 1491      93170A2C 
ARM GAS  /tmp/cc4GLRty.s 			page 60


 1491      0A009317 
 1491      0A00
 1492 1b12 93170093 		.ascii	"\223\027\000\223\027\375\313\001\276\315\373\031\257"
 1492      17FDCB01 
 1492      BECDFB19 
 1492      AF
 1493 1b1f 32475C3D 		.ascii	"2G\\=2:\\\030\001\347\315\277\026\3754\015\372\212\034"
 1493      323A5C18 
 1493      01E7CDBF 
 1493      16FD340D 
 1493      FA8A1C
 1494 1b32 DF0600FE 		.ascii	"\337\006\000\376\015(z\376:(\353!v\033\345O\347y\326"
 1494      0D287AFE 
 1494      3A28EB21 
 1494      761BE54F 
 1494      E779D6
 1495 1b45 CEDA8A1C 		.ascii	"\316\332\212\034O!H\032\011N\011\030\003*t\\~#\"t\\"
 1495      4F21481A 
 1495      094E0918 
 1495      032A745C 
 1495      7E232274 
 1496 1b5a 01521BC5 		.ascii	"\001R\033\305O\376 0\014!\001\034\006\000\011N\011\345"
 1496      4FFE2030 
 1496      0C21011C 
 1496      0600094E 
 1496      09E5
 1497 1b6c DF05C9DF 		.ascii	"\337\005\311\337\271\302\212\034\347\311\315T\0378\002"
 1497      B9C28A1C 
 1497      E7C9CD54 
 1497      1F3802
 1498 1b7b CF14FDCB 		.ascii	"\317\024\375\313\012~ q*B\\\313|(\024!\376\377\"E\\"
 1498      0A7E2071 
 1498      2A425CCB 
 1498      7C281421 
 1498      FEFF2245 
 1499 1b90 2A615C2B 		.ascii	"*a\\+\355[Y\\\033:D\\\0303\315n\031:D\\(\031\247 CG"
 1499      ED5B595C 
 1499      1B3A445C 
 1499      1833CD6E 
 1499      193A445C 
 1500 1baa 7EE6C078 		.ascii	"~\346\300x(\017\317\377\301\3150%\310*U\\>\300\246\300"
 1500      280FCFFF 
 1500      C1CD3025 
 1500      C82A555C 
 1500      3EC0A6C0 
 1501 1bbe AFFE01CE 		.ascii	"\257\376\001\316\000V#^\355SE\\#^#V\353\031#\"U\\\353"
 1501      0056235E 
 1501      ED53455C 
 1501      235E2356 
 1501      EB192322 
 1502 1bd5 225D5C57 		.ascii	"\"]\\W\036\000\3756\012\377\025\375r\015\312(\033\024"
 1502      1E00FD36 
 1502      0AFF15FD 
 1502      720DCA28 
 1502      1B14
 1503 1be7 CD8B1928 		.ascii	"\315\213\031(\010\317\026\3150%\300\301\301\337\376"
 1503      08CF16CD 
ARM GAS  /tmp/cc4GLRty.s 			page 61


 1503      3025C0C1 
 1503      C1DFFE
 1504 1bf6 0D28BAFE 		.ascii	"\015(\272\376:\312(\033\303\212\034\017\035K\011g\013"
 1504      3ACA281B 
 1504      C38A1C0F 
 1504      1D4B0967 
 1504      0B
 1505 1c07 7B8E71B4 		.ascii	"{\216q\264\201\317\315\336\034\277\301\314\356\033\353"
 1505      81CFCDDE 
 1505      1CBFC1CC 
 1505      EE1BEB
 1506 1c16 2A745C4E 		.ascii	"*t\\N#F\353\305\311\315\262(\37567\0000\010\375\313"
 1506      2346EBC5 
 1506      C9CDB228 
 1506      FD363700 
 1506      3008FDCB 
 1507 1c2a 37CE2018 		.ascii	"7\316 \030\317\001\314\226)\375\313\001v \015\257\315"
 1507      CF01CC96 
 1507      29FDCB01 
 1507      76200DAF 
 1507      CD
 1508 1c3b 3025C4F1 		.ascii	"0%\304\361+!q\\\266w\353\355Cr\\\"M\\\311\301\315V\034"
 1508      2B21715C 
 1508      B677EBED 
 1508      43725C22 
 1508      4D5CC9C1 
 1509 1c52 CDEE1BC9 		.ascii	"\315\356\033\311:;\\\365\315\373$\361\375V\001\252\346"
 1509      3A3B5CF5 
 1509      CDFB24F1 
 1509      FD5601AA 
 1509      E6
 1510 1c63 402024CB 		.ascii	"@ $\313z\302\377*\311\315\262(\365y\366\237< \024\361"
 1510      7AC2FF2A 
 1510      C9CDB228 
 1510      F579F69F 
 1510      3C2014F1 
 1511 1c77 18A9E7CD 		.ascii	"\030\251\347\315\202\034\376, \011\347\315\373$\375"
 1511      821CFE2C 
 1511      2009E7CD 
 1511      FB24FD
 1512 1c86 CB0176C0 		.ascii	"\313\001v\300\317\013\315\373$\375\313\001v\310\030"
 1512      CF0BCDFB 
 1512      24FDCB01 
 1512      76C818
 1513 1c95 F4FDCB01 		.ascii	"\364\375\313\001~\375\313\002\206\304M\015\361:t\\\326"
 1513      7EFDCB02 
 1513      86C44D0D 
 1513      F13A745C 
 1513      D6
 1514 1ca6 13CDFC21 		.ascii	"\023\315\374!\315\356\033*\217\\\"\215\\!\221\\~\007"
 1514      CDEE1B2A 
 1514      8F5C228D 
 1514      5C21915C 
 1514      7E07
 1515 1cb8 AEE6AAAE 		.ascii	"\256\346\252\256w\311\3150%(\023\375\313\002\206\315"
 1515      77C9CD30 
 1515      252813FD 
ARM GAS  /tmp/cc4GLRty.s 			page 62


 1515      CB0286CD 
 1516 1cc8 4D0D2190 		.ascii	"M\015!\220\\~\366\370w\375\313W\266\337\315\342!\030"
 1516      5C7EF6F8 
 1516      77FDCB57 
 1516      B6DFCDE2 
 1516      2118
 1517 1cda 9FC30506 		.ascii	"\237\303\005\006\376\015(\004\376: \234\3150%\310\357"
 1517      FE0D2804 
 1517      FE3A209C 
 1517      CD3025C8 
 1517      EF
 1518 1ceb A038C9CF 		.ascii	"\2408\311\317\010\301\3150%(\012\357\0028\353\315\351"
 1518      08C1CD30 
 1518      25280AEF 
 1518      0238EBCD 
 1518      E9
 1519 1cfc 34DAB31B 		.ascii	"4\332\263\033\303)\033\376\315 \011\347\315\202\034"
 1519      C3291BFE 
 1519      CD2009E7 
 1519      CD821C
 1520 1d0b CDEE1B18 		.ascii	"\315\356\033\030\006\315\356\033\357\2418\357\300\002"
 1520      06CDEE1B 
 1520      EFA138EF 
 1520      C002
 1521 1d19 01E00138 		.ascii	"\001\340\0018\315\377*\"h\\+~\313\376\001\006\000\011"
 1521      CDFF2A22 
 1521      685C2B7E 
 1521      CBFE0106 
 1521      0009
 1522 1d2b 0738060E 		.ascii	"\0078\006\016\015\315U\026#\345\357\002\0028\341\353"
 1522      0DCD5516 
 1522      23E5EF02 
 1522      0238E1EB 
 1523 1d3b 0E0AEDB0 		.ascii	"\016\012\355\260*E\\\353s#r\375V\015\024#r\315\332\035"
 1523      2A455CEB 
 1523      732372FD 
 1523      560D1423 
 1523      72CDDA1D 
 1524 1d4f D0FD4638 		.ascii	"\320\375F8*E\\\"B\\:G\\\355DW*]\\\036\363\305\355KU"
 1524      2A455C22 
 1524      425C3A47 
 1524      5CED4457 
 1524      2A5D5C1E 
 1525 1d68 5CCD861D 		.ascii	"\\\315\206\035\355CU\\\3018\021\347\366 \270(\003\347"
 1525      ED43555C 
 1525      C13811E7 
 1525      F620B828 
 1525      03E7
 1526 1d7a 18E8E73E 		.ascii	"\030\350\347>\001\2222D\\\311\317\021~\376:(\030#~\346"
 1526      01923244 
 1526      5CC9CF11 
 1526      7EFE3A28 
 1526      18237EE6 
 1527 1d8e C037C046 		.ascii	"\3007\300F#N\355CB\\#N#F\345\011DM\341\026\000\305\315"
 1527      234EED43 
 1527      425C234E 
 1527      2346E509 
ARM GAS  /tmp/cc4GLRty.s 			page 63


 1527      444DE116 
 1528 1da5 8B19C1D0 		.ascii	"\213\031\301\320\030\340\375\3137N\302.\034*M\\\313"
 1528      18E0FDCB 
 1528      374EC22E 
 1528      1C2A4D5C 
 1528      CB
 1529 1db6 7E281F23 		.ascii	"~(\037#\"h\\\357\340\342\017\300\0028\315\332\035\330"
 1529      22685CEF 
 1529      E0E20FC0 
 1529      0238CDDA 
 1529      1DD8
 1530 1dc8 2A685C11 		.ascii	"*h\\\021\017\000\031^#V#f\353\303s\036\317\000\357\341"
 1530      0F00195E 
 1530      23562366 
 1530      EBC3731E 
 1530      CF00EFE1 
 1531 1ddc E0E23600 		.ascii	"\340\3426\000\002\001\0037\000\0048\247\31187\311\347"
 1531      02010337 
 1531      000438A7 
 1531      C93837C9 
 1531      E7
 1532 1ded CD1F1CCD 		.ascii	"\315\037\034\3150%()\337\"_\\*W\\~\376,(\011\036\344"
 1532      30252829 
 1532      DF225F5C 
 1532      2A575C7E 
 1532      FE2C2809 
 1533 1e03 CD861D30 		.ascii	"\315\206\0350\002\317\015\315w\000\315V\034\337\"W\\"
 1533      02CF0DCD 
 1533      7700CD56 
 1533      1CDF2257 
 1533      5C
 1534 1e14 2A5F5CFD 		.ascii	"*_\\\3756&\000\315x\000\337\376,(\311\315\356\033\311"
 1534      362600CD 
 1534      7800DFFE 
 1534      2C28C9CD 
 1534      EE1BC9
 1535 1e27 CD302520 		.ascii	"\3150% \013\315\373$\376,\304\356\033\347\030\365>\344"
 1535      0BCDFB24 
 1535      FE2CC4EE 
 1535      1BE718F5 
 1535      3EE4
 1536 1e39 47EDB911 		.ascii	"G\355\271\021\000\002\303\213\031\315\231\036`i\315"
 1536      0002C38B 
 1536      19CD991E 
 1536      6069CD
 1537 1e48 6E192B22 		.ascii	"n\031+\"W\\\311\315\231\036x\261 \004\355Kx\\\355Cv"
 1537      575CC9CD 
 1537      991E78B1 
 1537      2004ED4B 
 1537      785CED43 
 1538 1e5d 5CC92A6E 		.ascii	"\\\311*n\\\375V6\030\014\315\231\036`i\026\000|\376"
 1538      5CFD5636 
 1538      180CCD99 
 1538      1E606916 
 1538      007CFE
 1539 1e70 F0302C22 		.ascii	"\3600,\"B\\\375r\012\311\315\205\036\355y\311\315\205"
 1539      425CFD72 
ARM GAS  /tmp/cc4GLRty.s 			page 64


 1539      0AC9CD85 
 1539      1EED79C9 
 1539      CD85
 1540 1e82 1E02C9CD 		.ascii	"\036\002\311\315\325-8\025(\002\355D\365\315\231\036"
 1540      D52D3815 
 1540      2802ED44 
 1540      F5CD991E 
 1541 1e92 F1C9CDD5 		.ascii	"\361\311\315\325-\030\003\315\242-8\001\310\317\012"
 1541      2D1803CD 
 1541      A22D3801 
 1541      C8CF0A
 1542 1ea1 CD671E01 		.ascii	"\315g\036\001\000\000\315E\036\030\003\315\231\036x"
 1542      0000CD45 
 1542      1E1803CD 
 1542      991E78
 1543 1eb0 B12004ED 		.ascii	"\261 \004\355K\262\\\305\355[K\\*Y\\+\315\345\031\315"
 1543      4BB25CC5 
 1543      ED5B4B5C 
 1543      2A595C2B 
 1543      CDE519CD 
 1544 1ec4 6B0D2A65 		.ascii	"k\015*e\\\0212\000\031\321\355R0\010*\264\\\247\355"
 1544      5C113200 
 1544      19D1ED52 
 1544      30082AB4 
 1544      5CA7ED
 1545 1ed7 523002CF 		.ascii	"R0\002\317\025\353\"\262\\\321\3016>+\371\305\355s="
 1545      15EB22B2 
 1545      5CD1C136 
 1545      3E2BF9C5 
 1545      ED733D
 1546 1eea 5CEBE9D1 		.ascii	"\\\353\351\321\375f\015$\3433\355KE\\\305\345\355s="
 1546      FD660D24 
 1546      E333ED4B 
 1546      455CC5E5 
 1546      ED733D
 1547 1efd 5CD5CD67 		.ascii	"\\\325\315g\036\001\024\000*e\\\0118\012\353!P\000\031"
 1547      1E011400 
 1547      2A655C09 
 1547      380AEB21 
 1547      500019
 1548 1f10 3803ED72 		.ascii	"8\003\355r\330.\003\303U\000\001\000\000\315\005\037"
 1548      D82E03C3 
 1548      55000100 
 1548      00CD051F 
 1549 1f20 444DC9C1 		.ascii	"DM\311\301\341\321z\376>(\013;\343\353\355s=\\\305\303"
 1549      E1D17AFE 
 1549      3E280B3B 
 1549      E3EBED73 
 1549      3D5CC5C3 
 1550 1f34 731ED5E5 		.ascii	"s\036\325\345\317\006\315\231\036v\013x"
 1550      CF06CD99 
 1550      1E760B78 
 1551 1f40 B1280C78 		.ascii	"\261(\014x\241< \001\003\375\313\001n(\356\375\313\001"
 1551      A13C2001 
 1551      03FDCB01 
 1551      6E28EEFD 
 1551      CB01
ARM GAS  /tmp/cc4GLRty.s 			page 65


 1552 1f52 AEC93E7F 		.ascii	"\256\311>\177\333\376\037\330>\376\333\376\037\311\315"
 1552      DBFE1FD8 
 1552      3EFEDBFE 
 1552      1FC9CD
 1553 1f61 30252805 		.ascii	"0%(\005>\316\3039\036\375\313\001\366\315\215,0\026"
 1553      3ECEC339 
 1553      1EFDCB01 
 1553      F6CD8D2C 
 1553      3016
 1554 1f73 E7FE2420 		.ascii	"\347\376$ \005\375\313\001\266\347\376( <\347\376)("
 1554      05FDCB01 
 1554      B6E7FE28 
 1554      203CE7FE 
 1554      2928
 1555 1f85 20CD8D2C 		.ascii	" \315\215,\322\212\034\353\347\376$ \002\353\347\353"
 1555      D28A1CEB 
 1555      E7FE2420 
 1555      02EBE7EB 
 1556 1f95 010600CD 		.ascii	"\001\006\000\315U\026##6\016\376, \003\347\030\340\376"
 1556      55162323 
 1556      360EFE2C 
 1556      2003E718 
 1556      E0FE
 1557 1fa7 292013E7 		.ascii	") \023\347\376= \016\347:;\\\365\315\373$\361\375\256"
 1557      FE3D200E 
 1557      E73A3B5C 
 1557      F5CDFB24 
 1557      F1FDAE
 1558 1fba 01E640C2 		.ascii	"\001\346@\302\212\034\315\356\033\3150%\341\310\351"
 1558      8A1CCDEE 
 1558      1BCD3025 
 1558      E1C8E9
 1559 1fc9 3E031802 		.ascii	">\003\030\002>\002\3150%\304\001\026\315M\015\315\337"
 1559      3E02CD30 
 1559      25C40116 
 1559      CD4D0DCD 
 1559      DF
 1560 1fda 1FCDEE1B 		.ascii	"\037\315\356\033\311\337\315E (\015\315N (\373\315\374"
 1560      C9DFCD45 
 1560      20280DCD 
 1560      4E2028FB 
 1560      CDFC
 1561 1fec 1FCD4E20 		.ascii	"\037\315N (\363\376)\310\315\303\037>\015\327\311\337"
 1561      28F3FE29 
 1561      C8CDC31F 
 1561      3E0DD7C9 
 1561      DF
 1562 1ffd FEAC200D 		.ascii	"\376\254 \015\315y\034\315\303\037\315\007#>\026\030"
 1562      CD791CCD 
 1562      C31FCD07 
 1562      233E1618 
 1563 200d 10FEAD20 		.ascii	"\020\376\255 \022\347\315\202\034\315\303\037\315\231"
 1563      12E7CD82 
 1563      1CCDC31F 
 1563      CD99
 1564 201b 1E3E17D7 		.ascii	"\036>\027\327y\327x\327\311\315\362!\320\315p \320\315"
 1564      79D778D7 
ARM GAS  /tmp/cc4GLRty.s 			page 66


 1564      C9CDF221 
 1564      D0CD7020 
 1564      D0CD
 1565 202d FB24CDC3 		.ascii	"\373$\315\303\037\375\313\001v\314\361+\302\343-x\261"
 1565      1FFDCB01 
 1565      76CCF12B 
 1565      C2E32D78 
 1565      B1
 1566 203e 0BC81A13 		.ascii	"\013\310\032\023\327\030\367\376)\310\376\015\310\376"
 1566      D718F7FE 
 1566      29C8FE0D 
 1566      C8FE
 1567 204c 3AC9DFFE 		.ascii	":\311\337\376;(\024\376, \012\3150%(\013>\006\327\030"
 1567      3B2814FE 
 1567      2C200ACD 
 1567      3025280B 
 1567      3E06D718 
 1568 2060 06FE27C0 		.ascii	"\006\376'\300\315\365\037\347\315E  \001\301\277\311"
 1568      CDF51FE7 
 1568      CD452020 
 1568      01C1BFC9 
 1569 2070 FE2337C0 		.ascii	"\376#7\300\347\315\202\034\247\315\303\037\315\224\036"
 1569      E7CD821C 
 1569      A7CDC31F 
 1569      CD941E
 1570 207f FE10D20E 		.ascii	"\376\020\322\016\026\315\001\026\247\311\3150%(\010"
 1570      16CD0116 
 1570      A7C9CD30 
 1570      252808
 1571 208e 3E01CD01 		.ascii	">\001\315\001\026\315n\015\3756\002\001\315\301 \315"
 1571      16CD6E0D 
 1571      FD360201 
 1571      CDC120CD 
 1572 209e EE1BED4B 		.ascii	"\356\033\355K\210\\:k\\\2708\003\016!G\355C\210\\>\031"
 1572      885C3A6B 
 1572      5CB83803 
 1572      0E2147ED 
 1572      43885C3E 
 1573 20b3 90328C5C 		.ascii	"\2202\214\\\375\313\002\206\315\331\015\303n\015\315"
 1573      FDCB0286 
 1573      CDD90DC3 
 1573      6E0DCD
 1574 20c2 4E2028FB 		.ascii	"N (\373\376( \016\347\315\337\037\337\376)\302\212\034"
 1574      FE28200E 
 1574      E7CDDF1F 
 1574      DFFE29C2 
 1574      8A1C
 1575 20d4 E7C3B221 		.ascii	"\347\303\262!\376\312 \021\347\315\037\034\375\3137"
 1575      FECA2011 
 1575      E7CD1F1C 
 1575      FDCB37
 1576 20e3 FEFDCB01 		.ascii	"\376\375\313\001v\302\212\034\030\015\315\215,\322\257"
 1576      76C28A1C 
 1576      180DCD8D 
 1576      2CD2AF
 1577 20f2 21CD1F1C 		.ascii	"!\315\037\034\375\3137\276\3150%\312\262!\315\277\026"
 1577      FDCB37BE 
ARM GAS  /tmp/cc4GLRty.s 			page 67


 1577      CD3025CA 
 1577      B221CDBF 
 1577      16
 1578 2103 21715CCB 		.ascii	"!q\\\313\266\313\356\001\001\000\313~ \013:;\\\346@"
 1578      B6CBEE01 
 1578      0100CB7E 
 1578      200B3A3B 
 1578      5CE640
 1579 2116 20020E03 		.ascii	" \002\016\003\266w\3676\015y\017\0170\005>\"\022+w\""
 1579      B677F736 
 1579      0D790F0F 
 1579      30053E22 
 1579      122B7722 
 1580 212a 5B5CFDCB 		.ascii	"[\\\375\3137~ ,*]\\\345*=\\\345!:!\345\375\3130f(\004"
 1580      377E202C 
 1580      2A5D5CE5 
 1580      2A3D5CE5 
 1580      213A21E5 
 1581 2144 ED733D5C 		.ascii	"\355s=\\*a\\\315\247\021\3756\000\377\315,\017\375\313"
 1581      2A615CCD 
 1581      A711FD36 
 1581      00FFCD2C 
 1581      0FFDCB
 1582 2157 01BECDB9 		.ascii	"\001\276\315\271!\030\003\315,\017\3756\"\000\315\326"
 1582      211803CD 
 1582      2C0FFD36 
 1582      2200CDD6 
 1583 2167 21200ACD 		.ascii	"! \012\315\035\021\355K\202\\\315\331\015!q\\\313\256"
 1583      1D11ED4B 
 1583      825CCDD9 
 1583      0D21715C 
 1583      CBAE
 1584 2179 CB7ECBBE 		.ascii	"\313~\313\276 \034\341\341\"=\\\341\"_\\\375\313\001"
 1584      201CE1E1 
 1584      223D5CE1 
 1584      225F5CFD 
 1584      CB01
 1585 218b FECDB921 		.ascii	"\376\315\271!*_\\\3756&\000\"]\\\030\027*c\\\355[a\\"
 1585      2A5F5CFD 
 1585      36260022 
 1585      5D5C1817 
 1585      2A635CED 
 1586 21a2 37ED5244 		.ascii	"7\355RDM\315\262*\315\377*\030\003\315\374\037\315N"
 1586      4DCDB22A 
 1586      CDFF2A18 
 1586      03CDFC1F 
 1586      CD4E
 1587 21b4 20CAC120 		.ascii	" \312\301 \311*a\\\"]\\\337\376\342(\014:q\\\315Y\034"
 1587      C92A615C 
 1587      225D5CDF 
 1587      FEE2280C 
 1587      3A715CCD 
 1588 21ca DFFE0DC8 		.ascii	"\337\376\015\310\317\013\3150%\310\317\020*Q\\####~"
 1588      CF0BCD30 
 1588      25C8CF10 
 1588      2A515C23 
 1588      2323237E 
ARM GAS  /tmp/cc4GLRty.s 			page 68


 1589 21de FE4BC9E7 		.ascii	"\376K\311\347\315\362!\330\337\376,(\366\376;(\362\303"
 1589      CDF221D8 
 1589      DFFE2C28 
 1589      F6FE3B28 
 1589      F2C3
 1590 21f0 8A1CFED9 		.ascii	"\212\034\376\331\330\376\337?\330\365\347\361\326\311"
 1590      D8FEDF3F 
 1590      D8F5E7F1 
 1590      D6C9
 1591 21fe F5CD821C 		.ascii	"\365\315\202\034\361\247\315\303\037\365\315\224\036"
 1591      F1A7CDC3 
 1591      1FF5CD94 
 1591      1E
 1592 220b 57F1D77A 		.ascii	"W\361\327z\327\311\326\021\316\000(\035\326\002\316"
 1592      D7C9D611 
 1592      CE00281D 
 1592      D602CE
 1593 221a 002856FE 		.ascii	"\000(V\376\001z\006\001 \004\007\007\006\004Oz\376\002"
 1593      017A0601 
 1593      20040707 
 1593      06044F7A 
 1593      FE02
 1594 222c 30167921 		.ascii	"0\026y!\221\\\0308z\006\0078\005\007\007\007\0068Oz"
 1594      915C1838 
 1594      7A060738 
 1594      05070707 
 1594      06384F7A 
 1595 2240 FE0A3802 		.ascii	"\376\0128\002\317\023!\217\\\376\0108\013~(\007\260"
 1595      CF13218F 
 1595      5CFE0838 
 1595      0B7E2807 
 1595      B0
 1596 2251 2FE62428 		.ascii	"/\346$(\001xOy\315l\">\007\272\237\315l\"\007\007\346"
 1596      01784F79 
 1596      CD6C223E 
 1596      07BA9FCD 
 1596      6C220707 
 1597 2266 50473E08 		.ascii	"PG>\010\272\237\256\240\256w#x\311\237z\017\006\200"
 1597      BA9FAEA0 
 1597      AE772378 
 1597      C99F7A0F 
 1597      0680
 1598 2278 20030F06 		.ascii	" \003\017\006@Oz\376\010(\004\376\0020\275y!\217\\\315"
 1598      404F7AFE 
 1598      082804FE 
 1598      0230BD79 
 1598      218F5CCD 
 1599 228c 6C22790F 		.ascii	"l\"y\017\017\017\030\330\315\224\036\376\0100\251\323"
 1599      0F0F18D8 
 1599      CD941EFE 
 1599      0830A9D3 
 1600 229c FE070707 		.ascii	"\376\007\007\007\313o \002\356\0072H\\\311>\257\220"
 1600      CB6F2002 
 1600      EE073248 
 1600      5CC93EAF 
 1600      90
 1601 22ad DAF92447 		.ascii	"\332\371$G\247\0377\037\247\037\250\346\370\250gy\007"
ARM GAS  /tmp/cc4GLRty.s 			page 69


 1601      A71F371F 
 1601      A71FA8E6 
 1601      F8A86779 
 1601      07
 1602 22be 0707A8E6 		.ascii	"\007\007\250\346\307\250\007\007oy\346\007\311\315\007"
 1602      C7A80707 
 1602      6F79E607 
 1602      C9CD07
 1603 22cd 23CDAA22 		.ascii	"#\315\252\"G\004~\007\020\375\346\001\303(-\315\007"
 1603      47047E07 
 1603      10FDE601 
 1603      C3282DCD 
 1603      07
 1604 22de 23CDE522 		.ascii	"#\315\345\"\303M\015\355C}\\\315\252\"G\004>\376\017"
 1604      C34D0DED 
 1604      437D5CCD 
 1604      AA224704 
 1604      3EFE0F
 1605 22f1 10FD477E 		.ascii	"\020\375G~\375NW\313A \001\240\313Q \002\250/w\303\333"
 1605      FD4E57CB 
 1605      412001A0 
 1605      CB512002 
 1605      A82F77C3 
 1606 2306 0BCD1423 		.ascii	"\013\315\024#G\305\315\024#Y\301QO\311\315\325-\332"
 1606      47C5CD14 
 1606      2359C151 
 1606      4FC9CDD5 
 1606      2DDA
 1607 2318 F9240E01 		.ascii	"\371$\016\001\310\016\377\311\337\376,\302\212\034\347"
 1607      C80EFFC9 
 1607      DFFE2CC2 
 1607      8A1CE7
 1608 2327 CD821CCD 		.ascii	"\315\202\034\315\356\033\357*=8~\376\2010\005\357\002"
 1608      EE1BEF2A 
 1608      3D387EFE 
 1608      813005EF 
 1608      02
 1609 2338 3818A1EF 		.ascii	"8\030\241\357\24386\203\357\305\0028\315}$\305\3571"
 1609      A3383683 
 1609      EFC50238 
 1609      CD7D24C5 
 1609      EF31
 1610 234a E104387E 		.ascii	"\341\0048~\376\2000\010\357\002\0028\301\303\334\"\357"
 1610      FE803008 
 1610      EF020238 
 1610      C1C3DC22 
 1610      EF
 1611 235b C201C002 		.ascii	"\302\001\300\002\003\001\340\017\300\0011\340\0011\340"
 1611      0301E00F 
 1611      C00131E0 
 1611      0131E0
 1612 236a A0C10238 		.ascii	"\240\301\0028\3754b\315\224\036o\345\315\224\036\341"
 1612      FD3462CD 
 1612      941E6FE5 
 1612      CD941EE1 
 1613 237a 67227D5C 		.ascii	"g\"}\\\301\303 $\337\376,(\006\315\356\033\303w$\347"
 1613      C1C32024 
ARM GAS  /tmp/cc4GLRty.s 			page 70


 1613      DFFE2C28 
 1613      06CDEE1B 
 1613      C37724E7 
 1614 238e CD821CCD 		.ascii	"\315\202\034\315\356\033\357\305\242\004\037100\000"
 1614      EE1BEFC5 
 1614      A2041F31 
 1614      303000
 1615 239d 060238C3 		.ascii	"\006\0028\303w$\300\002\301\0021*\341\001\341*\017\340"
 1615      7724C002 
 1615      C102312A 
 1615      E101E12A 
 1615      0FE0
 1616 23af 052AE001 		.ascii	"\005*\340\001=8~\376\2010\007\357\002\0028\303w$\315"
 1616      3D387EFE 
 1616      813007EF 
 1616      020238C3 
 1616      7724CD
 1617 23c2 7D24C5EF 		.ascii	"}$\305\357\002\341\001\005\301\002\0011\341\004\302"
 1617      02E10105 
 1617      C1020131 
 1617      E104C2
 1618 23d1 020131E1 		.ascii	"\002\0011\341\004\342\345\340\003\242\0041\037\305\002"
 1618      04E2E5E0 
 1618      03A20431 
 1618      1FC502
 1619 23e0 20C002C2 		.ascii	" \300\002\302\002\301\345\004\340\342\004\017\341\001"
 1619      02C1E504 
 1619      E0E2040F 
 1619      E101
 1620 23ee C102E004 		.ascii	"\301\002\340\004\342\345\004\003\302*\341*\017\0028"
 1620      E2E50403 
 1620      C22AE12A 
 1620      0F0238
 1621 23fd 1AFE81C1 		.ascii	"\032\376\201\301\332w$\305\357\0018:}\\\315(-\357\300"
 1621      DA7724C5 
 1621      EF01383A 
 1621      7D5CCD28 
 1621      2DEFC0
 1622 2410 0F01383A 		.ascii	"\017\0018:~\\\315(-\357\305\017\340\3458\301\005(<\030"
 1622      7E5CCD28 
 1622      2DEFC50F 
 1622      E0E538C1 
 1622      05283C18 
 1623 2424 14EFE131 		.ascii	"\024\357\3411\343\004\342\344\004\003\301\002\344\004"
 1623      E304E2E4 
 1623      0403C102 
 1623      E404
 1624 2432 E2E3040F 		.ascii	"\342\343\004\017\302\0028\305\357\300\002\341\01718"
 1624      C20238C5 
 1624      EFC002E1 
 1624      0F3138
 1625 2441 3A7D5CCD 		.ascii	":}\\\315(-\357\003\340\342\017\300\001\3408:~\\\315"
 1625      282DEF03 
 1625      E0E20FC0 
 1625      01E0383A 
 1625      7E5CCD
 1626 2454 282DEF03 		.ascii	"(-\357\0038\315\267$\301\020\306\357\002\002\0018:}"
ARM GAS  /tmp/cc4GLRty.s 			page 71


 1626      38CDB724 
 1626      C110C6EF 
 1626      02020138 
 1626      3A7D
 1627 2466 5CCD282D 		.ascii	"\\\315(-\357\003\0018:~\\\315(-\357\0038\315\267$\303"
 1627      EF030138 
 1627      3A7E5CCD 
 1627      282DEF03 
 1627      38CDB724 
 1628 247b 4D0DEF31 		.ascii	"M\015\3571(42\000\001\005\345\001\005*8\315\325-8\006"
 1628      28343200 
 1628      0105E501 
 1628      052A38CD 
 1628      D52D3806 
 1629 248f E6FCC604 		.ascii	"\346\374\306\0040\002>\374\365\315(-\357\345\001\005"
 1629      30023EFC 
 1629      F5CD282D 
 1629      EFE50105 
 1630 249f 311FC402 		.ascii	"1\037\304\0021\242\004\037\301\001\300\0021\0041\017"
 1630      31A2041F 
 1630      C101C002 
 1630      3104310F 
 1631 24af A1031BC3 		.ascii	"\241\003\033\303\0028\301\311\315\007#y\2700\006i\325"
 1631      0238C1C9 
 1631      CD072379 
 1631      B8300669 
 1631      D5
 1632 24c0 AF5F1807 		.ascii	"\257_\030\007\261\310hA\325\026\000`x\037\2058\003\274"
 1632      B1C86841 
 1632      D5160060 
 1632      781F8538 
 1632      03BC
 1633 24d2 3807944F 		.ascii	"8\007\224O\331\301\305\030\004O\325\331\301*}\\x\204"
 1633      D9C1C518 
 1633      044FD5D9 
 1633      C12A7D5C 
 1633      7884
 1634 24e4 47793C85 		.ascii	"Gy<\2058\015(\015=O\315\345\"\331y\020\331\321\311("
 1634      380D280D 
 1634      3D4FCDE5 
 1634      22D97910 
 1634      D9D1C928 
 1635 24f8 F3CF0ADF 		.ascii	"\363\317\012\337\006\000\305O!\226%\315\334\026y\322"
 1635      0600C54F 
 1635      219625CD 
 1635      DC1679D2 
 1636 2508 84260600 		.ascii	"\204&\006\000N\011\351\315t\000\003\376\015\312\212"
 1636      4E09E9CD 
 1636      740003FE 
 1636      0DCA8A
 1637 2517 1CFE2220 		.ascii	"\034\376\" \363\315t\000\376\"\311\347\376( \006\315"
 1637      F3CD7400 
 1637      FE22C9E7 
 1637      FE282006 
 1637      CD
 1638 2528 791CDFFE 		.ascii	"y\034\337\376)\302\212\034\375\313\001~\311\315\007"
 1638      29C28A1C 
ARM GAS  /tmp/cc4GLRty.s 			page 72


 1638      FDCB017E 
 1638      C9CD07
 1639 2537 232A365C 		.ascii	"#*6\\\021\000\001\031y\017\017\017\346\340\250_y\346"
 1639      11000119 
 1639      790F0F0F 
 1639      E6E0A85F 
 1639      79E6
 1640 2549 18EE4057 		.ascii	"\030\356@W\006`\305\325\345\032\256(\004< \032=O\006"
 1640      0660C5D5 
 1640      E51AAE28 
 1640      043C201A 
 1640      3D4F06
 1641 255c 0714231A 		.ascii	"\007\024#\032\256\251 \017\020\367\301\301\301>\200"
 1641      AEA9200F 
 1641      10F7C1C1 
 1641      C13E80
 1642 256b 90010100 		.ascii	"\220\001\001\000\367\022\030\012\341\021\010\000\031"
 1642      F712180A 
 1642      E1110800 
 1642      19
 1643 2578 D1C110D3 		.ascii	"\321\301\020\323H\303\262*\315\007#y\017\017\017O\346"
 1643      48C3B22A 
 1643      CD072379 
 1643      0F0F0F4F 
 1643      E6
 1644 2589 E0A86F79 		.ascii	"\340\250oy\346\003\356Xg~\303(-\"\034(O.\362+\022\250"
 1644      E603EE58 
 1644      677EC328 
 1644      2D221C28 
 1644      4F2EF22B 
 1645 259f 56A557A7 		.ascii	"V\245W\247\204\246\217\304\346\252\277\253\307\251\316"
 1645      84A68FC4 
 1645      E6AABFAB 
 1645      C7A9CE
 1646 25ae 00E7C3FF 		.ascii	"\000\347\303\377$\337#\345\001\000\000\315\017% \033"
 1646      24DF23E5 
 1646      010000CD 
 1646      0F25201B 
 1647 25be CD0F2528 		.ascii	"\315\017%(\373\3150%(\021\367\341\325~#\022\023\376"
 1647      FBCD3025 
 1647      2811F7E1 
 1647      D57E2312 
 1647      13FE
 1648 25d0 2220F87E 		.ascii	"\" \370~#\376\"(\362\013\321!;\\\313\266\313~\304\262"
 1648      23FE2228 
 1648      F20BD121 
 1648      3B5CCBB6 
 1648      CB7EC4B2 
 1649 25e4 2AC31227 		.ascii	"*\303\022'\347\315\373$\376)\302\212\034\347\303\022"
 1649      E7CDFB24 
 1649      FE29C28A 
 1649      1CE7C312 
 1650 25f4 27C3BD27 		.ascii	"'\303\275'\3150%((\355Kv\\\315+-\357\241\01747\026\004"
 1650      CD302528 
 1650      28ED4B76 
 1650      5CCD2B2D 
 1650      EFA10F34 
ARM GAS  /tmp/cc4GLRty.s 			page 73


 1651 260b 34804100 		.ascii	"4\200A\000\000\2002\002\241\00318\315\242-\355Cv\\~"
 1651      00803202 
 1651      A1033138 
 1651      CDA22DED 
 1651      43765C7E 
 1652 261f A72803D6 		.ascii	"\247(\003\326\020w\030\011\3150%(\004\357\24384\347"
 1652      10771809 
 1652      CD302528 
 1652      04EFA338 
 1652      34E7
 1653 2631 C3C32601 		.ascii	"\303\303&\001Z\020\347\376#\312\015'!;\\\313\266\313"
 1653      5A10E7FE 
 1653      23CA0D27 
 1653      213B5CCB 
 1653      B6CB
 1654 2643 7E281FCD 		.ascii	"~(\037\315\216\002\016\000 \023\315\036\0030\016\025"
 1654      8E020E00 
 1654      2013CD1E 
 1654      03300E15 
 1655 2653 5FCD3303 		.ascii	"_\3153\003\365\001\001\000\367\361\022\016\001\006\000"
 1655      F5010100 
 1655      F7F1120E 
 1655      010600
 1656 2662 CDB22AC3 		.ascii	"\315\262*\303\022'\315\"%\3045%\347\303\333%\315\"%"
 1656      1227CD22 
 1656      25C43525 
 1656      E7C3DB25 
 1656      CD2225
 1657 2675 C48025E7 		.ascii	"\304\200%\347\030H\315\"%\304\313\"\347\030?\315\210"
 1657      1848CD22 
 1657      25C4CB22 
 1657      E7183FCD 
 1657      88
 1658 2686 2C3056FE 		.ascii	",0V\376A0<\3150% #\315\233,\337\001\006\000\315U\026"
 1658      41303CCD 
 1658      30252023 
 1658      CD9B2CDF 
 1658      010600CD 
 1659 269c 23360E23 		.ascii	"#6\016#\353*e\\\016\005\247\355B\"e\\\355\260\353+\315"
 1659      EB2A655C 
 1659      0E05A7ED 
 1659      4222655C 
 1659      EDB0EB2B 
 1660 26b1 7700180E 		.ascii	"w\000\030\016\337#~\376\016 \372#\315\2643\"]\\\375"
 1660      DF237EFE 
 1660      0E20FA23 
 1660      CDB43322 
 1660      5D5CFD
 1661 26c4 CB01F618 		.ascii	"\313\001\366\030\024\315\262(\332.\034\314\226):;\\"
 1661      14CDB228 
 1661      DA2E1CCC 
 1661      96293A3B 
 1661      5C
 1662 26d5 FEC03804 		.ascii	"\376\3008\004#\315\2643\0303\001\333\011\376-('\001"
 1662      23CDB433 
 1662      183301DB 
 1662      09FE2D28 
ARM GAS  /tmp/cc4GLRty.s 			page 74


 1662      2701
 1663 26e7 1810FEAE 		.ascii	"\030\020\376\256( \326\257\332\212\034\001\360\004\376"
 1663      2820D6AF 
 1663      DA8A1C01 
 1663      F004FE
 1664 26f6 142814D2 		.ascii	"\024(\024\322\212\034\006\020\306\334O\376\3370\002"
 1664      8A1C0610 
 1664      C6DC4FFE 
 1664      DF3002
 1665 2705 CBB1FEEE 		.ascii	"\313\261\376\3568\002\313\271\305\347\303"
 1665      3802CBB9 
 1665      C5E7C3
 1666 2710 FF24DFFE 		.ascii	"\377$\337\376( \014\375\313\001v \027\315R*\347\030"
 1666      28200CFD 
 1666      CB017620 
 1666      17CD522A 
 1666      E718
 1667 2722 F006004F 		.ascii	"\360\006\000O!\225'\315\334\0260\006N!\355&\011F\321"
 1667      219527CD 
 1667      DC163006 
 1667      4E21ED26 
 1667      0946D1
 1668 2735 7AB8383A 		.ascii	"z\2708:\247\312\030\000\305!;\\{\376\355 \006\313v "
 1668      A7CA1800 
 1668      C5213B5C 
 1668      7BFEED20 
 1668      06CB7620 
 1669 2749 021E99D5 		.ascii	"\002\036\231\325\3150%(\011{\346?G\357;8\030\011{\375"
 1669      CD302528 
 1669      097BE63F 
 1669      47EF3B38 
 1669      18097BFD 
 1670 275d AE01E640 		.ascii	"\256\001\346@\302\212\034\321!;\\\313\366\313{ \002"
 1670      C28A1CD1 
 1670      213B5CCB 
 1670      F6CB7B20 
 1670      02
 1671 276e CBB6C118 		.ascii	"\313\266\301\030\301\325y\375\313\001v \025\346?\306"
 1671      C1D579FD 
 1671      CB017620 
 1671      15E63FC6 
 1672 277e 084FFE10 		.ascii	"\010O\376\020 \004\313\361\030\0108\327\376\027(\002"
 1672      2004CBF1 
 1672      180838D7 
 1672      FE172802 
 1673 278e CBF9C5E7 		.ascii	"\313\371\305\347\303\377$+\317-\303*\304/\305^\306="
 1673      C3FF242B 
 1673      CF2DC32A 
 1673      C42FC55E 
 1673      C63D
 1674 27a0 CE3ECC3C 		.ascii	"\316>\314<\315\307\311\310\312\311\313\305\307\306\310"
 1674      CDC7C9C8 
 1674      CAC9CBC5 
 1674      C7C6C8
 1675 27af 00060808 		.ascii	"\000\006\010\010\012\002\003\005\005\005\005\005\005"
 1675      0A020305 
 1675      05050505 
ARM GAS  /tmp/cc4GLRty.s 			page 75


 1675      05
 1676 27bc 06CD3025 		.ascii	"\006\3150% 5\347\315\215,\322\212\034\347\376$\365 "
 1676      2035E7CD 
 1676      8D2CD28A 
 1676      1CE7FE24 
 1676      F520
 1677 27ce 01E7FE28 		.ascii	"\001\347\376( \022\347\376)(\020\315\373$\337\376, "
 1677      2012E7FE 
 1677      292810CD 
 1677      FB24DFFE 
 1677      2C20
 1678 27e0 03E718F5 		.ascii	"\003\347\030\365\376)\302\212\034\347!;\\\313\266\361"
 1678      FE29C28A 
 1678      1CE7213B 
 1678      5CCBB6F1 
 1679 27f0 2802CBF6 		.ascii	"(\002\313\366\303\022'\347\346\337G\347\326$O \001\347"
 1679      C31227E7 
 1679      E6DF47E7 
 1679      D6244F20 
 1679      01E7
 1680 2802 E7E52A53 		.ascii	"\347\345*S\\+\021\316\000\305\315\206\035\3010\002\317"
 1680      5C2B11CE 
 1680      00C5CD86 
 1680      1DC13002 
 1680      CF
 1681 2813 18E5CDAB 		.ascii	"\030\345\315\253(\346\337\270 \010\315\253(\326$\271"
 1681      28E6DFB8 
 1681      2008CDAB 
 1681      28D624B9 
 1682 2823 280CE12B 		.ascii	"(\014\341+\021\000\002\305\315\213\031\301\030\327\247"
 1682      110002C5 
 1682      CD8B19C1 
 1682      18D7A7
 1683 2832 CCAB28D1 		.ascii	"\314\253(\321\321\355S]\\\315\253(\345\376)(B#~\376"
 1683      D1ED535D 
 1683      5CCDAB28 
 1683      E5FE2928 
 1683      42237EFE 
 1684 2846 0E164028 		.ascii	"\016\026@(\007+\315\253(#\026\000#\345\325\315\373$"
 1684      072BCDAB 
 1684      28231600 
 1684      23E5D5CD 
 1684      FB24
 1685 2858 F1FDAE01 		.ascii	"\361\375\256\001\346@ +\341\353*e\\\001\005\000\355"
 1685      E640202B 
 1685      E1EB2A65 
 1685      5C010500 
 1685      ED
 1686 2869 4222655C 		.ascii	"B\"e\\\355\260\353+\315\253(\376)(\015\345\337\376,"
 1686      EDB0EB2B 
 1686      CDAB28FE 
 1686      29280DE5 
 1686      DFFE2C
 1687 287c 200DE7E1 		.ascii	" \015\347\341\315\253(\030\276\345\337\376)(\002\317"
 1687      CDAB2818 
 1687      BEE5DFFE 
 1687      292802CF 
ARM GAS  /tmp/cc4GLRty.s 			page 76


 1688 288c 19D1EB22 		.ascii	"\031\321\353\"]\\*\013\\\343\"\013\\\325\347\347\315"
 1688      5D5C2A0B 
 1688      5CE3220B 
 1688      5CD5E7E7 
 1688      CD
 1689 289d FB24E122 		.ascii	"\373$\341\"]\\\341\"\013\\\347\303\022'#~\376!8\372"
 1689      5D5CE122 
 1689      0B5CE7C3 
 1689      1227237E 
 1689      FE2138FA 
 1690 28b1 C9FDCB01 		.ascii	"\311\375\313\001\366\337\315\215,\322\212\034\345\346"
 1690      F6DFCD8D 
 1690      2CD28A1C 
 1690      E5E6
 1691 28bf 1F4FE7E5 		.ascii	"\037O\347\345\376(((\313\361\376$(\021\313\351\315\210"
 1691      FE282828 
 1691      CBF1FE24 
 1691      2811CBE9 
 1691      CD88
 1692 28d1 2C300FCD 		.ascii	",0\017\315\210,0\026\313\261\347\030\366\347\375\313"
 1692      882C3016 
 1692      CBB1E718 
 1692      F6E7FDCB 
 1693 28e1 01B63A0C 		.ascii	"\001\266:\014\\\247(\006\3150%\302Q)A\3150% \010y\346"
 1693      5CA72806 
 1693      CD3025C2 
 1693      512941CD 
 1693      30252008 
 1694 28f7 E0CBFF4F 		.ascii	"\340\313\377O\0307*K\\~\346\177(-\271 \"\027\207\362"
 1694      18372A4B 
 1694      5C7EE67F 
 1694      282DB920 
 1694      221787F2 
 1695 290b 3F293830 		.ascii	"?)80\321\325\345#\032\023\376 (\372\366 \276(\364\366"
 1695      D1D5E523 
 1695      1A13FE20 
 1695      28FAF620 
 1695      BE28F4F6 
 1696 291f 80BE2006 		.ascii	"\200\276 \006\032\315\210,0\025\341\305\315\270\031"
 1696      1ACD882C 
 1696      3015E1C5 
 1696      CDB819
 1697 292e EBC118CE 		.ascii	"\353\301\030\316\313\370\321\337\376((\011\313\350\030"
 1697      CBF8D1DF 
 1697      FE282809 
 1697      CBE818
 1698 293d 0DD1D1D1 		.ascii	"\015\321\321\321\345\337\315\210,0\003\347\030\370\341"
 1698      E5DFCD88 
 1698      2C3003E7 
 1698      18F8E1
 1699 294c CB10CB70 		.ascii	"\313\020\313p\311*\013\\~\376)\312\357(~\366`G#~\376"
 1699      C92A0B5C 
 1699      7EFE29CA 
 1699      EF287EF6 
 1699      6047237E 
 1700 2961 0E28072B 		.ascii	"\016(\007+\315\253(#\313\250x\271(\022#####\315\253"
 1700      CDAB2823 
ARM GAS  /tmp/cc4GLRty.s 			page 77


 1700      CBA878B9 
 1700      28122323 
 1700      232323CD 
 1701 2976 28FE29CA 		.ascii	"(\376)\312\357(\315\253(\030\331\313i \014#\355[e\\"
 1701      EF28CDAB 
 1701      2818D9CB 
 1701      69200C23 
 1701      ED5B655C 
 1702 298a CDC033EB 		.ascii	"\315\3003\353\"e\\\321\321\257<\311\257G\313y K\313"
 1702      22655CD1 
 1702      D1AF3CC9 
 1702      AF47CB79 
 1702      204BCB
 1703 299d 7E200E3C 		.ascii	"~ \016<#N#F#\353\315\262*\337\303I*###F\313q(\012\005"
 1703      234E2346 
 1703      23EBCDB2 
 1703      2ADFC349 
 1703      2A232323 
 1704 29b7 28E8EBDF 		.ascii	"(\350\353\337\376( a\353\353\030$\345\337\341\376,("
 1704      FE282061 
 1704      EBEB1824 
 1704      E5DFE1FE 
 1704      2C28
 1705 29c9 20CB7928 		.ascii	" \313y(R\313q \006\376) <\347\311\376)(l\376\314 2\337"
 1705      52CB7120 
 1705      06FE2920 
 1705      3CE7C9FE 
 1705      29286CFE 
 1706 29e1 2B225D5C 		.ascii	"+\"]\\\030^!\000\000\345\347\341y\376\300 \011\337\376"
 1706      185E2100 
 1706      00E5E7E1 
 1706      79FEC020 
 1706      09DFFE
 1707 29f4 292851FE 		.ascii	")(Q\376\314(\345\305\345\315\356*\343\353\315\314*8"
 1707      CC28E5C5 
 1707      E5CDEE2A 
 1707      E3EBCDCC 
 1707      2A38
 1708 2a06 190BCDF4 		.ascii	"\031\013\315\364*\011\321\301\020\263\313y f\345\313"
 1708      2A09D1C1 
 1708      10B3CB79 
 1708      2066E5CB 
 1709 2a16 71201342 		.ascii	"q \023BK\337\376)(\002\317\002\347\341\021\005\000\315"
 1709      4BDFFE29 
 1709      2802CF02 
 1709      E7E11105 
 1709      00CD
 1710 2a28 F42A09C9 		.ascii	"\364*\011\311\315\356*\343\315\364*\301\011#BK\353\315"
 1710      CDEE2AE3 
 1710      CDF42AC1 
 1710      0923424B 
 1710      EBCD
 1711 2a3a B12ADFFE 		.ascii	"\261*\337\376)(\007\376, \333\315R*\347\376((\370\375"
 1711      292807FE 
 1711      2C20DBCD 
 1711      522AE7FE 
 1711      2828F8FD 
ARM GAS  /tmp/cc4GLRty.s 			page 78


 1712 2a4e CB01B6C9 		.ascii	"\313\001\266\311\3150%\304\361+\347\376)(P\325\257\365"
 1712      CD3025C4 
 1712      F12BE7FE 
 1712      292850D5 
 1712      AFF5
 1713 2a60 C5110100 		.ascii	"\305\021\001\000\337\341\376\314(\027\361\315\315*\365"
 1713      DFE1FECC 
 1713      2817F1CD 
 1713      CD2AF5
 1714 2a6f 5059E5DF 		.ascii	"PY\345\337\341\376\314(\011\376)\302\212\034bk\030\023"
 1714      E1FECC28 
 1714      09FE29C2 
 1714      8A1C626B 
 1714      1813
 1715 2a81 E5E7E1FE 		.ascii	"\345\347\341\376)(\014\361\315\315*\365\337`i\376) "
 1715      29280CF1 
 1715      CDCD2AF5 
 1715      DF6069FE 
 1715      2920
 1716 2a93 E6F1E319 		.ascii	"\346\361\343\031+\343\247\355R\001\000\0008\007#\247"
 1716      2BE3A7ED 
 1716      52010000 
 1716      380723A7 
 1717 2aa3 FA202A44 		.ascii	"\372 *DM\321\375\313\001\266\3150%\310\257\375\313\001"
 1717      4DD1FDCB 
 1717      01B6CD30 
 1717      25C8AFFD 
 1717      CB01
 1718 2ab5 B6C5CDA9 		.ascii	"\266\305\315\2513\301*e\\w#s#r#q#p#\"e\\\311\257\325"
 1718      33C12A65 
 1718      5C772373 
 1718      23722371 
 1718      23702322 
 1719 2ace E5F5CD82 		.ascii	"\345\365\315\202\034\361\3150%(\022\365\315\231\036"
 1719      1CF1CD30 
 1719      252812F5 
 1719      CD991E
 1720 2add D178B137 		.ascii	"\321x\2617(\005\341\345\247\355Bz\336\000\341\321\311"
 1720      2805E1E5 
 1720      A7ED427A 
 1720      DE00E1D1 
 1720      C9
 1721 2aee EB235E23 		.ascii	"\353#^#V\311\3150%\310\315\2510\332\025\037\311*M\\"
 1721      56C9CD30 
 1721      25C8CDA9 
 1721      30DA151F 
 1721      C92A4D5C 
 1722 2b02 FDCB374E 		.ascii	"\375\3137N(^\001\005\000\003#~\376 (\3720\013\376\020"
 1722      285E0105 
 1722      0003237E 
 1722      FE2028FA 
 1722      300BFE10 
 1723 2b16 3811FE16 		.ascii	"8\021\376\0260\015#\030\355\315\210,8\347\376$\312\300"
 1723      300D2318 
 1723      EDCD882C 
 1723      38E7FE24 
 1723      CAC0
ARM GAS  /tmp/cc4GLRty.s 			page 79


 1724 2b28 2B792A59 		.ascii	"+y*Y\\+\315U\026##\353\325*M\\\033\326\006G(\021#~\376"
 1724      5C2BCD55 
 1724      162323EB 
 1724      D52A4D5C 
 1724      1BD60647 
 1725 2b41 2138FAF6 		.ascii	"!8\372\366 \023\022\020\364\366\200\022>\300*M\\\256"
 1725      20131210 
 1725      F4F68012 
 1725      3EC02A4D 
 1725      5CAE
 1726 2b53 F620E1CD 		.ascii	"\366 \341\315\352+\345\357\0028\341\001\005\000\247"
 1726      EA2BE5EF 
 1726      0238E101 
 1726      0500A7
 1727 2b62 ED421840 		.ascii	"\355B\030@\375\313\001v(\006\021\006\000\031\030\347"
 1727      FDCB0176 
 1727      28061106 
 1727      001918E7 
 1728 2b72 2A4D5CED 		.ascii	"*M\\\355Kr\\\375\3137F 0x\261\310\345\367\325\305T]"
 1728      4B725CFD 
 1728      CB374620 
 1728      3078B1C8 
 1728      E5F7D5C5 
 1729 2b88 233620ED 		.ascii	"#6 \355\270\345\315\361+\341\343\247\355B\0110\002D"
 1729      B8E5CDF1 
 1729      2BE1E3A7 
 1729      ED420930 
 1729      0244
 1730 2b9a 4DE3EB78 		.ascii	"M\343\353x\261(\002\355\260\301\321\341\353x\261\310"
 1730      B12802ED 
 1730      B0C1D1E1 
 1730      EB78B1C8 
 1731 2baa D5EDB0E1 		.ascii	"\325\355\260\341\311+++~\345\305\315\306+\301\341\003"
 1731      C92B2B2B 
 1731      7EE5C5CD 
 1731      C62BC1E1 
 1731      03
 1732 2bbb 0303C3E8 		.ascii	"\003\003\303\350\031>\337*M\\\246\365\315\361+\353\011"
 1732      193EDF2A 
 1732      4D5CA6F5 
 1732      CDF12BEB 
 1732      09
 1733 2bcc C52B224D 		.ascii	"\305+\"M\\\003\003\003*Y\\+\315U\026*M\\\301\305\003"
 1733      5C030303 
 1733      2A595C2B 
 1733      CD55162A 
 1733      4D5CC1C5 
 1734 2be1 EDB8EB23 		.ascii	"\355\270\353#\301p+q\361+w*Y\\+\311*e\\+F+N+V+^+~\""
 1734      C1702B71 
 1734      F12B772A 
 1734      595C2BC9 
 1734      2A655C2B 
 1735 2bff 655CC9CD 		.ascii	"e\\\311\315\262(\302\212\034\3150% \010\313\261\315"
 1735      B228C28A 
 1735      1CCD3025 
 1735      2008CBB1 
 1735      CD
ARM GAS  /tmp/cc4GLRty.s 			page 80


 1736 2c10 9629CDEE 		.ascii	"\226)\315\356\0338\010\305\315\270\031\315\350\031\301"
 1736      1B3808C5 
 1736      CDB819CD 
 1736      E819C1
 1737 2c1f CBF90600 		.ascii	"\313\371\006\000\305!\001\000\313q \002.\005\353\347"
 1737      C5210100 
 1737      CB712002 
 1737      2E05EBE7 
 1738 2c2f 26FFCDCC 		.ascii	"&\377\315\314*\332 *\341\305$\345`i\315\364*\353\337"
 1738      2ADA202A 
 1738      E1C524E5 
 1738      6069CDF4 
 1738      2AEBDF
 1739 2c42 FE2C28E8 		.ascii	"\376,(\350\376) \273\347\301yh&\000##)\031\332\025\037"
 1739      FE2920BB 
 1739      E7C17968 
 1739      26002323 
 1739      2919DA15 
 1740 2c57 D5C5E544 		.ascii	"\325\305\345DM*Y\\+\315U\026#w\301\013\013\013#q#p\301"
 1740      4D2A595C 
 1740      2BCD5516 
 1740      2377C10B 
 1740      0B0B2371 
 1741 2c6e 78237762 		.ascii	"x#wbk\0336\000\313q(\0026 \301\355\270\301p+q+= \370"
 1741      6B1B3600 
 1741      CB712802 
 1741      3620C1ED 
 1741      B8C1702B 
 1742 2c87 C9CD1B2D 		.ascii	"\311\315\033-?\330\376A?\320\376[\330\376a?\320\376"
 1742      3FD8FE41 
 1742      3FD0FE5B 
 1742      D8FE613F 
 1742      D0FE
 1743 2c99 7BC9FEC4 		.ascii	"{\311\376\304 \031\021\000\000\347\3261\316\000 \012"
 1743      20191100 
 1743      00E7D631 
 1743      CE00200A 
 1744 2ca9 EB3FED6A 		.ascii	"\353?\355j\332\2551\353\030\357BK\303+-\376.(\017\315"
 1744      DAAD31EB 
 1744      18EF424B 
 1744      C32B2DFE 
 1744      2E280FCD 
 1745 2cbd 3B2DFE2E 		.ascii	";-\376. (\347\315\033-8\"\030\012\347\315\033-\332\212"
 1745      2028E7CD 
 1745      1B2D3822 
 1745      180AE7CD 
 1745      1B2DDA8A 
 1746 2cd1 1CEFA038 		.ascii	"\034\357\2408\357\241\300\0028\337\315\"-8\013\357\340"
 1746      EFA1C002 
 1746      38DFCD22 
 1746      2D380BEF 
 1746      E0
 1747 2ce2 A405C004 		.ascii	"\244\005\300\004\0178\347\030\357\376E(\003\376e\300"
 1747      0F38E718 
 1747      EFFE4528 
 1747      03FE65C0 
 1748 2cf2 06FFE7FE 		.ascii	"\006\377\347\376+(\005\376- \002\004\347\315\033-8\313"
ARM GAS  /tmp/cc4GLRty.s 			page 81


 1748      2B2805FE 
 1748      2D200204 
 1748      E7CD1B2D 
 1748      38CB
 1749 2d04 C5CD3B2D 		.ascii	"\305\315;-\315\325-\301\332\2551\247\372\2551\004(\002"
 1749      CDD52DC1 
 1749      DAAD31A7 
 1749      FAAD3104 
 1749      2802
 1750 2d16 ED44C34F 		.ascii	"\355D\303O-\3760\330\376:?\311\315\033-\330\3260O\006"
 1750      2DFE30D8 
 1750      FE3A3FC9 
 1750      CD1B2DD8 
 1750      D6304F06 
 1751 2d2a 00FD213A 		.ascii	"\000\375!:\\\257_QHG\315\266*\3578\247\311\365\357\240"
 1751      5CAF5F51 
 1751      4847CDB6 
 1751      2AEF38A7 
 1751      C9F5EFA0 
 1752 2d3e 38F1CD22 		.ascii	"8\361\315\"-\330\357\001\244\004\0178\315t\000\030\361"
 1752      2DD8EF01 
 1752      A4040F38 
 1752      CD740018 
 1752      F1
 1753 2d4f 070F3002 		.ascii	"\007\0170\002/<\365!\222\\\315\0135\357\2448\361\313"
 1753      2F3CF521 
 1753      925CCD0B 
 1753      35EFA438 
 1753      F1CB
 1754 2d61 3F300DF5 		.ascii	"?0\015\365\357\301\340\000\004\0043\002\005\3418\361"
 1754      EFC1E000 
 1754      04043302 
 1754      05E138F1 
 1755 2d71 2808F5EF 		.ascii	"(\010\365\3571\0048\361\030\345\357\0028\311#N#~\251"
 1755      310438F1 
 1755      18E5EF02 
 1755      38C9234E 
 1755      237EA9
 1756 2d84 915F237E 		.ascii	"\221_#~\211\251W\311\016\000\3456\000#q#{\251\221w#"
 1756      89A957C9 
 1756      0E00E536 
 1756      00237123 
 1756      7BA99177 
 1757 2d99 7A89A977 		.ascii	"z\211\251w#6\000\341\311\3578~\247(\005\357\242\017"
 1757      233600E1 
 1757      C9EF387E 
 1757      A72805EF 
 1757      A20F
 1758 2dab 2738EF02 		.ascii	"'8\357\0028\345\325\353F\315\177-\257\220\313yBK{\321"
 1758      38E5D5EB 
 1758      46CD7F2D 
 1758      AF90CB79 
 1758      424B7BD1 
 1759 2dbf E1C95717 		.ascii	"\341\311W\027\237_O\257G\315\266*\3574\357\032 \232"
 1759      9F5F4FAF 
 1759      47CDB62A 
 1759      EF34EF1A 
ARM GAS  /tmp/cc4GLRty.s 			page 82


 1759      209A
 1760 2dd1 85042738 		.ascii	"\205\004'8\315\242-\330\365\005\004(\003\3617\311\361"
 1760      CDA22DD8 
 1760      F5050428 
 1760      03F137C9 
 1760      F1
 1761 2de2 C9EF3136 		.ascii	"\311\35716\000\01317\000\015\0028>0\327\311*8>-\327"
 1761      000B3137 
 1761      000D0238 
 1761      3E30D7C9 
 1761      2A383E2D 
 1762 2df7 EFA0C3C4 		.ascii	"\357\240\303\304\305\0028\331\345\331\3571'\302\003"
 1762      C50238D9 
 1762      E5D9EF31 
 1762      27C203
 1763 2e06 E201C202 		.ascii	"\342\001\302\0028~\247 G\315\177-\006\020z\247 \006"
 1763      387EA720 
 1763      47CD7F2D 
 1763      06107AA7 
 1763      2006
 1764 2e18 B3280953 		.ascii	"\263(\011S\006\010\325\331\321\331\030W\357\3428~\326"
 1764      0608D5D9 
 1764      D1D91857 
 1764      EFE2387E 
 1764      D6
 1765 2e29 7ECDC12D 		.ascii	"~\315\301-W:\254\\\2222\254\\z\315O-\3571'\301\003\341"
 1765      573AAC5C 
 1765      9232AC5C 
 1765      7ACD4F2D 
 1765      EF3127C1 
 1766 2e3f 38CDD52D 		.ascii	"8\315\325-\3452\241\\=\027\237<!\253\\w#\206w\341\303"
 1766      E532A15C 
 1766      3D179F3C 
 1766      21AB5C77 
 1766      238677E1 
 1767 2e54 CF2ED680 		.ascii	"\317.\326\200\376\0348\023\315\301-\326\007G!\254\\"
 1767      FE1C3813 
 1767      CDC12DD6 
 1767      074721AC 
 1767      5C
 1768 2e65 867778ED 		.ascii	"\206wx\355D\315O-\030\222\353\315\272/\331\313\372}"
 1768      44CD4F2D 
 1768      1892EBCD 
 1768      BA2FD9CB 
 1768      FA7D
 1769 2e77 D9D68047 		.ascii	"\331\326\200G\313#\313\022\331\313\023\313\022\331!"
 1769      CB23CB12 
 1769      D9CB13CB 
 1769      12D921
 1770 2e86 AA5C0E05 		.ascii	"\252\\\016\005~\217'w+\015 \370\020\347\257!\246\\\021"
 1770      7E8F2777 
 1770      2B0D20F8 
 1770      10E7AF21 
 1770      A65C11
 1771 2e99 A15C0609 		.ascii	"\241\\\006\011\355o\016\377\355o \004\015\014 \012\022"
 1771      ED6F0EFF 
 1771      ED6F2004 
ARM GAS  /tmp/cc4GLRty.s 			page 83


 1771      0D0C200A 
 1771      12
 1772 2eaa 13FD3471 		.ascii	"\023\3754q\3754r\016\000\313@(\001#\020\347:\253\\\326"
 1772      FD34720E 
 1772      00CB4028 
 1772      012310E7 
 1772      3AAB5CD6 
 1773 2ebe 09380AFD 		.ascii	"\0118\012\3755q>\004\375\276o\030A\357\002\3428\353"
 1773      35713E04 
 1773      FDBE6F18 
 1773      41EF02E2 
 1773      38EB
 1774 2ed0 CDBA2FD9 		.ascii	"\315\272/\331>\200\225.\000\313\372\331\315\335/\375"
 1774      3E80952E 
 1774      00CBFAD9 
 1774      CDDD2FFD 
 1775 2ee0 7E71FE08 		.ascii	"~q\376\0108\006\331\313\022\331\030 \001\000\002{\315"
 1775      3806D9CB 
 1775      12D91820 
 1775      0100027B 
 1775      CD
 1776 2ef1 8B2F5F7A 		.ascii	"\213/_z\315\213/W\305\331\301\020\361!\241\\y\375Nq"
 1776      CD8B2F57 
 1776      C5D9C110 
 1776      F121A15C 
 1776      79FD4E71 
 1777 2f05 0977FD34 		.ascii	"\011w\3754q\030\323\365!\241\\\375Nq\006\000\011A\361"
 1777      7118D3F5 
 1777      21A15CFD 
 1777      4E710600 
 1777      0941F1
 1778 2f18 2B7ECE00 		.ascii	"+~\316\000w\247(\005\376\012?0\010\020\3616\001\004"
 1778      77A72805 
 1778      FE0A3F30 
 1778      0810F136 
 1778      0104
 1779 2f2a FD3472FD 		.ascii	"\3754r\375pq\357\0028\331\341\331\355K\253\\!\241\\"
 1779      7071EF02 
 1779      38D9E1D9 
 1779      ED4BAB5C 
 1779      21A15C
 1780 2f3d 78FE0938 		.ascii	"x\376\0118\004\376\3748&\247\314\357\025\257\220\372"
 1780      04FEFC38 
 1780      26A7CCEF 
 1780      15AF90FA 
 1781 2f4d 522F4718 		.ascii	"R/G\030\014y\247(\003~#\015\315\357\025\020\364y\247"
 1781      0C79A728 
 1781      037E230D 
 1781      CDEF1510 
 1781      F479A7
 1782 2f60 C8043E2E 		.ascii	"\310\004>.\327>0\020\373A\030\346P\025\006\001\315J"
 1782      D73E3010 
 1782      FB4118E6 
 1782      50150601 
 1782      CD4A
 1783 2f72 2F3E45D7 		.ascii	"/>E\327Jy\247\362\203/\355DO>-\030\002>+\327\006\000"
 1783      4A79A7F2 
ARM GAS  /tmp/cc4GLRty.s 			page 84


 1783      832FED44 
 1783      4F3E2D18 
 1783      023E2BD7 
 1784 2f88 C31B1AD5 		.ascii	"\303\033\032\325o&\000]T))\031)Y\031L}\321\311~6\000"
 1784      6F26005D 
 1784      54292919 
 1784      2959194C 
 1784      7DD1C97E 
 1785 2f9e A7C823CB 		.ascii	"\247\310#\313~\313\376+\310\305\001\005\000\011AO7+"
 1785      7ECBFE2B 
 1785      C8C50105 
 1785      0009414F 
 1785      372B
 1786 2fb0 7E2FCE00 		.ascii	"~/\316\000w\020\370y\301\311\345\365N#Fw#yN\305#N#F"
 1786      7710F879 
 1786      C1C9E5F5 
 1786      4E234677 
 1786      23794EC5 
 1787 2fc8 EB575ED5 		.ascii	"\353W^\325#V#^\325\331\321\341\301\331#V#^\361\341\311"
 1787      2356235E 
 1787      D5D9D1E1 
 1787      C1D92356 
 1787      235EF1E1 
 1788 2fdd A7C8FE21 		.ascii	"\247\310\376!0\026\305G\331\313-\313\032\313\033\331"
 1788      3016C547 
 1788      D9CB2DCB 
 1788      1ACB1BD9 
 1789 2fed CB1ACB1B 		.ascii	"\313\032\313\033\020\362\301\320\315\0040\300\331\257"
 1789      10F2C1D0 
 1789      CD0430C0 
 1789      D9AF
 1790 2ffb 2E00575D 		.ascii	".\000W]\331\021\000\000\311\034\300\024\300\331\034"
 1790      D9110000 
 1790      C91CC014 
 1790      C0D91C
 1791 300a 200114D9 		.ascii	" \001\024\331\311\353\315n4\353\032\266 &\325#\345#"
 1791      C9EBCD6E 
 1791      34EB1AB6 
 1791      2026D523 
 1791      E523
 1792 301c 5E235623 		.ascii	"^#V###~#N#F\341\353\011\353\216\017\316\000 \013\237"
 1792      23237E23 
 1792      4E2346E1 
 1792      EB09EB8E 
 1792      0FCE0020 
 1793 3032 77237323 		.ascii	"w#s#r+++\321\311+\321\315\2232\331\345\331\325\345\315"
 1793      722B2B2B 
 1793      D1C92BD1 
 1793      CD9332D9 
 1793      E5D9D5E5 
 1794 3047 9B2F47EB 		.ascii	"\233/G\353\315\233/O\2700\003xA\353\365\220\315\272"
 1794      CD9B2F4F 
 1794      B8300378 
 1794      41EBF590 
 1794      CDBA
 1795 3059 2FCDDD2F 		.ascii	"/\315\335/\361\341w\345ha\031\331\353\355J\353|\215"
 1795      F1E177E5 
ARM GAS  /tmp/cc4GLRty.s 			page 85


 1795      686119D9 
 1795      EBED4AEB 
 1795      7C8D
 1796 306b 6F1FADD9 		.ascii	"o\037\255\331\353\341\0370\010>\001\315\335/4(#\331"
 1796      EBE11F30 
 1796      083E01CD 
 1796      DD2F3428 
 1796      23D9
 1797 307d 7DE680D9 		.ascii	"}\346\200\331#w+(\037{\355D?_z/\316\000W\331{/\316\000"
 1797      23772B28 
 1797      1F7BED44 
 1797      3F5F7A2F 
 1797      CE0057D9 
 1798 3095 5F7A2FCE 		.ascii	"_z/\316\0000\007\037\3314\312\2551\331W\331\257\303"
 1798      0030071F 
 1798      D934CAAD 
 1798      31D957D9 
 1798      AFC3
 1799 30a7 5531C506 		.ascii	"U1\305\006\020|M!\000\000)8\012\313\021\0270\003\031"
 1799      107C4D21 
 1799      00002938 
 1799      0ACB1117 
 1799      300319
 1800 30ba 380210F3 		.ascii	"8\002\020\363\301\311\315\3514\330#\256\313\376+\311"
 1800      C1C9CDE9 
 1800      34D823AE 
 1800      CBFE2BC9 
 1801 30ca 1AB62022 		.ascii	"\032\266 \"\325\345\325\315\177-\353\343A\315\177-x"
 1801      D5E5D5CD 
 1801      7F2DEBE3 
 1801      41CD7F2D 
 1801      78
 1802 30db A94FE1CD 		.ascii	"\251O\341\315\2510\353\3418\012z\263 \001O\315\216-"
 1802      A930EBE1 
 1802      380A7AB3 
 1802      20014FCD 
 1802      8E2D
 1803 30ed D1C9D1CD 		.ascii	"\321\311\321\315\2232\257\315\3000\330\331\345\331\325"
 1803      9332AFCD 
 1803      C030D8D9 
 1803      E5D9D5
 1804 30fc EBCDC030 		.ascii	"\353\315\3000\3538Z\345\315\272/x\247\355b\331\345\355"
 1804      EB385AE5 
 1804      CDBA2F78 
 1804      A7ED62D9 
 1804      E5ED
 1805 310e 62D90621 		.ascii	"b\331\006!\030\0210\005\031\331\355Z\331\331\313\034"
 1805      18113005 
 1805      19D9ED5A 
 1805      D9D9CB1C 
 1806 311e CB1DD9CB 		.ascii	"\313\035\331\313\034\313\035\331\313\030\313\031\331"
 1806      1CCB1DD9 
 1806      CB18CB19 
 1806      D9
 1807 312b CB191F10 		.ascii	"\313\031\037\020\344\353\331\353\331\301\341x\201 \001"
 1807      E4EBD9EB 
 1807      D9C1E178 
ARM GAS  /tmp/cc4GLRty.s 			page 86


 1807      812001
 1808 313a A73D3F17 		.ascii	"\247=?\027?\037\362F10h\247< \0108\006\331\313z\331"
 1808      3F1FF246 
 1808      313068A7 
 1808      3C200838 
 1808      06D9CB7A 
 1809 314f 205C77D9 		.ascii	" \\w\331x\3310\025~\247>\200(\001\257\331\242\315\373"
 1809      78D93015 
 1809      7EA73E80 
 1809      2801AFD9 
 1809      A2CDFB
 1810 3162 2F077738 		.ascii	"/\007w8.#w+\030)\006 \331\313z\331 \022\007\313\023"
 1810      2E23772B 
 1810      18290620 
 1810      D9CB7AD9 
 1810      201207CB 
 1811 3177 CB12D9CB 		.ascii	"\313\022\331\313\023\313\022\3315(\327\020\352\030\327"
 1811      13CB12D9 
 1811      3528D710 
 1811      EA18D7
 1812 3186 17300CCD 		.ascii	"\0270\014\315\0040 \007\331\026\200\3314(\030\345#\331"
 1812      04302007 
 1812      D91680D9 
 1812      342818E5 
 1812      23D9
 1813 3198 D5D9C178 		.ascii	"\325\331\301x\027\313\026\037w#q#r#s\341\321\331\341"
 1813      17CB161F 
 1813      77237123 
 1813      722373E1 
 1813      D1D9E1
 1814 31ab D9C9CF05 		.ascii	"\331\311\317\005\315\2232\353\257\315\30008\364\353"
 1814      CD9332EB 
 1814      AFCDC030 
 1814      38F4EB
 1815 31ba CDC030D8 		.ascii	"\315\3000\330\331\345\331\325\345\315\272/\331\345`"
 1815      D9E5D9D5 
 1815      E5CDBA2F 
 1815      D9E560
 1816 31c9 69D96168 		.ascii	"i\331ah\257\006\337\030\020\027\313\021\331\313\021"
 1816      AF06DF18 
 1816      1017CB11 
 1816      D9CB11
 1817 31d8 CB10D929 		.ascii	"\313\020\331)\331\355j\3318\020\355R\331\355R\3310\017"
 1817      D9ED6AD9 
 1817      3810ED52 
 1817      D9ED52D9 
 1817      300F
 1818 31ea 19D9ED5A 		.ascii	"\031\331\355Z\331\247\030\010\247\355R\331\355R\331"
 1818      D9A71808 
 1818      A7ED52D9 
 1818      ED52D9
 1819 31f9 3704FAD2 		.ascii	"7\004\372\3221\365(\341_Q\331YP\361\313\030\361\313"
 1819      31F528E1 
 1819      5F51D959 
 1819      50F1CB18 
 1819      F1CB
 1820 320b 18D9C1E1 		.ascii	"\030\331\301\341x\221\303=1~\247\310\376\2010\0066\000"
ARM GAS  /tmp/cc4GLRty.s 			page 87


 1820      7891C33D 
 1820      317EA7C8 
 1820      FE813006 
 1820      3600
 1821 321d 3E201851 		.ascii	"> \030Q\376\221 \032###>\200\246+\266+ \003>\200\256"
 1821      FE91201A 
 1821      2323233E 
 1821      80A62BB6 
 1821      2B20033E 
 1822 3233 2B203677 		.ascii	"+ 6w#6\377+>\030\03030,\325/\306\221#V#^++\016\000\313"
 1822      2336FF2B 
 1822      3E181833 
 1822      302CD52F 
 1822      C6912356 
 1823 324e 7A28010D 		.ascii	"z(\001\015\313\372\006\010\220\2008\004Z\026\000\220"
 1823      CBFA0608 
 1823      90803804 
 1823      5A160090 
 1824 325e 280747CB 		.ascii	"(\007G\313:\313\033\020\372\315\216-\321\311~\326\240"
 1824      3ACB1B10 
 1824      FACD8E2D 
 1824      D1C97ED6 
 1824      A0
 1825 326f F0ED44D5 		.ascii	"\360\355D\325\353+G\3138\3138\3138(\0056\000+\020\373"
 1825      EB2B47CB 
 1825      38CB38CB 
 1825      38280536 
 1825      002B10FB 
 1826 3283 E6072809 		.ascii	"\346\007(\011G>\377\313'\020\374\246w\353\321\311\315"
 1826      473EFFCB 
 1826      2710FCA6 
 1826      77EBD1C9 
 1826      CD
 1827 3294 9632EB7E 		.ascii	"\2262\353~\247\300\325\315\177-\257#w+w\006\221z\247"
 1827      A7C0D5CD 
 1827      7F2DAF23 
 1827      772B7706 
 1827      917AA7
 1828 32a7 2008B342 		.ascii	" \010\263B(\020SX\006\211\353\005)0\374\313\011\313"
 1828      28105358 
 1828      0689EB05 
 1828      2930FCCB 
 1828      09CB
 1829 32b9 1CCB1DEB 		.ascii	"\034\313\035\353+s+r+p\321\311\000\260\000@\260\000"
 1829      2B732B72 
 1829      2B70D1C9 
 1829      00B00040 
 1829      B000
 1830 32cb 013000F1 		.ascii	"\0010\000\361I\017\332\242@\260\000\012\2176<4\2413"
 1830      490FDAA2 
 1830      40B0000A 
 1830      8F363C34 
 1830      A133
 1831 32dd 0F30CA30 		.ascii	"\0170\3120\2571Q8\0335$5;5;5;5;5;5;5\0240-5;5;5;5;5"
 1831      AF315138 
 1831      1B352435 
 1831      3B353B35 
ARM GAS  /tmp/cc4GLRty.s 			page 88


 1831      3B353B35 
 1832 3301 3B353B35 		.ascii	";5;5\2345\3365\2744E6n4i6\3365t6\2657\2527\332738C8"
 1832      9C35DE35 
 1832      BC344536 
 1832      6E346936 
 1832      DE357436 
 1833 331f E2371337 		.ascii	"\3427\0237\3046\2576J8\2224j4\2544\2454\2634\0376\311"
 1833      C436AF36 
 1833      4A389234 
 1833      6A34AC34 
 1833      A534B334 
 1834 3336 350135C0 		.ascii	"5\0015\3003\2406\2066\3063z6\0065\3714\2336\2037\024"
 1834      33A03686 
 1834      36C6337A 
 1834      360635F9 
 1834      349B3683 
 1835 334c 32A2334F 		.ascii	"2\2423O-\2272I4\0334-4\0174\315\2775x2g\\\331\343\331"
 1835      2D973249 
 1835      341B342D 
 1835      340F34CD 
 1835      BF357832 
 1836 3365 ED53655C 		.ascii	"\355Se\\\331~#\345\247\362\2003W\346`\017\017\017\017"
 1836      D97E23E5 
 1836      A7F28033 
 1836      57E6600F 
 1836      0F0F0F
 1837 3378 C67C6F7A 		.ascii	"\306|oz\346\037\030\016\376\0300\010\331\001\373\377"
 1837      E61F180E 
 1837      FE183008 
 1837      D901FBFF 
 1838 3388 545D09D9 		.ascii	"T]\011\331\007o\021\3272&\000\031^#V!e3\343\325\331"
 1838      076F11D7 
 1838      32260019 
 1838      5E235621 
 1838      6533E3D5 
 1839 339d ED4B665C 		.ascii	"\355Kf\\\311\361:g\\\331\030\303\325\345\001\005\000"
 1839      C9F13A67 
 1839      5CD918C3 
 1839      D5E50105 
 1839      00
 1840 33ae CD051FE1 		.ascii	"\315\005\037\341\321\311\355[e\\\315\3003\355Se\\\311"
 1840      D1C9ED5B 
 1840      655CCDC0 
 1840      33ED5365 
 1840      5CC9
 1841 33c0 CDA933ED 		.ascii	"\315\2513\355\260\311bk\315\2513\331\345\331\343\305"
 1841      B0C9626B 
 1841      CDA933D9 
 1841      E5D9E3C5 
 1842 33d0 7EE6C007 		.ascii	"~\346\300\007\007O\014~\346? \002#~\306P\022>\005\221"
 1842      074F0C7E 
 1842      E63F2002 
 1842      237EC650 
 1842      123E0591 
 1843 33e4 23130600 		.ascii	"#\023\006\000\355\260\301\343\331\341\331G\257\005\310"
 1843      EDB0C1E3 
 1843      D9E1D947 
ARM GAS  /tmp/cc4GLRty.s 			page 89


 1843      AF05C8
 1844 33f3 121318FA 		.ascii	"\022\023\030\372\247\310\365\325\021\000\000\315\310"
 1844      A7C8F5D5 
 1844      110000CD 
 1844      C8
 1845 3400 33D1F13D 		.ascii	"3\321\361=\030\362O\007\007\201O\006\000\011\311\325"
 1845      18F24F07 
 1845      07814F06 
 1845      0009C9D5 
 1846 3410 2A685CCD 		.ascii	"*h\\\315\0064\315\3003\341\311bk\331\345!\3052\331\315"
 1846      0634CDC0 
 1846      33E1C962 
 1846      6BD9E521 
 1846      C532D9CD 
 1847 3424 F733CDC8 		.ascii	"\3673\315\3103\331\341\331\311\345\353*h\\\315\0064"
 1847      33D9E1D9 
 1847      C9E5EB2A 
 1847      685CCD06 
 1847      34
 1848 3435 EBCDC033 		.ascii	"\353\315\3003\353\341\311\006\005\032N\353\022q#\023"
 1848      EBE1C906 
 1848      051A4EEB 
 1848      12712313 
 1849 3445 10F7EBC9 		.ascii	"\020\367\353\311G\315^31\017\300\002\240\3021\340\004"
 1849      47CD5E33 
 1849      310FC002 
 1849      A0C231E0 
 1849      04
 1850 3456 E2C10338 		.ascii	"\342\301\0038\315\3063\315b3\017\001\302\0025\356\341"
 1850      CDC633CD 
 1850      62330F01 
 1850      C20235EE 
 1850      E1
 1851 3467 0338C906 		.ascii	"\0038\311\006\377\030\006\315\3514\330\006\000~\247"
 1851      FF1806CD 
 1851      E934D806 
 1851      007EA7
 1852 3476 280B2378 		.ascii	"(\013#x\346\200\266\027?\037w+\311\325\345\315\177-"
 1852      E680B617 
 1852      3F1F772B 
 1852      C9D5E5CD 
 1852      7F2D
 1853 3488 E178B12F 		.ascii	"\341x\261/O\315\216-\321\311\315\3514\330\325\021\001"
 1853      4FCD8E2D 
 1853      D1C9CDE9 
 1853      34D8D511 
 1853      01
 1854 3499 0023CB16 		.ascii	"\000#\313\026+\237O\315\216-\321\311\315\231\036\355"
 1854      2B9F4FCD 
 1854      8E2DD1C9 
 1854      CD991EED 
 1855 34a9 781804CD 		.ascii	"x\030\004\315\231\036\012\303(-\315\231\036!+-\345\305"
 1855      991E0AC3 
 1855      282DCD99 
 1855      1E212B2D 
 1855      E5C5
 1856 34bb C9CDF12B 		.ascii	"\311\315\361+\013x\261 #\032\315\215,8\011\326\2208"
ARM GAS  /tmp/cc4GLRty.s 			page 90


 1856      0B78B120 
 1856      231ACD8D 
 1856      2C3809D6 
 1856      9038
 1857 34cd 19FE1530 		.ascii	"\031\376\0250\025<=\207\207\207\376\2500\014\355K{\\"
 1857      153C3D87 
 1857      8787FEA8 
 1857      300CED4B 
 1857      7B5C
 1858 34df 814F3001 		.ascii	"\201O0\001\004\303+-\317\011\345\305G~#\266#\266#\266"
 1858      04C32B2D 
 1858      CF09E5C5 
 1858      477E23B6 
 1858      23B623B6 
 1859 34f3 78C1E1C0 		.ascii	"x\301\341\3007\311\315\3514\330>\377\030\006\315\351"
 1859      37C9CDE9 
 1859      34D83EFF 
 1859      1806CDE9 
 1860 3503 341805AF 		.ascii	"4\030\005\257#\256+\007\345>\000w#w#\027w\037#w#w\341"
 1860      23AE2B07 
 1860      E53E0077 
 1860      23772317 
 1860      771F2377 
 1861 351a C9EBCDE9 		.ascii	"\311\353\315\3514\353\3307\030\347\353\315\3514\353"
 1861      34EBD837 
 1861      18E7EBCD 
 1861      E934EB
 1862 3529 D0A718DE 		.ascii	"\320\247\030\336\353\315\3514\353\320\325\033\257\022"
 1862      EBCDE934 
 1862      EBD0D51B 
 1862      AF12
 1863 3537 1B12D1C9 		.ascii	"\033\022\321\311x\326\010\313W \001=\0170\010\365\345"
 1863      78D608CB 
 1863      5720013D 
 1863      0F3008F5 
 1863      E5
 1864 3548 CD3C34D1 		.ascii	"\315<4\321\353\361\313W \007\017\365\315\0170\0303\017"
 1864      EBF1CB57 
 1864      20070FF5 
 1864      CD0F3018 
 1864      330F
 1865 355a F5CDF12B 		.ascii	"\365\315\361+\325\305\315\361+\341|\265\343x \013\261"
 1865      D5C5CDF1 
 1865      2BE17CB5 
 1865      E378200B 
 1865      B1
 1866 356b C12804F1 		.ascii	"\301(\004\361?\030\026\361\030\023\261(\015\032\226"
 1866      3F1816F1 
 1866      1813B128 
 1866      0D1A96
 1867 357a 380920ED 		.ascii	"8\011 \355\013\023#\343+\030\337\301\361\247\365\357"
 1867      0B1323E3 
 1867      2B18DFC1 
 1867      F1A7F5EF 
 1868 358a A038F1F5 		.ascii	"\2408\361\365\334\0015\361\365\324\3714\361\017\324"
 1868      DC0135F1 
 1868      F5D4F934 
ARM GAS  /tmp/cc4GLRty.s 			page 91


 1868      F10FD4
 1869 3599 0135C9CD 		.ascii	"\0015\311\315\361+\325\305\315\361+\341\345\325\305"
 1869      F12BD5C5 
 1869      CDF12BE1 
 1869      E5D5C5
 1870 35a8 09444DF7 		.ascii	"\011DM\367\315\262*\301\341x\261(\002\355\260\301\341"
 1870      CDB22AC1 
 1870      E178B128 
 1870      02EDB0C1 
 1870      E1
 1871 35b9 78B12802 		.ascii	"x\261(\002\355\260*e\\\021\373\377\345\031\321\311\315"
 1871      EDB02A65 
 1871      5C11FBFF 
 1871      E519D1C9 
 1871      CD
 1872 35ca D52D380E 		.ascii	"\325-8\016 \014\365\001\001\000\367\361\022\315\262"
 1872      200CF501 
 1872      0100F7F1 
 1872      12CDB2
 1873 35d9 2AEBC9CF 		.ascii	"*\353\311\317\012*]\\\345x\306\343\237\365\315\361+"
 1873      0A2A5D5C 
 1873      E578C6E3 
 1873      9FF5CDF1 
 1873      2B
 1874 35ea D503F7E1 		.ascii	"\325\003\367\341\355S]\\\325\355\260\353+6\015\375\313"
 1874      ED535D5C 
 1874      D5EDB0EB 
 1874      2B360DFD 
 1874      CB
 1875 35fb 01BECDFB 		.ascii	"\001\276\315\373$\337\376\015 \007\341\361\375\256\001"
 1875      24DFFE0D 
 1875      2007E1F1 
 1875      FDAE01
 1876 360a E640C28A 		.ascii	"\346@\302\212\034\"]\\\375\313\001\376\315\373$\341"
 1876      1C225D5C 
 1876      FDCB01FE 
 1876      CDFB24E1 
 1877 361a 225D5C18 		.ascii	"\"]\\\030\240\001\001\000\367\"[\\\345*Q\\\345>\377"
 1877      A0010100 
 1877      F7225B5C 
 1877      E52A515C 
 1877      E53EFF
 1878 362d CD0116CD 		.ascii	"\315\001\026\315\343-\341\315\025\026\321*[\\\247\355"
 1878      E32DE1CD 
 1878      1516D12A 
 1878      5B5CA7ED 
 1879 363d 52444DCD 		.ascii	"RDM\315\262*\353\311\315\224\036\376\020\322\237\036"
 1879      B22AEBC9 
 1879      CD941EFE 
 1879      10D29F1E 
 1880 364d 2A515CE5 		.ascii	"*Q\\\345\315\001\026\315\346\025\001\000\0000\003\014"
 1880      CD0116CD 
 1880      E6150100 
 1880      0030030C 
 1881 365d F712CDB2 		.ascii	"\367\022\315\262*\341\315\025\026\303\2775\315\361+"
 1881      2AE1CD15 
 1881      16C3BF35 
ARM GAS  /tmp/cc4GLRty.s 			page 92


 1881      CDF12B
 1882 366c 78B12801 		.ascii	"x\261(\001\032\303(-\315\361+\303+-\331\345!g\\5\341"
 1882      1AC3282D 
 1882      CDF12BC3 
 1882      2B2DD9E5 
 1882      21675C35 
 1883 3681 200423D9 		.ascii	" \004#\331\311\331^{\027\237W\031\331\311\023\023\032"
 1883      C9D95E7B 
 1883      179F5719 
 1883      D9C91313 
 1883      1A
 1884 3692 1B1BA720 		.ascii	"\033\033\247 \357\331#\331\311\361\331\343\331\311\357"
 1884      EFD923D9 
 1884      C9F1D9E3 
 1884      D9C9EF
 1885 36a1 C00231E0 		.ascii	"\300\0021\340\005'\340\001\300\004\003\3408\311\357"
 1885      0527E001 
 1885      C00403E0 
 1885      38C9EF
 1886 36b0 31360004 		.ascii	"16\000\004:8\3111:\300\003\340\0010\000\003\241\003"
 1886      3A38C931 
 1886      3AC003E0 
 1886      01300003 
 1886      A103
 1887 36c2 38C9EF3D 		.ascii	"8\311\357=4\3618\252;)\0041'\303\0031\017\241\003\210"
 1887      34F138AA 
 1887      3B290431 
 1887      27C30331 
 1887      0FA10388 
 1888 36d6 13365865 		.ascii	"\0236Xef\235xe@\242`2\311\347!\367\257$\353/\260\260"
 1888      669D7865 
 1888      40A26032 
 1888      C9E721F7 
 1888      AF24EB2F 
 1889 36ec 14EE7EBB 		.ascii	"\024\356~\273\224X\361:~\370\317\3438\315\325- \007"
 1889      9458F13A 
 1889      7EF8CFE3 
 1889      38CDD52D 
 1889      2007
 1890 36fe 38038630 		.ascii	"8\003\2060\011\317\0058\007\2260\004\355Dw\311\357\002"
 1890      09CF0538 
 1890      07963004 
 1890      ED4477C9 
 1890      EF02
 1891 3710 A038C9EF 		.ascii	"\2408\311\357=17\000\0048\317\011\240\0028~6\200\315"
 1891      3D313700 
 1891      0438CF09 
 1891      A002387E 
 1891      3680CD
 1892 3723 282DEF34 		.ascii	"(-\35748\000\003\00114\360L\314\314\315\0037\000\010"
 1892      38000301 
 1892      3134F04C 
 1892      CCCCCD03 
 1892      370008
 1893 3736 01A10301 		.ascii	"\001\241\003\00184\357\0014\3601r\027\370\004\001\242"
 1893      3834EF01 
 1893      34F03172 
ARM GAS  /tmp/cc4GLRty.s 			page 93


 1893      17F80401 
 1893      A2
 1894 3747 03A20331 		.ascii	"\003\242\003142 \004\242\003\214\021\254\024\011V\332"
 1894      34322004 
 1894      A2038C11 
 1894      AC140956 
 1894      DA
 1895 3758 A55930C5 		.ascii	"\245Y0\305\\\220\252\236poa\241\313\332\226\2441\237"
 1895      5C90AA9E 
 1895      706F61A1 
 1895      CBDA96A4 
 1895      319F
 1896 376a B4E7A0FE 		.ascii	"\264\347\240\376\\\374\352\033C\3126\355\247\234~^\360"
 1896      5CFCEA1B 
 1896      43CA36ED 
 1896      A79C7E5E 
 1896      F0
 1897 377b 6E238093 		.ascii	"n#\200\223\004\0178\311\357=4\356\"\371\203n\0041\242"
 1897      040F38C9 
 1897      EF3D34EE 
 1897      22F9836E 
 1897      0431A2
 1898 378e 0F270331 		.ascii	"\017'\0031\0171\0171*\241\00317\300\000\004\0028\311"
 1898      0F310F31 
 1898      2AA10331 
 1898      37C00004 
 1898      0238C9
 1899 37a1 A1030136 		.ascii	"\241\003\0016\000\002\0338\311\3579*\241\003\340\000"
 1899      00021B38 
 1899      C9EF392A 
 1899      A103E000 
 1900 37b1 061B3303 		.ascii	"\006\0333\003\357911\0041\017\241\003\206\024\346\\"
 1900      EF393131 
 1900      04310FA1 
 1900      038614E6 
 1900      5C
 1901 37c2 1F0BA38F 		.ascii	"\037\013\243\2178\356\351\025c\273#\356\222\015\315"
 1901      38EEE915 
 1901      63BB23EE 
 1901      920DCD
 1902 37d1 EDF1235D 		.ascii	"\355\361#]\033\352\0048\311\3571\037\001 \0058\311\315"
 1902      1BEA0438 
 1902      C9EF311F 
 1902      01200538 
 1902      C9CD
 1903 37e3 97327EFE 		.ascii	"\2272~\376\2018\016\357\241\033\001\00516\243\001\000"
 1903      81380EEF 
 1903      A11B0105 
 1903      3136A301 
 1903      00
 1904 37f4 061B3303 		.ascii	"\006\0333\003\357\240\00111\0041\017\241\003\214\020"
 1904      EFA00131 
 1904      3104310F 
 1904      A1038C10 
 1905 3804 B2130E55 		.ascii	"\262\023\016U\344\215X9\274[\230\375\236\0006u\240\333"
 1905      E48D5839 
 1905      BC5B98FD 
ARM GAS  /tmp/cc4GLRty.s 			page 94


 1905      9E003675 
 1905      A0DB
 1906 3816 E8B46342 		.ascii	"\350\264cB\304\346\265\0116\276\3516s\033]\354\330\336"
 1906      C4E6B509 
 1906      36BEE936 
 1906      731B5DEC 
 1906      D8DE
 1907 3828 63BEF061 		.ascii	"c\276\360a\241\263\014\004\0178\311\35711\004\241\003"
 1907      A1B30C04 
 1907      0F38C9EF 
 1907      313104A1 
 1907      03
 1908 3839 1B28A10F 		.ascii	"\033(\241\017\005$1\0178\311\357\"\243\003\0338\311"
 1908      0524310F 
 1908      38C9EF22 
 1908      A3031B38 
 1908      C9
 1909 384a EF313000 		.ascii	"\35710\000\036\2428\357\00110\000\007%\0048\303\304"
 1909      1EA238EF 
 1909      01313000 
 1909      07250438 
 1909      C3C4
 1910 385c 36023130 		.ascii	"6\00210\000\011\240\0017\000\006\241\001\005\002\241"
 1910      0009A001 
 1910      370006A1 
 1910      010502A1 
 1911 386c 38C9FFFF 		.ascii	"8\311\377\377\377\377\377\377\377\377\377\377\377\377"
 1911      FFFFFFFF 
 1911      FFFFFFFF 
 1911      FFFF
 1912 387a FFFFFFFF 		.ascii	"\377\377\377\377\377\377\377\377\377\377\377\377\377"
 1912      FFFFFFFF 
 1912      FFFFFFFF 
 1912      FF
 1913 3887 FFFFFFFF 		.ascii	"\377\377\377\377\377\377\377\377\377\377\377\377\377"
 1913      FFFFFFFF 
 1913      FFFFFFFF 
 1913      FF
 1914 3894 FFFFFFFF 		.ascii	"\377\377\377\377\377\377\377\377\377\377\377\377\377"
 1914      FFFFFFFF 
 1914      FFFFFFFF 
 1914      FF
 1915 38a1 FFFFFFFF 		.ascii	"\377\377\377\377\377\377\377\377\377\377\377\377\377"
 1915      FFFFFFFF 
 1915      FFFFFFFF 
 1915      FF
 1916 38ae FFFFFFFF 		.ascii	"\377\377\377\377\377\377\377\377\377\377\377\377\377"
 1916      FFFFFFFF 
 1916      FFFFFFFF 
 1916      FF
 1917 38bb FFFFFFFF 		.ascii	"\377\377\377\377\377\377\377\377\377\377\377\377\377"
 1917      FFFFFFFF 
 1917      FFFFFFFF 
 1917      FF
 1918 38c8 FFFFFFFF 		.ascii	"\377\377\377\377\377\377\377\377\377\377\377\377\377"
 1918      FFFFFFFF 
 1918      FFFFFFFF 
ARM GAS  /tmp/cc4GLRty.s 			page 95


 1918      FF
 1919 38d5 FFFFFFFF 		.ascii	"\377\377\377\377\377\377\377\377\377\377\377\377\377"
 1919      FFFFFFFF 
 1919      FFFFFFFF 
 1919      FF
 1920 38e2 FFFFFFFF 		.ascii	"\377\377\377\377\377\377\377\377\377\377\377\377\377"
 1920      FFFFFFFF 
 1920      FFFFFFFF 
 1920      FF
 1921 38ef FFFFFFFF 		.ascii	"\377\377\377\377\377\377\377\377\377\377\377\377\377"
 1921      FFFFFFFF 
 1921      FFFFFFFF 
 1921      FF
 1922 38fc FFFFFFFF 		.ascii	"\377\377\377\377\377\377\377\377\377\377\377\377\377"
 1922      FFFFFFFF 
 1922      FFFFFFFF 
 1922      FF
 1923 3909 FFFFFFFF 		.ascii	"\377\377\377\377\377\377\377\377\377\377\377\377\377"
 1923      FFFFFFFF 
 1923      FFFFFFFF 
 1923      FF
 1924 3916 FFFFFFFF 		.ascii	"\377\377\377\377\377\377\377\377\377\377\377\377\377"
 1924      FFFFFFFF 
 1924      FFFFFFFF 
 1924      FF
 1925 3923 FFFFFFFF 		.ascii	"\377\377\377\377\377\377\377\377\377\377\377\377\377"
 1925      FFFFFFFF 
 1925      FFFFFFFF 
 1925      FF
 1926 3930 FFFFFFFF 		.ascii	"\377\377\377\377\377\377\377\377\377\377\377\377\377"
 1926      FFFFFFFF 
 1926      FFFFFFFF 
 1926      FF
 1927 393d FFFFFFFF 		.ascii	"\377\377\377\377\377\377\377\377\377\377\377\377\377"
 1927      FFFFFFFF 
 1927      FFFFFFFF 
 1927      FF
 1928 394a FFFFFFFF 		.ascii	"\377\377\377\377\377\377\377\377\377\377\377\377\377"
 1928      FFFFFFFF 
 1928      FFFFFFFF 
 1928      FF
 1929 3957 FFFFFFFF 		.ascii	"\377\377\377\377\377\377\377\377\377\377\377\377\377"
 1929      FFFFFFFF 
 1929      FFFFFFFF 
 1929      FF
 1930 3964 FFFFFFFF 		.ascii	"\377\377\377\377\377\377\377\377\377\377\377\377\377"
 1930      FFFFFFFF 
 1930      FFFFFFFF 
 1930      FF
 1931 3971 FFFFFFFF 		.ascii	"\377\377\377\377\377\377\377\377\377\377\377\377\377"
 1931      FFFFFFFF 
 1931      FFFFFFFF 
 1931      FF
 1932 397e FFFFFFFF 		.ascii	"\377\377\377\377\377\377\377\377\377\377\377\377\377"
 1932      FFFFFFFF 
 1932      FFFFFFFF 
 1932      FF
ARM GAS  /tmp/cc4GLRty.s 			page 96


 1933 398b FFFFFFFF 		.ascii	"\377\377\377\377\377\377\377\377\377\377\377\377\377"
 1933      FFFFFFFF 
 1933      FFFFFFFF 
 1933      FF
 1934 3998 FFFFFFFF 		.ascii	"\377\377\377\377\377\377\377\377\377\377\377\377\377"
 1934      FFFFFFFF 
 1934      FFFFFFFF 
 1934      FF
 1935 39a5 FFFFFFFF 		.ascii	"\377\377\377\377\377\377\377\377\377\377\377\377\377"
 1935      FFFFFFFF 
 1935      FFFFFFFF 
 1935      FF
 1936 39b2 FFFFFFFF 		.ascii	"\377\377\377\377\377\377\377\377\377\377\377\377\377"
 1936      FFFFFFFF 
 1936      FFFFFFFF 
 1936      FF
 1937 39bf FFFFFFFF 		.ascii	"\377\377\377\377\377\377\377\377\377\377\377\377\377"
 1937      FFFFFFFF 
 1937      FFFFFFFF 
 1937      FF
 1938 39cc FFFFFFFF 		.ascii	"\377\377\377\377\377\377\377\377\377\377\377\377\377"
 1938      FFFFFFFF 
 1938      FFFFFFFF 
 1938      FF
 1939 39d9 FFFFFFFF 		.ascii	"\377\377\377\377\377\377\377\377\377\377\377\377\377"
 1939      FFFFFFFF 
 1939      FFFFFFFF 
 1939      FF
 1940 39e6 FFFFFFFF 		.ascii	"\377\377\377\377\377\377\377\377\377\377\377\377\377"
 1940      FFFFFFFF 
 1940      FFFFFFFF 
 1940      FF
 1941 39f3 FFFFFFFF 		.ascii	"\377\377\377\377\377\377\377\377\377\377\377\377\377"
 1941      FFFFFFFF 
 1941      FFFFFFFF 
 1941      FF
 1942 3a00 FFFFFFFF 		.ascii	"\377\377\377\377\377\377\377\377\377\377\377\377\377"
 1942      FFFFFFFF 
 1942      FFFFFFFF 
 1942      FF
 1943 3a0d FFFFFFFF 		.ascii	"\377\377\377\377\377\377\377\377\377\377\377\377\377"
 1943      FFFFFFFF 
 1943      FFFFFFFF 
 1943      FF
 1944 3a1a FFFFFFFF 		.ascii	"\377\377\377\377\377\377\377\377\377\377\377\377\377"
 1944      FFFFFFFF 
 1944      FFFFFFFF 
 1944      FF
 1945 3a27 FFFFFFFF 		.ascii	"\377\377\377\377\377\377\377\377\377\377\377\377\377"
 1945      FFFFFFFF 
 1945      FFFFFFFF 
 1945      FF
 1946 3a34 FFFFFFFF 		.ascii	"\377\377\377\377\377\377\377\377\377\377\377\377\377"
 1946      FFFFFFFF 
 1946      FFFFFFFF 
 1946      FF
 1947 3a41 FFFFFFFF 		.ascii	"\377\377\377\377\377\377\377\377\377\377\377\377\377"
ARM GAS  /tmp/cc4GLRty.s 			page 97


 1947      FFFFFFFF 
 1947      FFFFFFFF 
 1947      FF
 1948 3a4e FFFFFFFF 		.ascii	"\377\377\377\377\377\377\377\377\377\377\377\377\377"
 1948      FFFFFFFF 
 1948      FFFFFFFF 
 1948      FF
 1949 3a5b FFFFFFFF 		.ascii	"\377\377\377\377\377\377\377\377\377\377\377\377\377"
 1949      FFFFFFFF 
 1949      FFFFFFFF 
 1949      FF
 1950 3a68 FFFFFFFF 		.ascii	"\377\377\377\377\377\377\377\377\377\377\377\377\377"
 1950      FFFFFFFF 
 1950      FFFFFFFF 
 1950      FF
 1951 3a75 FFFFFFFF 		.ascii	"\377\377\377\377\377\377\377\377\377\377\377\377\377"
 1951      FFFFFFFF 
 1951      FFFFFFFF 
 1951      FF
 1952 3a82 FFFFFFFF 		.ascii	"\377\377\377\377\377\377\377\377\377\377\377\377\377"
 1952      FFFFFFFF 
 1952      FFFFFFFF 
 1952      FF
 1953 3a8f FFFFFFFF 		.ascii	"\377\377\377\377\377\377\377\377\377\377\377\377\377"
 1953      FFFFFFFF 
 1953      FFFFFFFF 
 1953      FF
 1954 3a9c FFFFFFFF 		.ascii	"\377\377\377\377\377\377\377\377\377\377\377\377\377"
 1954      FFFFFFFF 
 1954      FFFFFFFF 
 1954      FF
 1955 3aa9 FFFFFFFF 		.ascii	"\377\377\377\377\377\377\377\377\377\377\377\377\377"
 1955      FFFFFFFF 
 1955      FFFFFFFF 
 1955      FF
 1956 3ab6 FFFFFFFF 		.ascii	"\377\377\377\377\377\377\377\377\377\377\377\377\377"
 1956      FFFFFFFF 
 1956      FFFFFFFF 
 1956      FF
 1957 3ac3 FFFFFFFF 		.ascii	"\377\377\377\377\377\377\377\377\377\377\377\377\377"
 1957      FFFFFFFF 
 1957      FFFFFFFF 
 1957      FF
 1958 3ad0 FFFFFFFF 		.ascii	"\377\377\377\377\377\377\377\377\377\377\377\377\377"
 1958      FFFFFFFF 
 1958      FFFFFFFF 
 1958      FF
 1959 3add FFFFFFFF 		.ascii	"\377\377\377\377\377\377\377\377\377\377\377\377\377"
 1959      FFFFFFFF 
 1959      FFFFFFFF 
 1959      FF
 1960 3aea FFFFFFFF 		.ascii	"\377\377\377\377\377\377\377\377\377\377\377\377\377"
 1960      FFFFFFFF 
 1960      FFFFFFFF 
 1960      FF
 1961 3af7 FFFFFFFF 		.ascii	"\377\377\377\377\377\377\377\377\377\377\377\377\377"
 1961      FFFFFFFF 
ARM GAS  /tmp/cc4GLRty.s 			page 98


 1961      FFFFFFFF 
 1961      FF
 1962 3b04 FFFFFFFF 		.ascii	"\377\377\377\377\377\377\377\377\377\377\377\377\377"
 1962      FFFFFFFF 
 1962      FFFFFFFF 
 1962      FF
 1963 3b11 FFFFFFFF 		.ascii	"\377\377\377\377\377\377\377\377\377\377\377\377\377"
 1963      FFFFFFFF 
 1963      FFFFFFFF 
 1963      FF
 1964 3b1e FFFFFFFF 		.ascii	"\377\377\377\377\377\377\377\377\377\377\377\377\377"
 1964      FFFFFFFF 
 1964      FFFFFFFF 
 1964      FF
 1965 3b2b FFFFFFFF 		.ascii	"\377\377\377\377\377\377\377\377\377\377\377\377\377"
 1965      FFFFFFFF 
 1965      FFFFFFFF 
 1965      FF
 1966 3b38 FFFFFFFF 		.ascii	"\377\377\377\377\377\377\377\377\377\377\377\377\377"
 1966      FFFFFFFF 
 1966      FFFFFFFF 
 1966      FF
 1967 3b45 FFFFFFFF 		.ascii	"\377\377\377\377\377\377\377\377\377\377\377\377\377"
 1967      FFFFFFFF 
 1967      FFFFFFFF 
 1967      FF
 1968 3b52 FFFFFFFF 		.ascii	"\377\377\377\377\377\377\377\377\377\377\377\377\377"
 1968      FFFFFFFF 
 1968      FFFFFFFF 
 1968      FF
 1969 3b5f FFFFFFFF 		.ascii	"\377\377\377\377\377\377\377\377\377\377\377\377\377"
 1969      FFFFFFFF 
 1969      FFFFFFFF 
 1969      FF
 1970 3b6c FFFFFFFF 		.ascii	"\377\377\377\377\377\377\377\377\377\377\377\377\377"
 1970      FFFFFFFF 
 1970      FFFFFFFF 
 1970      FF
 1971 3b79 FFFFFFFF 		.ascii	"\377\377\377\377\377\377\377\377\377\377\377\377\377"
 1971      FFFFFFFF 
 1971      FFFFFFFF 
 1971      FF
 1972 3b86 FFFFFFFF 		.ascii	"\377\377\377\377\377\377\377\377\377\377\377\377\377"
 1972      FFFFFFFF 
 1972      FFFFFFFF 
 1972      FF
 1973 3b93 FFFFFFFF 		.ascii	"\377\377\377\377\377\377\377\377\377\377\377\377\377"
 1973      FFFFFFFF 
 1973      FFFFFFFF 
 1973      FF
 1974 3ba0 FFFFFFFF 		.ascii	"\377\377\377\377\377\377\377\377\377\377\377\377\377"
 1974      FFFFFFFF 
 1974      FFFFFFFF 
 1974      FF
 1975 3bad FFFFFFFF 		.ascii	"\377\377\377\377\377\377\377\377\377\377\377\377\377"
 1975      FFFFFFFF 
 1975      FFFFFFFF 
ARM GAS  /tmp/cc4GLRty.s 			page 99


 1975      FF
 1976 3bba FFFFFFFF 		.ascii	"\377\377\377\377\377\377\377\377\377\377\377\377\377"
 1976      FFFFFFFF 
 1976      FFFFFFFF 
 1976      FF
 1977 3bc7 FFFFFFFF 		.ascii	"\377\377\377\377\377\377\377\377\377\377\377\377\377"
 1977      FFFFFFFF 
 1977      FFFFFFFF 
 1977      FF
 1978 3bd4 FFFFFFFF 		.ascii	"\377\377\377\377\377\377\377\377\377\377\377\377\377"
 1978      FFFFFFFF 
 1978      FFFFFFFF 
 1978      FF
 1979 3be1 FFFFFFFF 		.ascii	"\377\377\377\377\377\377\377\377\377\377\377\377\377"
 1979      FFFFFFFF 
 1979      FFFFFFFF 
 1979      FF
 1980 3bee FFFFFFFF 		.ascii	"\377\377\377\377\377\377\377\377\377\377\377\377\377"
 1980      FFFFFFFF 
 1980      FFFFFFFF 
 1980      FF
 1981 3bfb FFFFFFFF 		.ascii	"\377\377\377\377\377\377\377\377\377\377\377\377\377"
 1981      FFFFFFFF 
 1981      FFFFFFFF 
 1981      FF
 1982 3c08 FFFFFFFF 		.ascii	"\377\377\377\377\377\377\377\377\377\377\377\377\377"
 1982      FFFFFFFF 
 1982      FFFFFFFF 
 1982      FF
 1983 3c15 FFFFFFFF 		.ascii	"\377\377\377\377\377\377\377\377\377\377\377\377\377"
 1983      FFFFFFFF 
 1983      FFFFFFFF 
 1983      FF
 1984 3c22 FFFFFFFF 		.ascii	"\377\377\377\377\377\377\377\377\377\377\377\377\377"
 1984      FFFFFFFF 
 1984      FFFFFFFF 
 1984      FF
 1985 3c2f FFFFFFFF 		.ascii	"\377\377\377\377\377\377\377\377\377\377\377\377\377"
 1985      FFFFFFFF 
 1985      FFFFFFFF 
 1985      FF
 1986 3c3c FFFFFFFF 		.ascii	"\377\377\377\377\377\377\377\377\377\377\377\377\377"
 1986      FFFFFFFF 
 1986      FFFFFFFF 
 1986      FF
 1987 3c49 FFFFFFFF 		.ascii	"\377\377\377\377\377\377\377\377\377\377\377\377\377"
 1987      FFFFFFFF 
 1987      FFFFFFFF 
 1987      FF
 1988 3c56 FFFFFFFF 		.ascii	"\377\377\377\377\377\377\377\377\377\377\377\377\377"
 1988      FFFFFFFF 
 1988      FFFFFFFF 
 1988      FF
 1989 3c63 FFFFFFFF 		.ascii	"\377\377\377\377\377\377\377\377\377\377\377\377\377"
 1989      FFFFFFFF 
 1989      FFFFFFFF 
 1989      FF
ARM GAS  /tmp/cc4GLRty.s 			page 100


 1990 3c70 FFFFFFFF 		.ascii	"\377\377\377\377\377\377\377\377\377\377\377\377\377"
 1990      FFFFFFFF 
 1990      FFFFFFFF 
 1990      FF
 1991 3c7d FFFFFFFF 		.ascii	"\377\377\377\377\377\377\377\377\377\377\377\377\377"
 1991      FFFFFFFF 
 1991      FFFFFFFF 
 1991      FF
 1992 3c8a FFFFFFFF 		.ascii	"\377\377\377\377\377\377\377\377\377\377\377\377\377"
 1992      FFFFFFFF 
 1992      FFFFFFFF 
 1992      FF
 1993 3c97 FFFFFFFF 		.ascii	"\377\377\377\377\377\377\377\377\377\377\377\377\377"
 1993      FFFFFFFF 
 1993      FFFFFFFF 
 1993      FF
 1994 3ca4 FFFFFFFF 		.ascii	"\377\377\377\377\377\377\377\377\377\377\377\377\377"
 1994      FFFFFFFF 
 1994      FFFFFFFF 
 1994      FF
 1995 3cb1 FFFFFFFF 		.ascii	"\377\377\377\377\377\377\377\377\377\377\377\377\377"
 1995      FFFFFFFF 
 1995      FFFFFFFF 
 1995      FF
 1996 3cbe FFFFFFFF 		.ascii	"\377\377\377\377\377\377\377\377\377\377\377\377\377"
 1996      FFFFFFFF 
 1996      FFFFFFFF 
 1996      FF
 1997 3ccb FFFFFFFF 		.ascii	"\377\377\377\377\377\377\377\377\377\377\377\377\377"
 1997      FFFFFFFF 
 1997      FFFFFFFF 
 1997      FF
 1998 3cd8 FFFFFFFF 		.ascii	"\377\377\377\377\377\377\377\377\377\377\377\377\377"
 1998      FFFFFFFF 
 1998      FFFFFFFF 
 1998      FF
 1999 3ce5 FFFFFFFF 		.ascii	"\377\377\377\377\377\377\377\377\377\377\377\377\377"
 1999      FFFFFFFF 
 1999      FFFFFFFF 
 1999      FF
 2000 3cf2 FFFFFFFF 		.ascii	"\377\377\377\377\377\377\377\377\377\377\377\377\377"
 2000      FFFFFFFF 
 2000      FFFFFFFF 
 2000      FF
 2001 3cff FF000000 		.ascii	"\377\000\000\000\000\000\000\000\000\000\020\020\020"
 2001      00000000 
 2001      00001010 
 2001      10
 2002 3d0c 10001000 		.ascii	"\020\000\020\000\000$$\000\000\000\000\000\000$~$$~"
 2002      00242400 
 2002      00000000 
 2002      00247E24 
 2002      247E
 2003 3d1e 24000008 		.ascii	"$\000\000\010>(>\012>\010\000bd\010\020&F\000\000\020"
 2003      3E283E0A 
 2003      3E080062 
 2003      64081026 
ARM GAS  /tmp/cc4GLRty.s 			page 101


 2003      46000010 
 2004 3d32 28102A44 		.ascii	"(\020*D:\000\000\010\020\000\000\000\000\000\000\004"
 2004      3A000008 
 2004      10000000 
 2004      00000004 
 2005 3d42 08080808 		.ascii	"\010\010\010\010\004\000\000 \020\020\020\020 \000\000"
 2005      04000020 
 2005      10101010 
 2005      200000
 2006 3d51 0014083E 		.ascii	"\000\024\010>\010\024\000\000\000\010\010>\010\010\000"
 2006      08140000 
 2006      0008083E 
 2006      080800
 2007 3d60 00000000 		.ascii	"\000\000\000\000\000\010\010\020\000\000\000\000>\000"
 2007      00080810 
 2007      00000000 
 2007      3E00
 2008 3d6e 00000000 		.ascii	"\000\000\000\000\000\000\000\030\030\000\000\000\002"
 2008      00000018 
 2008      18000000 
 2008      02
 2009 3d7b 04081020 		.ascii	"\004\010\020 \000\000<FJRb<\000\000\030(\010\010\010"
 2009      00003C46 
 2009      4A52623C 
 2009      00001828 
 2009      080808
 2010 3d8e 3E00003C 		.ascii	">\000\000<B\002<@~\000\000<B\014\002B<\000\000\010\030"
 2010      42023C40 
 2010      7E00003C 
 2010      420C0242 
 2010      3C000008 
 2011 3da3 28487E08 		.ascii	"(H~\010\000\000~@|\002B<\000\000<@|BB<\000\000~\002"
 2011      00007E40 
 2011      7C02423C 
 2011      00003C40 
 2011      7C42423C 
 2012 3dbb 04081010 		.ascii	"\004\010\020\020\000\000<B<BB<\000\000<BB>\002<\000"
 2012      00003C42 
 2012      3C42423C 
 2012      00003C42 
 2012      423E023C 
 2013 3dd0 00000010 		.ascii	"\000\000\000\020\000\000\020\000\000\000\020\000\000"
 2013      00001000 
 2013      00001000 
 2013      00
 2014 3ddd 10102000 		.ascii	"\020\020 \000\000\004\010\020\010\004\000\000\000\000"
 2014      00040810 
 2014      08040000 
 2014      0000
 2015 3deb 3E003E00 		.ascii	">\000>\000\000\000\000\020\010\004\010\020\000\000<"
 2015      00000010 
 2015      08040810 
 2015      00003C
 2016 3dfa 42040800 		.ascii	"B\004\010\000\010\000\000<JV^@<\000\000<BB~BB\000\000"
 2016      0800003C 
 2016      4A565E40 
 2016      3C00003C 
ARM GAS  /tmp/cc4GLRty.s 			page 102


 2016      42427E42 
 2017 3e11 7C427C42 		.ascii	"|B|BB|\000\000<B@@B<\000\000xDBBDx\000\000~@|@@~\000"
 2017      427C0000 
 2017      3C424040 
 2017      423C0000 
 2017      78444242 
 2018 3e30 007E407C 		.ascii	"\000~@|@@@\000\000<B@NB<\000\000BB~BBB\000\000>\010"
 2018      40404000 
 2018      003C4240 
 2018      4E423C00 
 2018      0042427E 
 2019 3e4b 0808083E 		.ascii	"\010\010\010>\000\000\002\002\002BB<\000\000DHpHDB\000"
 2019      00000202 
 2019      0242423C 
 2019      00004448 
 2019      70484442 
 2020 3e60 00404040 		.ascii	"\000@@@@@~\000\000BfZBBB\000\000BbRJFB\000\000<BBBB"
 2020      40407E00 
 2020      0042665A 
 2020      42424200 
 2020      00426252 
 2021 3e7e 3C00     		.ascii	"<\000"
 2022 3e80 007C4242 		.ascii	"\000|BB|@@\000\000<BBRJ<\000\000|BB|DB\000\000<@<\002"
 2022      7C404000 
 2022      003C4242 
 2022      524A3C00 
 2022      007C4242 
 2023 3e9d 423C0000 		.ascii	"B<\000\000\376\020\020\020\020\020\000\000BBBBB<\000"
 2023      FE101010 
 2023      10100000 
 2023      42424242 
 2023      423C00
 2024 3eb0 00424242 		.ascii	"\000BBBB$\030\000\000BBBBZ$\000\000B$\030\030$B\000"
 2024      42241800 
 2024      00424242 
 2024      425A2400 
 2024      00422418 
 2025 3ec8 00824428 		.ascii	"\000\202D(\020\020\020\000\000~\004\010\020 ~\000\000"
 2025      10101000 
 2025      007E0408 
 2025      10207E00 
 2025      00
 2026 3ed9 0E080808 		.ascii	"\016\010\010\010\010\016\000\000\000@ \020\010\004\000"
 2026      080E0000 
 2026      00402010 
 2026      080400
 2027 3ee8 00701010 		.ascii	"\000p\020\020\020\020p\000\000\0208T\020\020\020\000"
 2027      10107000 
 2027      00103854 
 2027      10101000 
 2028 3ef8 00000000 		.ascii	"\000\000\000\000\000\000\000\377\000\034\"x  ~\000\000"
 2028      000000FF 
 2028      001C2278 
 2028      20207E00 
 2028      00
 2029 3f09 0038043C 		.ascii	"\0008\004<D<\000\000  <\"\"<\000\000\000\034   \034"
 2029      443C0000 
ARM GAS  /tmp/cc4GLRty.s 			page 103


 2029      20203C22 
 2029      223C0000 
 2029      001C2020 
 2030 3f1f 00000404 		.ascii	"\000\000\004\004<DD<\000\000\0008Dx@<\000\000\014\020"
 2030      3C44443C 
 2030      00000038 
 2030      4478403C 
 2030      00000C10 
 2031 3f33 18101010 		.ascii	"\030\020\020\020\000\000\000<DD<\0048\000@@xDDD\000"
 2031      0000003C 
 2031      44443C04 
 2031      38004040 
 2031      78444444 
 2032 3f48 00100030 		.ascii	"\000\020\0000\020\0208\000\000\004\000\004\004\004$"
 2032      10103800 
 2032      00040004 
 2032      040424
 2033 3f57 18002028 		.ascii	"\030\000 (00($\000\000\020\020\020\020\020\014\000\000"
 2033      30302824 
 2033      00001010 
 2033      1010100C 
 2033      0000
 2034 3f69 00685454 		.ascii	"\000hTTTT\000\000\000xDDDD\000\000\0008DDD8\000\000"
 2034      54540000 
 2034      00784444 
 2034      44440000 
 2034      00384444 
 2035 3f81 00784444 		.ascii	"\000xDDx@@\000\000<DD<\004\006\000\000\034    \000\000"
 2035      78404000 
 2035      003C4444 
 2035      3C040600 
 2035      001C2020 
 2036 3f99 00384038 		.ascii	"\0008@8\004x\000\000\0208\020\020\020\014\000\000\000"
 2036      04780000 
 2036      10381010 
 2036      100C0000 
 2036      00
 2037 3faa 44444444 		.ascii	"DDDD8\000\000\000DD((\020\000\000\000DTTT(\000\000\000"
 2037      38000000 
 2037      44442828 
 2037      10000000 
 2037      44545454 
 2038 3fc2 44281028 		.ascii	"D(\020(D\000\000\000DDD<\0048\000\000|\010\020 |\000"
 2038      44000000 
 2038      4444443C 
 2038      04380000 
 2038      7C081020 
 2039 3fd8 000E0830 		.ascii	"\000\016\0100\010\010\016\000\000\010\010\010\010\010"
 2039      08080E00 
 2039      00080808 
 2039      0808
 2040 3fe6 08000070 		.ascii	"\010\000\000p\020\014\020\020p\000\000\024(\000\000"
 2040      100C1010 
 2040      70000014 
 2040      280000
 2041 3ff5 0000003C 		.ascii	"\000\000\000<B\231\241\241\231B<"
 2041      4299A1A1 
ARM GAS  /tmp/cc4GLRty.s 			page 104


 2041      99423C
 2042              		.section	.rodata.__func__.4816,"a"
 2043              		.align	2
 2044              		.set	.LANCHOR2,. + 0
 2047              	__func__.4816:
 2048 0000 6D656D5F 		.ascii	"mem_input\000"
 2048      696E7075 
 2048      7400
 2049              		.section	.rodata.__func__.4827,"a"
 2050              		.align	2
 2051              		.set	.LANCHOR3,. + 0
 2054              	__func__.4827:
 2055 0000 6D656D5F 		.ascii	"mem_output\000"
 2055      6F757470 
 2055      757400
 2056              		.section	.rodata.pages,"a"
 2057              		.align	2
 2058              		.set	.LANCHOR0,. + 0
 2061              	pages:
 2062 0000 0000     		.short	0
 2063 0002 4001     		.short	320
 2064 0004 0000     		.short	0
 2065 0006 0D00     		.short	13
 2066 0008 0020     		.short	8192
 2067 000a 0000     		.short	0
 2068 000c 4001     		.short	320
 2069 000e 0D00     		.short	13
 2070 0010 0D00     		.short	13
 2071 0012 0020     		.short	8192
 2072 0014 0000     		.short	0
 2073 0016 4001     		.short	320
 2074 0018 1A00     		.short	26
 2075 001a 0D00     		.short	13
 2076 001c 0020     		.short	8192
 2077 001e 0000     		.short	0
 2078 0020 4000     		.short	64
 2079 0022 7000     		.short	112
 2080 0024 4000     		.short	64
 2081 0026 0020     		.short	8192
 2082 0028 0000     		.short	0
 2083 002a 4000     		.short	64
 2084 002c B000     		.short	176
 2085 002e 4000     		.short	64
 2086 0030 0020     		.short	8192
 2087              		.text
 2088              	.Letext0:
 2089              		.file 2 "/usr/lib/gcc/arm-none-eabi/9.2.1/include/stdint.h"
 2090              		.file 3 "/usr/lib/gcc/arm-none-eabi/9.2.1/include/stddef.h"
 2091              		.file 4 "/usr/include/newlib/sys/_types.h"
 2092              		.file 5 "/usr/include/newlib/sys/reent.h"
 2093              		.file 6 "/usr/include/newlib/sys/lock.h"
 2094              		.file 7 "test/rom.h"
 2095              		.file 8 "logger/logger.h"
 2096              		.file 9 "emulator/input/input.h"
 2097              		.file 10 "ili9341/ili9341.h"
 2098              		.file 11 "emulator/video/screen.h"
ARM GAS  /tmp/cc4GLRty.s 			page 105

