ARM GAS  /tmp/cczNPJS6.s 			page 1


   1              		.cpu cortex-m3
   2              		.eabi_attribute 20, 1
   3              		.eabi_attribute 21, 1
   4              		.eabi_attribute 23, 3
   5              		.eabi_attribute 24, 1
   6              		.eabi_attribute 25, 1
   7              		.eabi_attribute 26, 1
   8              		.eabi_attribute 30, 1
   9              		.eabi_attribute 34, 1
  10              		.eabi_attribute 18, 4
  11              		.file	"stm32f1xx_hal_flash_ex.c"
  12              		.text
  13              	.Ltext0:
  14              		.cfi_sections	.debug_frame
  15              		.section	.text.FLASH_OB_GetWRP,"ax",%progbits
  16              		.align	1
  17              		.arch armv7-m
  18              		.syntax unified
  19              		.thumb
  20              		.thumb_func
  21              		.fpu softvfp
  23              	FLASH_OB_GetWRP:
  24              	.LFB78:
  25              		.file 1 "Drivers/STM32F1xx_HAL_Driver/Src/stm32f1xx_hal_flash_ex.c"
   1:Drivers/STM32F1xx_HAL_Driver/Src/stm32f1xx_hal_flash_ex.c **** /**
   2:Drivers/STM32F1xx_HAL_Driver/Src/stm32f1xx_hal_flash_ex.c ****   ******************************************************************************
   3:Drivers/STM32F1xx_HAL_Driver/Src/stm32f1xx_hal_flash_ex.c ****   * @file    stm32f1xx_hal_flash_ex.c
   4:Drivers/STM32F1xx_HAL_Driver/Src/stm32f1xx_hal_flash_ex.c ****   * @author  MCD Application Team
   5:Drivers/STM32F1xx_HAL_Driver/Src/stm32f1xx_hal_flash_ex.c ****   * @brief   Extended FLASH HAL module driver.
   6:Drivers/STM32F1xx_HAL_Driver/Src/stm32f1xx_hal_flash_ex.c ****   *    
   7:Drivers/STM32F1xx_HAL_Driver/Src/stm32f1xx_hal_flash_ex.c ****   *          This file provides firmware functions to manage the following 
   8:Drivers/STM32F1xx_HAL_Driver/Src/stm32f1xx_hal_flash_ex.c ****   *          functionalities of the FLASH peripheral:
   9:Drivers/STM32F1xx_HAL_Driver/Src/stm32f1xx_hal_flash_ex.c ****   *           + Extended Initialization/de-initialization functions
  10:Drivers/STM32F1xx_HAL_Driver/Src/stm32f1xx_hal_flash_ex.c ****   *           + Extended I/O operation functions
  11:Drivers/STM32F1xx_HAL_Driver/Src/stm32f1xx_hal_flash_ex.c ****   *           + Extended Peripheral Control functions 
  12:Drivers/STM32F1xx_HAL_Driver/Src/stm32f1xx_hal_flash_ex.c ****   *         
  13:Drivers/STM32F1xx_HAL_Driver/Src/stm32f1xx_hal_flash_ex.c ****   @verbatim
  14:Drivers/STM32F1xx_HAL_Driver/Src/stm32f1xx_hal_flash_ex.c ****   ==============================================================================
  15:Drivers/STM32F1xx_HAL_Driver/Src/stm32f1xx_hal_flash_ex.c ****                ##### Flash peripheral extended features  #####
  16:Drivers/STM32F1xx_HAL_Driver/Src/stm32f1xx_hal_flash_ex.c ****   ==============================================================================
  17:Drivers/STM32F1xx_HAL_Driver/Src/stm32f1xx_hal_flash_ex.c ****            
  18:Drivers/STM32F1xx_HAL_Driver/Src/stm32f1xx_hal_flash_ex.c ****                       ##### How to use this driver #####
  19:Drivers/STM32F1xx_HAL_Driver/Src/stm32f1xx_hal_flash_ex.c ****   ==============================================================================
  20:Drivers/STM32F1xx_HAL_Driver/Src/stm32f1xx_hal_flash_ex.c ****   [..] This driver provides functions to configure and program the FLASH memory 
  21:Drivers/STM32F1xx_HAL_Driver/Src/stm32f1xx_hal_flash_ex.c ****        of all STM32F1xxx devices. It includes
  22:Drivers/STM32F1xx_HAL_Driver/Src/stm32f1xx_hal_flash_ex.c ****        
  23:Drivers/STM32F1xx_HAL_Driver/Src/stm32f1xx_hal_flash_ex.c ****         (++) Set/Reset the write protection
  24:Drivers/STM32F1xx_HAL_Driver/Src/stm32f1xx_hal_flash_ex.c ****         (++) Program the user Option Bytes
  25:Drivers/STM32F1xx_HAL_Driver/Src/stm32f1xx_hal_flash_ex.c ****         (++) Get the Read protection Level
  26:Drivers/STM32F1xx_HAL_Driver/Src/stm32f1xx_hal_flash_ex.c ****   
  27:Drivers/STM32F1xx_HAL_Driver/Src/stm32f1xx_hal_flash_ex.c ****   @endverbatim
  28:Drivers/STM32F1xx_HAL_Driver/Src/stm32f1xx_hal_flash_ex.c ****   ******************************************************************************
  29:Drivers/STM32F1xx_HAL_Driver/Src/stm32f1xx_hal_flash_ex.c ****   * @attention
  30:Drivers/STM32F1xx_HAL_Driver/Src/stm32f1xx_hal_flash_ex.c ****   *
  31:Drivers/STM32F1xx_HAL_Driver/Src/stm32f1xx_hal_flash_ex.c ****   * <h2><center>&copy; COPYRIGHT(c) 2016 STMicroelectronics</center></h2>
  32:Drivers/STM32F1xx_HAL_Driver/Src/stm32f1xx_hal_flash_ex.c ****   *
  33:Drivers/STM32F1xx_HAL_Driver/Src/stm32f1xx_hal_flash_ex.c ****   * Redistribution and use in source and binary forms, with or without modification,
ARM GAS  /tmp/cczNPJS6.s 			page 2


  34:Drivers/STM32F1xx_HAL_Driver/Src/stm32f1xx_hal_flash_ex.c ****   * are permitted provided that the following conditions are met:
  35:Drivers/STM32F1xx_HAL_Driver/Src/stm32f1xx_hal_flash_ex.c ****   *   1. Redistributions of source code must retain the above copyright notice,
  36:Drivers/STM32F1xx_HAL_Driver/Src/stm32f1xx_hal_flash_ex.c ****   *      this list of conditions and the following disclaimer.
  37:Drivers/STM32F1xx_HAL_Driver/Src/stm32f1xx_hal_flash_ex.c ****   *   2. Redistributions in binary form must reproduce the above copyright notice,
  38:Drivers/STM32F1xx_HAL_Driver/Src/stm32f1xx_hal_flash_ex.c ****   *      this list of conditions and the following disclaimer in the documentation
  39:Drivers/STM32F1xx_HAL_Driver/Src/stm32f1xx_hal_flash_ex.c ****   *      and/or other materials provided with the distribution.
  40:Drivers/STM32F1xx_HAL_Driver/Src/stm32f1xx_hal_flash_ex.c ****   *   3. Neither the name of STMicroelectronics nor the names of its contributors
  41:Drivers/STM32F1xx_HAL_Driver/Src/stm32f1xx_hal_flash_ex.c ****   *      may be used to endorse or promote products derived from this software
  42:Drivers/STM32F1xx_HAL_Driver/Src/stm32f1xx_hal_flash_ex.c ****   *      without specific prior written permission.
  43:Drivers/STM32F1xx_HAL_Driver/Src/stm32f1xx_hal_flash_ex.c ****   *
  44:Drivers/STM32F1xx_HAL_Driver/Src/stm32f1xx_hal_flash_ex.c ****   * THIS SOFTWARE IS PROVIDED BY THE COPYRIGHT HOLDERS AND CONTRIBUTORS "AS IS"
  45:Drivers/STM32F1xx_HAL_Driver/Src/stm32f1xx_hal_flash_ex.c ****   * AND ANY EXPRESS OR IMPLIED WARRANTIES, INCLUDING, BUT NOT LIMITED TO, THE
  46:Drivers/STM32F1xx_HAL_Driver/Src/stm32f1xx_hal_flash_ex.c ****   * IMPLIED WARRANTIES OF MERCHANTABILITY AND FITNESS FOR A PARTICULAR PURPOSE ARE
  47:Drivers/STM32F1xx_HAL_Driver/Src/stm32f1xx_hal_flash_ex.c ****   * DISCLAIMED. IN NO EVENT SHALL THE COPYRIGHT HOLDER OR CONTRIBUTORS BE LIABLE
  48:Drivers/STM32F1xx_HAL_Driver/Src/stm32f1xx_hal_flash_ex.c ****   * FOR ANY DIRECT, INDIRECT, INCIDENTAL, SPECIAL, EXEMPLARY, OR CONSEQUENTIAL
  49:Drivers/STM32F1xx_HAL_Driver/Src/stm32f1xx_hal_flash_ex.c ****   * DAMAGES (INCLUDING, BUT NOT LIMITED TO, PROCUREMENT OF SUBSTITUTE GOODS OR
  50:Drivers/STM32F1xx_HAL_Driver/Src/stm32f1xx_hal_flash_ex.c ****   * SERVICES; LOSS OF USE, DATA, OR PROFITS; OR BUSINESS INTERRUPTION) HOWEVER
  51:Drivers/STM32F1xx_HAL_Driver/Src/stm32f1xx_hal_flash_ex.c ****   * CAUSED AND ON ANY THEORY OF LIABILITY, WHETHER IN CONTRACT, STRICT LIABILITY,
  52:Drivers/STM32F1xx_HAL_Driver/Src/stm32f1xx_hal_flash_ex.c ****   * OR TORT (INCLUDING NEGLIGENCE OR OTHERWISE) ARISING IN ANY WAY OUT OF THE USE
  53:Drivers/STM32F1xx_HAL_Driver/Src/stm32f1xx_hal_flash_ex.c ****   * OF THIS SOFTWARE, EVEN IF ADVISED OF THE POSSIBILITY OF SUCH DAMAGE.
  54:Drivers/STM32F1xx_HAL_Driver/Src/stm32f1xx_hal_flash_ex.c ****   *
  55:Drivers/STM32F1xx_HAL_Driver/Src/stm32f1xx_hal_flash_ex.c ****   ******************************************************************************  
  56:Drivers/STM32F1xx_HAL_Driver/Src/stm32f1xx_hal_flash_ex.c ****   */
  57:Drivers/STM32F1xx_HAL_Driver/Src/stm32f1xx_hal_flash_ex.c **** 
  58:Drivers/STM32F1xx_HAL_Driver/Src/stm32f1xx_hal_flash_ex.c **** /* Includes ------------------------------------------------------------------*/
  59:Drivers/STM32F1xx_HAL_Driver/Src/stm32f1xx_hal_flash_ex.c **** #include "stm32f1xx_hal.h"
  60:Drivers/STM32F1xx_HAL_Driver/Src/stm32f1xx_hal_flash_ex.c **** 
  61:Drivers/STM32F1xx_HAL_Driver/Src/stm32f1xx_hal_flash_ex.c **** /** @addtogroup STM32F1xx_HAL_Driver
  62:Drivers/STM32F1xx_HAL_Driver/Src/stm32f1xx_hal_flash_ex.c ****   * @{
  63:Drivers/STM32F1xx_HAL_Driver/Src/stm32f1xx_hal_flash_ex.c ****   */
  64:Drivers/STM32F1xx_HAL_Driver/Src/stm32f1xx_hal_flash_ex.c **** #ifdef HAL_FLASH_MODULE_ENABLED
  65:Drivers/STM32F1xx_HAL_Driver/Src/stm32f1xx_hal_flash_ex.c **** 
  66:Drivers/STM32F1xx_HAL_Driver/Src/stm32f1xx_hal_flash_ex.c **** /** @addtogroup FLASH
  67:Drivers/STM32F1xx_HAL_Driver/Src/stm32f1xx_hal_flash_ex.c ****   * @{
  68:Drivers/STM32F1xx_HAL_Driver/Src/stm32f1xx_hal_flash_ex.c ****   */
  69:Drivers/STM32F1xx_HAL_Driver/Src/stm32f1xx_hal_flash_ex.c **** /** @addtogroup FLASH_Private_Variables
  70:Drivers/STM32F1xx_HAL_Driver/Src/stm32f1xx_hal_flash_ex.c ****  * @{
  71:Drivers/STM32F1xx_HAL_Driver/Src/stm32f1xx_hal_flash_ex.c ****  */
  72:Drivers/STM32F1xx_HAL_Driver/Src/stm32f1xx_hal_flash_ex.c **** /* Variables used for Erase pages under interruption*/
  73:Drivers/STM32F1xx_HAL_Driver/Src/stm32f1xx_hal_flash_ex.c **** extern FLASH_ProcessTypeDef pFlash;
  74:Drivers/STM32F1xx_HAL_Driver/Src/stm32f1xx_hal_flash_ex.c **** /**
  75:Drivers/STM32F1xx_HAL_Driver/Src/stm32f1xx_hal_flash_ex.c ****   * @}
  76:Drivers/STM32F1xx_HAL_Driver/Src/stm32f1xx_hal_flash_ex.c ****   */
  77:Drivers/STM32F1xx_HAL_Driver/Src/stm32f1xx_hal_flash_ex.c **** 
  78:Drivers/STM32F1xx_HAL_Driver/Src/stm32f1xx_hal_flash_ex.c **** /**
  79:Drivers/STM32F1xx_HAL_Driver/Src/stm32f1xx_hal_flash_ex.c ****   * @}
  80:Drivers/STM32F1xx_HAL_Driver/Src/stm32f1xx_hal_flash_ex.c ****   */
  81:Drivers/STM32F1xx_HAL_Driver/Src/stm32f1xx_hal_flash_ex.c ****   
  82:Drivers/STM32F1xx_HAL_Driver/Src/stm32f1xx_hal_flash_ex.c **** /** @defgroup FLASHEx FLASHEx
  83:Drivers/STM32F1xx_HAL_Driver/Src/stm32f1xx_hal_flash_ex.c ****   * @brief FLASH HAL Extension module driver
  84:Drivers/STM32F1xx_HAL_Driver/Src/stm32f1xx_hal_flash_ex.c ****   * @{
  85:Drivers/STM32F1xx_HAL_Driver/Src/stm32f1xx_hal_flash_ex.c ****   */
  86:Drivers/STM32F1xx_HAL_Driver/Src/stm32f1xx_hal_flash_ex.c **** 
  87:Drivers/STM32F1xx_HAL_Driver/Src/stm32f1xx_hal_flash_ex.c **** /* Private typedef -----------------------------------------------------------*/
  88:Drivers/STM32F1xx_HAL_Driver/Src/stm32f1xx_hal_flash_ex.c **** /* Private define ------------------------------------------------------------*/
  89:Drivers/STM32F1xx_HAL_Driver/Src/stm32f1xx_hal_flash_ex.c **** /** @defgroup FLASHEx_Private_Constants FLASHEx Private Constants
  90:Drivers/STM32F1xx_HAL_Driver/Src/stm32f1xx_hal_flash_ex.c ****  * @{
ARM GAS  /tmp/cczNPJS6.s 			page 3


  91:Drivers/STM32F1xx_HAL_Driver/Src/stm32f1xx_hal_flash_ex.c ****  */
  92:Drivers/STM32F1xx_HAL_Driver/Src/stm32f1xx_hal_flash_ex.c **** #define FLASH_POSITION_IWDGSW_BIT        FLASH_OBR_IWDG_SW_Pos
  93:Drivers/STM32F1xx_HAL_Driver/Src/stm32f1xx_hal_flash_ex.c **** #define FLASH_POSITION_OB_USERDATA0_BIT  FLASH_OBR_DATA0_Pos
  94:Drivers/STM32F1xx_HAL_Driver/Src/stm32f1xx_hal_flash_ex.c **** #define FLASH_POSITION_OB_USERDATA1_BIT  FLASH_OBR_DATA1_Pos
  95:Drivers/STM32F1xx_HAL_Driver/Src/stm32f1xx_hal_flash_ex.c **** /**
  96:Drivers/STM32F1xx_HAL_Driver/Src/stm32f1xx_hal_flash_ex.c ****   * @}
  97:Drivers/STM32F1xx_HAL_Driver/Src/stm32f1xx_hal_flash_ex.c ****   */
  98:Drivers/STM32F1xx_HAL_Driver/Src/stm32f1xx_hal_flash_ex.c **** 
  99:Drivers/STM32F1xx_HAL_Driver/Src/stm32f1xx_hal_flash_ex.c **** /* Private macro -------------------------------------------------------------*/
 100:Drivers/STM32F1xx_HAL_Driver/Src/stm32f1xx_hal_flash_ex.c **** /** @defgroup FLASHEx_Private_Macros FLASHEx Private Macros
 101:Drivers/STM32F1xx_HAL_Driver/Src/stm32f1xx_hal_flash_ex.c ****   * @{
 102:Drivers/STM32F1xx_HAL_Driver/Src/stm32f1xx_hal_flash_ex.c ****   */
 103:Drivers/STM32F1xx_HAL_Driver/Src/stm32f1xx_hal_flash_ex.c **** /**
 104:Drivers/STM32F1xx_HAL_Driver/Src/stm32f1xx_hal_flash_ex.c ****   * @}
 105:Drivers/STM32F1xx_HAL_Driver/Src/stm32f1xx_hal_flash_ex.c ****   */ 
 106:Drivers/STM32F1xx_HAL_Driver/Src/stm32f1xx_hal_flash_ex.c **** 
 107:Drivers/STM32F1xx_HAL_Driver/Src/stm32f1xx_hal_flash_ex.c **** /* Private variables ---------------------------------------------------------*/
 108:Drivers/STM32F1xx_HAL_Driver/Src/stm32f1xx_hal_flash_ex.c **** /* Private function prototypes -----------------------------------------------*/
 109:Drivers/STM32F1xx_HAL_Driver/Src/stm32f1xx_hal_flash_ex.c **** /** @defgroup FLASHEx_Private_Functions FLASHEx Private Functions
 110:Drivers/STM32F1xx_HAL_Driver/Src/stm32f1xx_hal_flash_ex.c ****  * @{
 111:Drivers/STM32F1xx_HAL_Driver/Src/stm32f1xx_hal_flash_ex.c ****  */
 112:Drivers/STM32F1xx_HAL_Driver/Src/stm32f1xx_hal_flash_ex.c **** /* Erase operations */
 113:Drivers/STM32F1xx_HAL_Driver/Src/stm32f1xx_hal_flash_ex.c **** static void              FLASH_MassErase(uint32_t Banks);
 114:Drivers/STM32F1xx_HAL_Driver/Src/stm32f1xx_hal_flash_ex.c **** void    FLASH_PageErase(uint32_t PageAddress);
 115:Drivers/STM32F1xx_HAL_Driver/Src/stm32f1xx_hal_flash_ex.c **** 
 116:Drivers/STM32F1xx_HAL_Driver/Src/stm32f1xx_hal_flash_ex.c **** /* Option bytes control */
 117:Drivers/STM32F1xx_HAL_Driver/Src/stm32f1xx_hal_flash_ex.c **** static HAL_StatusTypeDef FLASH_OB_EnableWRP(uint32_t WriteProtectPage);
 118:Drivers/STM32F1xx_HAL_Driver/Src/stm32f1xx_hal_flash_ex.c **** static HAL_StatusTypeDef FLASH_OB_DisableWRP(uint32_t WriteProtectPage);
 119:Drivers/STM32F1xx_HAL_Driver/Src/stm32f1xx_hal_flash_ex.c **** static HAL_StatusTypeDef FLASH_OB_RDP_LevelConfig(uint8_t ReadProtectLevel);
 120:Drivers/STM32F1xx_HAL_Driver/Src/stm32f1xx_hal_flash_ex.c **** static HAL_StatusTypeDef FLASH_OB_UserConfig(uint8_t UserConfig);
 121:Drivers/STM32F1xx_HAL_Driver/Src/stm32f1xx_hal_flash_ex.c **** static HAL_StatusTypeDef FLASH_OB_ProgramData(uint32_t Address, uint8_t Data);
 122:Drivers/STM32F1xx_HAL_Driver/Src/stm32f1xx_hal_flash_ex.c **** static uint32_t          FLASH_OB_GetWRP(void);
 123:Drivers/STM32F1xx_HAL_Driver/Src/stm32f1xx_hal_flash_ex.c **** static uint32_t          FLASH_OB_GetRDP(void);
 124:Drivers/STM32F1xx_HAL_Driver/Src/stm32f1xx_hal_flash_ex.c **** static uint8_t           FLASH_OB_GetUser(void);
 125:Drivers/STM32F1xx_HAL_Driver/Src/stm32f1xx_hal_flash_ex.c **** 
 126:Drivers/STM32F1xx_HAL_Driver/Src/stm32f1xx_hal_flash_ex.c **** /**
 127:Drivers/STM32F1xx_HAL_Driver/Src/stm32f1xx_hal_flash_ex.c ****   * @}
 128:Drivers/STM32F1xx_HAL_Driver/Src/stm32f1xx_hal_flash_ex.c ****   */
 129:Drivers/STM32F1xx_HAL_Driver/Src/stm32f1xx_hal_flash_ex.c **** 
 130:Drivers/STM32F1xx_HAL_Driver/Src/stm32f1xx_hal_flash_ex.c **** /* Exported functions ---------------------------------------------------------*/
 131:Drivers/STM32F1xx_HAL_Driver/Src/stm32f1xx_hal_flash_ex.c **** /** @defgroup FLASHEx_Exported_Functions FLASHEx Exported Functions
 132:Drivers/STM32F1xx_HAL_Driver/Src/stm32f1xx_hal_flash_ex.c ****   * @{
 133:Drivers/STM32F1xx_HAL_Driver/Src/stm32f1xx_hal_flash_ex.c ****   */
 134:Drivers/STM32F1xx_HAL_Driver/Src/stm32f1xx_hal_flash_ex.c ****   
 135:Drivers/STM32F1xx_HAL_Driver/Src/stm32f1xx_hal_flash_ex.c **** /** @defgroup FLASHEx_Exported_Functions_Group1 FLASHEx Memory Erasing functions
 136:Drivers/STM32F1xx_HAL_Driver/Src/stm32f1xx_hal_flash_ex.c ****  *  @brief   FLASH Memory Erasing functions
 137:Drivers/STM32F1xx_HAL_Driver/Src/stm32f1xx_hal_flash_ex.c ****   *
 138:Drivers/STM32F1xx_HAL_Driver/Src/stm32f1xx_hal_flash_ex.c **** @verbatim   
 139:Drivers/STM32F1xx_HAL_Driver/Src/stm32f1xx_hal_flash_ex.c ****   ==============================================================================
 140:Drivers/STM32F1xx_HAL_Driver/Src/stm32f1xx_hal_flash_ex.c ****                 ##### FLASH Erasing Programming functions ##### 
 141:Drivers/STM32F1xx_HAL_Driver/Src/stm32f1xx_hal_flash_ex.c ****   ==============================================================================
 142:Drivers/STM32F1xx_HAL_Driver/Src/stm32f1xx_hal_flash_ex.c **** 
 143:Drivers/STM32F1xx_HAL_Driver/Src/stm32f1xx_hal_flash_ex.c ****     [..] The FLASH Memory Erasing functions, includes the following functions:
 144:Drivers/STM32F1xx_HAL_Driver/Src/stm32f1xx_hal_flash_ex.c ****     (+) @ref HAL_FLASHEx_Erase: return only when erase has been done
 145:Drivers/STM32F1xx_HAL_Driver/Src/stm32f1xx_hal_flash_ex.c ****     (+) @ref HAL_FLASHEx_Erase_IT: end of erase is done when @ref HAL_FLASH_EndOfOperationCallback 
 146:Drivers/STM32F1xx_HAL_Driver/Src/stm32f1xx_hal_flash_ex.c ****         is called with parameter 0xFFFFFFFF
 147:Drivers/STM32F1xx_HAL_Driver/Src/stm32f1xx_hal_flash_ex.c **** 
ARM GAS  /tmp/cczNPJS6.s 			page 4


 148:Drivers/STM32F1xx_HAL_Driver/Src/stm32f1xx_hal_flash_ex.c ****     [..] Any operation of erase should follow these steps:
 149:Drivers/STM32F1xx_HAL_Driver/Src/stm32f1xx_hal_flash_ex.c ****     (#) Call the @ref HAL_FLASH_Unlock() function to enable the flash control register and 
 150:Drivers/STM32F1xx_HAL_Driver/Src/stm32f1xx_hal_flash_ex.c ****         program memory access.
 151:Drivers/STM32F1xx_HAL_Driver/Src/stm32f1xx_hal_flash_ex.c ****     (#) Call the desired function to erase page.
 152:Drivers/STM32F1xx_HAL_Driver/Src/stm32f1xx_hal_flash_ex.c ****     (#) Call the @ref HAL_FLASH_Lock() to disable the flash program memory access 
 153:Drivers/STM32F1xx_HAL_Driver/Src/stm32f1xx_hal_flash_ex.c ****        (recommended to protect the FLASH memory against possible unwanted operation).
 154:Drivers/STM32F1xx_HAL_Driver/Src/stm32f1xx_hal_flash_ex.c **** 
 155:Drivers/STM32F1xx_HAL_Driver/Src/stm32f1xx_hal_flash_ex.c **** @endverbatim
 156:Drivers/STM32F1xx_HAL_Driver/Src/stm32f1xx_hal_flash_ex.c ****   * @{
 157:Drivers/STM32F1xx_HAL_Driver/Src/stm32f1xx_hal_flash_ex.c ****   */
 158:Drivers/STM32F1xx_HAL_Driver/Src/stm32f1xx_hal_flash_ex.c ****   
 159:Drivers/STM32F1xx_HAL_Driver/Src/stm32f1xx_hal_flash_ex.c **** 
 160:Drivers/STM32F1xx_HAL_Driver/Src/stm32f1xx_hal_flash_ex.c **** /**
 161:Drivers/STM32F1xx_HAL_Driver/Src/stm32f1xx_hal_flash_ex.c ****   * @brief  Perform a mass erase or erase the specified FLASH memory pages
 162:Drivers/STM32F1xx_HAL_Driver/Src/stm32f1xx_hal_flash_ex.c ****   * @note   To correctly run this function, the @ref HAL_FLASH_Unlock() function
 163:Drivers/STM32F1xx_HAL_Driver/Src/stm32f1xx_hal_flash_ex.c ****   *         must be called before.
 164:Drivers/STM32F1xx_HAL_Driver/Src/stm32f1xx_hal_flash_ex.c ****   *         Call the @ref HAL_FLASH_Lock() to disable the flash memory access 
 165:Drivers/STM32F1xx_HAL_Driver/Src/stm32f1xx_hal_flash_ex.c ****   *         (recommended to protect the FLASH memory against possible unwanted operation)
 166:Drivers/STM32F1xx_HAL_Driver/Src/stm32f1xx_hal_flash_ex.c ****   * @param[in]  pEraseInit pointer to an FLASH_EraseInitTypeDef structure that
 167:Drivers/STM32F1xx_HAL_Driver/Src/stm32f1xx_hal_flash_ex.c ****   *         contains the configuration information for the erasing.
 168:Drivers/STM32F1xx_HAL_Driver/Src/stm32f1xx_hal_flash_ex.c ****   *
 169:Drivers/STM32F1xx_HAL_Driver/Src/stm32f1xx_hal_flash_ex.c ****   * @param[out]  PageError pointer to variable  that
 170:Drivers/STM32F1xx_HAL_Driver/Src/stm32f1xx_hal_flash_ex.c ****   *         contains the configuration information on faulty page in case of error
 171:Drivers/STM32F1xx_HAL_Driver/Src/stm32f1xx_hal_flash_ex.c ****   *         (0xFFFFFFFF means that all the pages have been correctly erased)
 172:Drivers/STM32F1xx_HAL_Driver/Src/stm32f1xx_hal_flash_ex.c ****   *
 173:Drivers/STM32F1xx_HAL_Driver/Src/stm32f1xx_hal_flash_ex.c ****   * @retval HAL_StatusTypeDef HAL Status
 174:Drivers/STM32F1xx_HAL_Driver/Src/stm32f1xx_hal_flash_ex.c ****   */
 175:Drivers/STM32F1xx_HAL_Driver/Src/stm32f1xx_hal_flash_ex.c **** HAL_StatusTypeDef HAL_FLASHEx_Erase(FLASH_EraseInitTypeDef *pEraseInit, uint32_t *PageError)
 176:Drivers/STM32F1xx_HAL_Driver/Src/stm32f1xx_hal_flash_ex.c **** {
 177:Drivers/STM32F1xx_HAL_Driver/Src/stm32f1xx_hal_flash_ex.c ****   HAL_StatusTypeDef status = HAL_ERROR;
 178:Drivers/STM32F1xx_HAL_Driver/Src/stm32f1xx_hal_flash_ex.c ****   uint32_t address = 0U;
 179:Drivers/STM32F1xx_HAL_Driver/Src/stm32f1xx_hal_flash_ex.c **** 
 180:Drivers/STM32F1xx_HAL_Driver/Src/stm32f1xx_hal_flash_ex.c ****   /* Process Locked */
 181:Drivers/STM32F1xx_HAL_Driver/Src/stm32f1xx_hal_flash_ex.c ****   __HAL_LOCK(&pFlash);
 182:Drivers/STM32F1xx_HAL_Driver/Src/stm32f1xx_hal_flash_ex.c **** 
 183:Drivers/STM32F1xx_HAL_Driver/Src/stm32f1xx_hal_flash_ex.c ****   /* Check the parameters */
 184:Drivers/STM32F1xx_HAL_Driver/Src/stm32f1xx_hal_flash_ex.c ****   assert_param(IS_FLASH_TYPEERASE(pEraseInit->TypeErase));
 185:Drivers/STM32F1xx_HAL_Driver/Src/stm32f1xx_hal_flash_ex.c **** 
 186:Drivers/STM32F1xx_HAL_Driver/Src/stm32f1xx_hal_flash_ex.c ****   if (pEraseInit->TypeErase == FLASH_TYPEERASE_MASSERASE)
 187:Drivers/STM32F1xx_HAL_Driver/Src/stm32f1xx_hal_flash_ex.c ****   {
 188:Drivers/STM32F1xx_HAL_Driver/Src/stm32f1xx_hal_flash_ex.c **** #if defined(FLASH_BANK2_END)
 189:Drivers/STM32F1xx_HAL_Driver/Src/stm32f1xx_hal_flash_ex.c ****     if (pEraseInit->Banks == FLASH_BANK_BOTH)
 190:Drivers/STM32F1xx_HAL_Driver/Src/stm32f1xx_hal_flash_ex.c ****     {
 191:Drivers/STM32F1xx_HAL_Driver/Src/stm32f1xx_hal_flash_ex.c ****       /* Mass Erase requested for Bank1 and Bank2 */
 192:Drivers/STM32F1xx_HAL_Driver/Src/stm32f1xx_hal_flash_ex.c ****       /* Wait for last operation to be completed */
 193:Drivers/STM32F1xx_HAL_Driver/Src/stm32f1xx_hal_flash_ex.c ****       if ((FLASH_WaitForLastOperation((uint32_t)FLASH_TIMEOUT_VALUE) == HAL_OK) && \
 194:Drivers/STM32F1xx_HAL_Driver/Src/stm32f1xx_hal_flash_ex.c ****           (FLASH_WaitForLastOperationBank2((uint32_t)FLASH_TIMEOUT_VALUE) == HAL_OK))
 195:Drivers/STM32F1xx_HAL_Driver/Src/stm32f1xx_hal_flash_ex.c ****       {
 196:Drivers/STM32F1xx_HAL_Driver/Src/stm32f1xx_hal_flash_ex.c ****         /*Mass erase to be done*/
 197:Drivers/STM32F1xx_HAL_Driver/Src/stm32f1xx_hal_flash_ex.c ****         FLASH_MassErase(FLASH_BANK_BOTH);
 198:Drivers/STM32F1xx_HAL_Driver/Src/stm32f1xx_hal_flash_ex.c ****         
 199:Drivers/STM32F1xx_HAL_Driver/Src/stm32f1xx_hal_flash_ex.c ****         /* Wait for last operation to be completed */
 200:Drivers/STM32F1xx_HAL_Driver/Src/stm32f1xx_hal_flash_ex.c ****         if ((FLASH_WaitForLastOperation((uint32_t)FLASH_TIMEOUT_VALUE) == HAL_OK) && \
 201:Drivers/STM32F1xx_HAL_Driver/Src/stm32f1xx_hal_flash_ex.c ****             (FLASH_WaitForLastOperationBank2((uint32_t)FLASH_TIMEOUT_VALUE) == HAL_OK))
 202:Drivers/STM32F1xx_HAL_Driver/Src/stm32f1xx_hal_flash_ex.c ****         {
 203:Drivers/STM32F1xx_HAL_Driver/Src/stm32f1xx_hal_flash_ex.c ****           status = HAL_OK;
 204:Drivers/STM32F1xx_HAL_Driver/Src/stm32f1xx_hal_flash_ex.c ****         }
ARM GAS  /tmp/cczNPJS6.s 			page 5


 205:Drivers/STM32F1xx_HAL_Driver/Src/stm32f1xx_hal_flash_ex.c ****         
 206:Drivers/STM32F1xx_HAL_Driver/Src/stm32f1xx_hal_flash_ex.c ****         /* If the erase operation is completed, disable the MER Bit */
 207:Drivers/STM32F1xx_HAL_Driver/Src/stm32f1xx_hal_flash_ex.c ****         CLEAR_BIT(FLASH->CR, FLASH_CR_MER);
 208:Drivers/STM32F1xx_HAL_Driver/Src/stm32f1xx_hal_flash_ex.c ****         CLEAR_BIT(FLASH->CR2, FLASH_CR2_MER);
 209:Drivers/STM32F1xx_HAL_Driver/Src/stm32f1xx_hal_flash_ex.c ****       }
 210:Drivers/STM32F1xx_HAL_Driver/Src/stm32f1xx_hal_flash_ex.c ****     }
 211:Drivers/STM32F1xx_HAL_Driver/Src/stm32f1xx_hal_flash_ex.c ****     else if (pEraseInit->Banks == FLASH_BANK_2)
 212:Drivers/STM32F1xx_HAL_Driver/Src/stm32f1xx_hal_flash_ex.c ****     {
 213:Drivers/STM32F1xx_HAL_Driver/Src/stm32f1xx_hal_flash_ex.c ****       /* Mass Erase requested for Bank2 */
 214:Drivers/STM32F1xx_HAL_Driver/Src/stm32f1xx_hal_flash_ex.c ****       /* Wait for last operation to be completed */
 215:Drivers/STM32F1xx_HAL_Driver/Src/stm32f1xx_hal_flash_ex.c ****       if (FLASH_WaitForLastOperationBank2((uint32_t)FLASH_TIMEOUT_VALUE) == HAL_OK)
 216:Drivers/STM32F1xx_HAL_Driver/Src/stm32f1xx_hal_flash_ex.c ****       {
 217:Drivers/STM32F1xx_HAL_Driver/Src/stm32f1xx_hal_flash_ex.c ****         /*Mass erase to be done*/
 218:Drivers/STM32F1xx_HAL_Driver/Src/stm32f1xx_hal_flash_ex.c ****         FLASH_MassErase(FLASH_BANK_2);
 219:Drivers/STM32F1xx_HAL_Driver/Src/stm32f1xx_hal_flash_ex.c ****         
 220:Drivers/STM32F1xx_HAL_Driver/Src/stm32f1xx_hal_flash_ex.c ****         /* Wait for last operation to be completed */
 221:Drivers/STM32F1xx_HAL_Driver/Src/stm32f1xx_hal_flash_ex.c ****         status = FLASH_WaitForLastOperationBank2((uint32_t)FLASH_TIMEOUT_VALUE);
 222:Drivers/STM32F1xx_HAL_Driver/Src/stm32f1xx_hal_flash_ex.c ****         
 223:Drivers/STM32F1xx_HAL_Driver/Src/stm32f1xx_hal_flash_ex.c ****         /* If the erase operation is completed, disable the MER Bit */
 224:Drivers/STM32F1xx_HAL_Driver/Src/stm32f1xx_hal_flash_ex.c ****         CLEAR_BIT(FLASH->CR2, FLASH_CR2_MER);
 225:Drivers/STM32F1xx_HAL_Driver/Src/stm32f1xx_hal_flash_ex.c ****       }
 226:Drivers/STM32F1xx_HAL_Driver/Src/stm32f1xx_hal_flash_ex.c ****     }
 227:Drivers/STM32F1xx_HAL_Driver/Src/stm32f1xx_hal_flash_ex.c ****     else 
 228:Drivers/STM32F1xx_HAL_Driver/Src/stm32f1xx_hal_flash_ex.c **** #endif /* FLASH_BANK2_END */
 229:Drivers/STM32F1xx_HAL_Driver/Src/stm32f1xx_hal_flash_ex.c ****     {
 230:Drivers/STM32F1xx_HAL_Driver/Src/stm32f1xx_hal_flash_ex.c ****       /* Mass Erase requested for Bank1 */
 231:Drivers/STM32F1xx_HAL_Driver/Src/stm32f1xx_hal_flash_ex.c ****       /* Wait for last operation to be completed */
 232:Drivers/STM32F1xx_HAL_Driver/Src/stm32f1xx_hal_flash_ex.c ****       if (FLASH_WaitForLastOperation((uint32_t)FLASH_TIMEOUT_VALUE) == HAL_OK)
 233:Drivers/STM32F1xx_HAL_Driver/Src/stm32f1xx_hal_flash_ex.c ****       {
 234:Drivers/STM32F1xx_HAL_Driver/Src/stm32f1xx_hal_flash_ex.c ****         /*Mass erase to be done*/
 235:Drivers/STM32F1xx_HAL_Driver/Src/stm32f1xx_hal_flash_ex.c ****         FLASH_MassErase(FLASH_BANK_1);
 236:Drivers/STM32F1xx_HAL_Driver/Src/stm32f1xx_hal_flash_ex.c ****         
 237:Drivers/STM32F1xx_HAL_Driver/Src/stm32f1xx_hal_flash_ex.c ****         /* Wait for last operation to be completed */
 238:Drivers/STM32F1xx_HAL_Driver/Src/stm32f1xx_hal_flash_ex.c ****         status = FLASH_WaitForLastOperation((uint32_t)FLASH_TIMEOUT_VALUE);
 239:Drivers/STM32F1xx_HAL_Driver/Src/stm32f1xx_hal_flash_ex.c ****         
 240:Drivers/STM32F1xx_HAL_Driver/Src/stm32f1xx_hal_flash_ex.c ****         /* If the erase operation is completed, disable the MER Bit */
 241:Drivers/STM32F1xx_HAL_Driver/Src/stm32f1xx_hal_flash_ex.c ****         CLEAR_BIT(FLASH->CR, FLASH_CR_MER);
 242:Drivers/STM32F1xx_HAL_Driver/Src/stm32f1xx_hal_flash_ex.c ****       }
 243:Drivers/STM32F1xx_HAL_Driver/Src/stm32f1xx_hal_flash_ex.c ****     }
 244:Drivers/STM32F1xx_HAL_Driver/Src/stm32f1xx_hal_flash_ex.c ****   }
 245:Drivers/STM32F1xx_HAL_Driver/Src/stm32f1xx_hal_flash_ex.c ****   else
 246:Drivers/STM32F1xx_HAL_Driver/Src/stm32f1xx_hal_flash_ex.c ****   {
 247:Drivers/STM32F1xx_HAL_Driver/Src/stm32f1xx_hal_flash_ex.c ****     /* Page Erase is requested */
 248:Drivers/STM32F1xx_HAL_Driver/Src/stm32f1xx_hal_flash_ex.c ****     /* Check the parameters */
 249:Drivers/STM32F1xx_HAL_Driver/Src/stm32f1xx_hal_flash_ex.c ****     assert_param(IS_FLASH_PROGRAM_ADDRESS(pEraseInit->PageAddress));
 250:Drivers/STM32F1xx_HAL_Driver/Src/stm32f1xx_hal_flash_ex.c ****     assert_param(IS_FLASH_NB_PAGES(pEraseInit->PageAddress, pEraseInit->NbPages));
 251:Drivers/STM32F1xx_HAL_Driver/Src/stm32f1xx_hal_flash_ex.c ****     
 252:Drivers/STM32F1xx_HAL_Driver/Src/stm32f1xx_hal_flash_ex.c **** #if defined(FLASH_BANK2_END)
 253:Drivers/STM32F1xx_HAL_Driver/Src/stm32f1xx_hal_flash_ex.c ****     /* Page Erase requested on address located on bank2 */
 254:Drivers/STM32F1xx_HAL_Driver/Src/stm32f1xx_hal_flash_ex.c ****     if(pEraseInit->PageAddress > FLASH_BANK1_END)
 255:Drivers/STM32F1xx_HAL_Driver/Src/stm32f1xx_hal_flash_ex.c ****     {   
 256:Drivers/STM32F1xx_HAL_Driver/Src/stm32f1xx_hal_flash_ex.c ****       /* Wait for last operation to be completed */
 257:Drivers/STM32F1xx_HAL_Driver/Src/stm32f1xx_hal_flash_ex.c ****       if (FLASH_WaitForLastOperationBank2((uint32_t)FLASH_TIMEOUT_VALUE) == HAL_OK)
 258:Drivers/STM32F1xx_HAL_Driver/Src/stm32f1xx_hal_flash_ex.c ****       {
 259:Drivers/STM32F1xx_HAL_Driver/Src/stm32f1xx_hal_flash_ex.c ****         /*Initialization of PageError variable*/
 260:Drivers/STM32F1xx_HAL_Driver/Src/stm32f1xx_hal_flash_ex.c ****         *PageError = 0xFFFFFFFFU;
 261:Drivers/STM32F1xx_HAL_Driver/Src/stm32f1xx_hal_flash_ex.c ****         
ARM GAS  /tmp/cczNPJS6.s 			page 6


 262:Drivers/STM32F1xx_HAL_Driver/Src/stm32f1xx_hal_flash_ex.c ****         /* Erase by page by page to be done*/
 263:Drivers/STM32F1xx_HAL_Driver/Src/stm32f1xx_hal_flash_ex.c ****         for(address = pEraseInit->PageAddress;
 264:Drivers/STM32F1xx_HAL_Driver/Src/stm32f1xx_hal_flash_ex.c ****             address < (pEraseInit->PageAddress + (pEraseInit->NbPages)*FLASH_PAGE_SIZE);
 265:Drivers/STM32F1xx_HAL_Driver/Src/stm32f1xx_hal_flash_ex.c ****             address += FLASH_PAGE_SIZE)
 266:Drivers/STM32F1xx_HAL_Driver/Src/stm32f1xx_hal_flash_ex.c ****         {
 267:Drivers/STM32F1xx_HAL_Driver/Src/stm32f1xx_hal_flash_ex.c ****           FLASH_PageErase(address);
 268:Drivers/STM32F1xx_HAL_Driver/Src/stm32f1xx_hal_flash_ex.c ****           
 269:Drivers/STM32F1xx_HAL_Driver/Src/stm32f1xx_hal_flash_ex.c ****           /* Wait for last operation to be completed */
 270:Drivers/STM32F1xx_HAL_Driver/Src/stm32f1xx_hal_flash_ex.c ****           status = FLASH_WaitForLastOperationBank2((uint32_t)FLASH_TIMEOUT_VALUE);
 271:Drivers/STM32F1xx_HAL_Driver/Src/stm32f1xx_hal_flash_ex.c ****           
 272:Drivers/STM32F1xx_HAL_Driver/Src/stm32f1xx_hal_flash_ex.c ****           /* If the erase operation is completed, disable the PER Bit */
 273:Drivers/STM32F1xx_HAL_Driver/Src/stm32f1xx_hal_flash_ex.c ****           CLEAR_BIT(FLASH->CR2, FLASH_CR2_PER);
 274:Drivers/STM32F1xx_HAL_Driver/Src/stm32f1xx_hal_flash_ex.c ****           
 275:Drivers/STM32F1xx_HAL_Driver/Src/stm32f1xx_hal_flash_ex.c ****           if (status != HAL_OK)
 276:Drivers/STM32F1xx_HAL_Driver/Src/stm32f1xx_hal_flash_ex.c ****           {
 277:Drivers/STM32F1xx_HAL_Driver/Src/stm32f1xx_hal_flash_ex.c ****             /* In case of error, stop erase procedure and return the faulty address */
 278:Drivers/STM32F1xx_HAL_Driver/Src/stm32f1xx_hal_flash_ex.c ****             *PageError = address;
 279:Drivers/STM32F1xx_HAL_Driver/Src/stm32f1xx_hal_flash_ex.c ****             break;
 280:Drivers/STM32F1xx_HAL_Driver/Src/stm32f1xx_hal_flash_ex.c ****           }
 281:Drivers/STM32F1xx_HAL_Driver/Src/stm32f1xx_hal_flash_ex.c ****         }
 282:Drivers/STM32F1xx_HAL_Driver/Src/stm32f1xx_hal_flash_ex.c ****       }
 283:Drivers/STM32F1xx_HAL_Driver/Src/stm32f1xx_hal_flash_ex.c ****     }
 284:Drivers/STM32F1xx_HAL_Driver/Src/stm32f1xx_hal_flash_ex.c ****     else
 285:Drivers/STM32F1xx_HAL_Driver/Src/stm32f1xx_hal_flash_ex.c **** #endif /* FLASH_BANK2_END */
 286:Drivers/STM32F1xx_HAL_Driver/Src/stm32f1xx_hal_flash_ex.c ****    {
 287:Drivers/STM32F1xx_HAL_Driver/Src/stm32f1xx_hal_flash_ex.c ****       /* Page Erase requested on address located on bank1 */
 288:Drivers/STM32F1xx_HAL_Driver/Src/stm32f1xx_hal_flash_ex.c ****       /* Wait for last operation to be completed */
 289:Drivers/STM32F1xx_HAL_Driver/Src/stm32f1xx_hal_flash_ex.c ****       if (FLASH_WaitForLastOperation((uint32_t)FLASH_TIMEOUT_VALUE) == HAL_OK)
 290:Drivers/STM32F1xx_HAL_Driver/Src/stm32f1xx_hal_flash_ex.c ****       {
 291:Drivers/STM32F1xx_HAL_Driver/Src/stm32f1xx_hal_flash_ex.c ****         /*Initialization of PageError variable*/
 292:Drivers/STM32F1xx_HAL_Driver/Src/stm32f1xx_hal_flash_ex.c ****         *PageError = 0xFFFFFFFFU;
 293:Drivers/STM32F1xx_HAL_Driver/Src/stm32f1xx_hal_flash_ex.c ****         
 294:Drivers/STM32F1xx_HAL_Driver/Src/stm32f1xx_hal_flash_ex.c ****         /* Erase page by page to be done*/
 295:Drivers/STM32F1xx_HAL_Driver/Src/stm32f1xx_hal_flash_ex.c ****         for(address = pEraseInit->PageAddress;
 296:Drivers/STM32F1xx_HAL_Driver/Src/stm32f1xx_hal_flash_ex.c ****             address < ((pEraseInit->NbPages * FLASH_PAGE_SIZE) + pEraseInit->PageAddress);
 297:Drivers/STM32F1xx_HAL_Driver/Src/stm32f1xx_hal_flash_ex.c ****             address += FLASH_PAGE_SIZE)
 298:Drivers/STM32F1xx_HAL_Driver/Src/stm32f1xx_hal_flash_ex.c ****         {
 299:Drivers/STM32F1xx_HAL_Driver/Src/stm32f1xx_hal_flash_ex.c ****           FLASH_PageErase(address);
 300:Drivers/STM32F1xx_HAL_Driver/Src/stm32f1xx_hal_flash_ex.c ****           
 301:Drivers/STM32F1xx_HAL_Driver/Src/stm32f1xx_hal_flash_ex.c ****           /* Wait for last operation to be completed */
 302:Drivers/STM32F1xx_HAL_Driver/Src/stm32f1xx_hal_flash_ex.c ****           status = FLASH_WaitForLastOperation((uint32_t)FLASH_TIMEOUT_VALUE);
 303:Drivers/STM32F1xx_HAL_Driver/Src/stm32f1xx_hal_flash_ex.c ****           
 304:Drivers/STM32F1xx_HAL_Driver/Src/stm32f1xx_hal_flash_ex.c ****           /* If the erase operation is completed, disable the PER Bit */
 305:Drivers/STM32F1xx_HAL_Driver/Src/stm32f1xx_hal_flash_ex.c ****           CLEAR_BIT(FLASH->CR, FLASH_CR_PER);
 306:Drivers/STM32F1xx_HAL_Driver/Src/stm32f1xx_hal_flash_ex.c ****           
 307:Drivers/STM32F1xx_HAL_Driver/Src/stm32f1xx_hal_flash_ex.c ****           if (status != HAL_OK)
 308:Drivers/STM32F1xx_HAL_Driver/Src/stm32f1xx_hal_flash_ex.c ****           {
 309:Drivers/STM32F1xx_HAL_Driver/Src/stm32f1xx_hal_flash_ex.c ****             /* In case of error, stop erase procedure and return the faulty address */
 310:Drivers/STM32F1xx_HAL_Driver/Src/stm32f1xx_hal_flash_ex.c ****             *PageError = address;
 311:Drivers/STM32F1xx_HAL_Driver/Src/stm32f1xx_hal_flash_ex.c ****             break;
 312:Drivers/STM32F1xx_HAL_Driver/Src/stm32f1xx_hal_flash_ex.c ****           }
 313:Drivers/STM32F1xx_HAL_Driver/Src/stm32f1xx_hal_flash_ex.c ****         }
 314:Drivers/STM32F1xx_HAL_Driver/Src/stm32f1xx_hal_flash_ex.c ****       }
 315:Drivers/STM32F1xx_HAL_Driver/Src/stm32f1xx_hal_flash_ex.c ****     }
 316:Drivers/STM32F1xx_HAL_Driver/Src/stm32f1xx_hal_flash_ex.c ****   }
 317:Drivers/STM32F1xx_HAL_Driver/Src/stm32f1xx_hal_flash_ex.c **** 
 318:Drivers/STM32F1xx_HAL_Driver/Src/stm32f1xx_hal_flash_ex.c ****   /* Process Unlocked */
ARM GAS  /tmp/cczNPJS6.s 			page 7


 319:Drivers/STM32F1xx_HAL_Driver/Src/stm32f1xx_hal_flash_ex.c ****   __HAL_UNLOCK(&pFlash);
 320:Drivers/STM32F1xx_HAL_Driver/Src/stm32f1xx_hal_flash_ex.c **** 
 321:Drivers/STM32F1xx_HAL_Driver/Src/stm32f1xx_hal_flash_ex.c ****   return status;
 322:Drivers/STM32F1xx_HAL_Driver/Src/stm32f1xx_hal_flash_ex.c **** }
 323:Drivers/STM32F1xx_HAL_Driver/Src/stm32f1xx_hal_flash_ex.c **** 
 324:Drivers/STM32F1xx_HAL_Driver/Src/stm32f1xx_hal_flash_ex.c **** /**
 325:Drivers/STM32F1xx_HAL_Driver/Src/stm32f1xx_hal_flash_ex.c ****   * @brief  Perform a mass erase or erase the specified FLASH memory pages with interrupt enabled
 326:Drivers/STM32F1xx_HAL_Driver/Src/stm32f1xx_hal_flash_ex.c ****   * @note   To correctly run this function, the @ref HAL_FLASH_Unlock() function
 327:Drivers/STM32F1xx_HAL_Driver/Src/stm32f1xx_hal_flash_ex.c ****   *         must be called before.
 328:Drivers/STM32F1xx_HAL_Driver/Src/stm32f1xx_hal_flash_ex.c ****   *         Call the @ref HAL_FLASH_Lock() to disable the flash memory access 
 329:Drivers/STM32F1xx_HAL_Driver/Src/stm32f1xx_hal_flash_ex.c ****   *         (recommended to protect the FLASH memory against possible unwanted operation)
 330:Drivers/STM32F1xx_HAL_Driver/Src/stm32f1xx_hal_flash_ex.c ****   * @param  pEraseInit pointer to an FLASH_EraseInitTypeDef structure that
 331:Drivers/STM32F1xx_HAL_Driver/Src/stm32f1xx_hal_flash_ex.c ****   *         contains the configuration information for the erasing.
 332:Drivers/STM32F1xx_HAL_Driver/Src/stm32f1xx_hal_flash_ex.c ****   *
 333:Drivers/STM32F1xx_HAL_Driver/Src/stm32f1xx_hal_flash_ex.c ****   * @retval HAL_StatusTypeDef HAL Status
 334:Drivers/STM32F1xx_HAL_Driver/Src/stm32f1xx_hal_flash_ex.c ****   */
 335:Drivers/STM32F1xx_HAL_Driver/Src/stm32f1xx_hal_flash_ex.c **** HAL_StatusTypeDef HAL_FLASHEx_Erase_IT(FLASH_EraseInitTypeDef *pEraseInit)
 336:Drivers/STM32F1xx_HAL_Driver/Src/stm32f1xx_hal_flash_ex.c **** {
 337:Drivers/STM32F1xx_HAL_Driver/Src/stm32f1xx_hal_flash_ex.c ****   HAL_StatusTypeDef status = HAL_OK;
 338:Drivers/STM32F1xx_HAL_Driver/Src/stm32f1xx_hal_flash_ex.c **** 
 339:Drivers/STM32F1xx_HAL_Driver/Src/stm32f1xx_hal_flash_ex.c ****   /* Process Locked */
 340:Drivers/STM32F1xx_HAL_Driver/Src/stm32f1xx_hal_flash_ex.c ****   __HAL_LOCK(&pFlash);
 341:Drivers/STM32F1xx_HAL_Driver/Src/stm32f1xx_hal_flash_ex.c **** 
 342:Drivers/STM32F1xx_HAL_Driver/Src/stm32f1xx_hal_flash_ex.c ****   /* If procedure already ongoing, reject the next one */
 343:Drivers/STM32F1xx_HAL_Driver/Src/stm32f1xx_hal_flash_ex.c ****   if (pFlash.ProcedureOnGoing != FLASH_PROC_NONE)
 344:Drivers/STM32F1xx_HAL_Driver/Src/stm32f1xx_hal_flash_ex.c ****   {
 345:Drivers/STM32F1xx_HAL_Driver/Src/stm32f1xx_hal_flash_ex.c ****     return HAL_ERROR;
 346:Drivers/STM32F1xx_HAL_Driver/Src/stm32f1xx_hal_flash_ex.c ****   }
 347:Drivers/STM32F1xx_HAL_Driver/Src/stm32f1xx_hal_flash_ex.c ****   
 348:Drivers/STM32F1xx_HAL_Driver/Src/stm32f1xx_hal_flash_ex.c ****   /* Check the parameters */
 349:Drivers/STM32F1xx_HAL_Driver/Src/stm32f1xx_hal_flash_ex.c ****   assert_param(IS_FLASH_TYPEERASE(pEraseInit->TypeErase));
 350:Drivers/STM32F1xx_HAL_Driver/Src/stm32f1xx_hal_flash_ex.c **** 
 351:Drivers/STM32F1xx_HAL_Driver/Src/stm32f1xx_hal_flash_ex.c ****   /* Enable End of FLASH Operation and Error source interrupts */
 352:Drivers/STM32F1xx_HAL_Driver/Src/stm32f1xx_hal_flash_ex.c ****   __HAL_FLASH_ENABLE_IT(FLASH_IT_EOP | FLASH_IT_ERR);
 353:Drivers/STM32F1xx_HAL_Driver/Src/stm32f1xx_hal_flash_ex.c **** 
 354:Drivers/STM32F1xx_HAL_Driver/Src/stm32f1xx_hal_flash_ex.c **** #if defined(FLASH_BANK2_END)
 355:Drivers/STM32F1xx_HAL_Driver/Src/stm32f1xx_hal_flash_ex.c ****   /* Enable End of FLASH Operation and Error source interrupts */
 356:Drivers/STM32F1xx_HAL_Driver/Src/stm32f1xx_hal_flash_ex.c ****   __HAL_FLASH_ENABLE_IT(FLASH_IT_EOP_BANK2 | FLASH_IT_ERR_BANK2);
 357:Drivers/STM32F1xx_HAL_Driver/Src/stm32f1xx_hal_flash_ex.c ****   
 358:Drivers/STM32F1xx_HAL_Driver/Src/stm32f1xx_hal_flash_ex.c **** #endif
 359:Drivers/STM32F1xx_HAL_Driver/Src/stm32f1xx_hal_flash_ex.c ****   if (pEraseInit->TypeErase == FLASH_TYPEERASE_MASSERASE)
 360:Drivers/STM32F1xx_HAL_Driver/Src/stm32f1xx_hal_flash_ex.c ****   {
 361:Drivers/STM32F1xx_HAL_Driver/Src/stm32f1xx_hal_flash_ex.c ****     /*Mass erase to be done*/
 362:Drivers/STM32F1xx_HAL_Driver/Src/stm32f1xx_hal_flash_ex.c ****     pFlash.ProcedureOnGoing = FLASH_PROC_MASSERASE;
 363:Drivers/STM32F1xx_HAL_Driver/Src/stm32f1xx_hal_flash_ex.c ****         FLASH_MassErase(pEraseInit->Banks);
 364:Drivers/STM32F1xx_HAL_Driver/Src/stm32f1xx_hal_flash_ex.c ****   }
 365:Drivers/STM32F1xx_HAL_Driver/Src/stm32f1xx_hal_flash_ex.c ****   else
 366:Drivers/STM32F1xx_HAL_Driver/Src/stm32f1xx_hal_flash_ex.c ****   {
 367:Drivers/STM32F1xx_HAL_Driver/Src/stm32f1xx_hal_flash_ex.c ****     /* Erase by page to be done*/
 368:Drivers/STM32F1xx_HAL_Driver/Src/stm32f1xx_hal_flash_ex.c **** 
 369:Drivers/STM32F1xx_HAL_Driver/Src/stm32f1xx_hal_flash_ex.c ****     /* Check the parameters */
 370:Drivers/STM32F1xx_HAL_Driver/Src/stm32f1xx_hal_flash_ex.c ****     assert_param(IS_FLASH_PROGRAM_ADDRESS(pEraseInit->PageAddress));
 371:Drivers/STM32F1xx_HAL_Driver/Src/stm32f1xx_hal_flash_ex.c ****     assert_param(IS_FLASH_NB_PAGES(pEraseInit->PageAddress, pEraseInit->NbPages));
 372:Drivers/STM32F1xx_HAL_Driver/Src/stm32f1xx_hal_flash_ex.c **** 
 373:Drivers/STM32F1xx_HAL_Driver/Src/stm32f1xx_hal_flash_ex.c ****     pFlash.ProcedureOnGoing = FLASH_PROC_PAGEERASE;
 374:Drivers/STM32F1xx_HAL_Driver/Src/stm32f1xx_hal_flash_ex.c ****     pFlash.DataRemaining = pEraseInit->NbPages;
 375:Drivers/STM32F1xx_HAL_Driver/Src/stm32f1xx_hal_flash_ex.c ****     pFlash.Address = pEraseInit->PageAddress;
ARM GAS  /tmp/cczNPJS6.s 			page 8


 376:Drivers/STM32F1xx_HAL_Driver/Src/stm32f1xx_hal_flash_ex.c **** 
 377:Drivers/STM32F1xx_HAL_Driver/Src/stm32f1xx_hal_flash_ex.c ****     /*Erase 1st page and wait for IT*/
 378:Drivers/STM32F1xx_HAL_Driver/Src/stm32f1xx_hal_flash_ex.c ****     FLASH_PageErase(pEraseInit->PageAddress);
 379:Drivers/STM32F1xx_HAL_Driver/Src/stm32f1xx_hal_flash_ex.c ****   }
 380:Drivers/STM32F1xx_HAL_Driver/Src/stm32f1xx_hal_flash_ex.c **** 
 381:Drivers/STM32F1xx_HAL_Driver/Src/stm32f1xx_hal_flash_ex.c ****   return status;
 382:Drivers/STM32F1xx_HAL_Driver/Src/stm32f1xx_hal_flash_ex.c **** }
 383:Drivers/STM32F1xx_HAL_Driver/Src/stm32f1xx_hal_flash_ex.c **** 
 384:Drivers/STM32F1xx_HAL_Driver/Src/stm32f1xx_hal_flash_ex.c **** /**
 385:Drivers/STM32F1xx_HAL_Driver/Src/stm32f1xx_hal_flash_ex.c ****   * @}
 386:Drivers/STM32F1xx_HAL_Driver/Src/stm32f1xx_hal_flash_ex.c ****   */
 387:Drivers/STM32F1xx_HAL_Driver/Src/stm32f1xx_hal_flash_ex.c **** 
 388:Drivers/STM32F1xx_HAL_Driver/Src/stm32f1xx_hal_flash_ex.c **** /** @defgroup FLASHEx_Exported_Functions_Group2 Option Bytes Programming functions
 389:Drivers/STM32F1xx_HAL_Driver/Src/stm32f1xx_hal_flash_ex.c ****  *  @brief   Option Bytes Programming functions
 390:Drivers/STM32F1xx_HAL_Driver/Src/stm32f1xx_hal_flash_ex.c ****   *
 391:Drivers/STM32F1xx_HAL_Driver/Src/stm32f1xx_hal_flash_ex.c **** @verbatim   
 392:Drivers/STM32F1xx_HAL_Driver/Src/stm32f1xx_hal_flash_ex.c ****   ==============================================================================
 393:Drivers/STM32F1xx_HAL_Driver/Src/stm32f1xx_hal_flash_ex.c ****                 ##### Option Bytes Programming functions ##### 
 394:Drivers/STM32F1xx_HAL_Driver/Src/stm32f1xx_hal_flash_ex.c ****   ==============================================================================  
 395:Drivers/STM32F1xx_HAL_Driver/Src/stm32f1xx_hal_flash_ex.c ****     [..]
 396:Drivers/STM32F1xx_HAL_Driver/Src/stm32f1xx_hal_flash_ex.c ****     This subsection provides a set of functions allowing to control the FLASH 
 397:Drivers/STM32F1xx_HAL_Driver/Src/stm32f1xx_hal_flash_ex.c ****     option bytes operations.
 398:Drivers/STM32F1xx_HAL_Driver/Src/stm32f1xx_hal_flash_ex.c **** 
 399:Drivers/STM32F1xx_HAL_Driver/Src/stm32f1xx_hal_flash_ex.c **** @endverbatim
 400:Drivers/STM32F1xx_HAL_Driver/Src/stm32f1xx_hal_flash_ex.c ****   * @{
 401:Drivers/STM32F1xx_HAL_Driver/Src/stm32f1xx_hal_flash_ex.c ****   */
 402:Drivers/STM32F1xx_HAL_Driver/Src/stm32f1xx_hal_flash_ex.c **** 
 403:Drivers/STM32F1xx_HAL_Driver/Src/stm32f1xx_hal_flash_ex.c **** /**
 404:Drivers/STM32F1xx_HAL_Driver/Src/stm32f1xx_hal_flash_ex.c ****   * @brief  Erases the FLASH option bytes.
 405:Drivers/STM32F1xx_HAL_Driver/Src/stm32f1xx_hal_flash_ex.c ****   * @note   This functions erases all option bytes except the Read protection (RDP).
 406:Drivers/STM32F1xx_HAL_Driver/Src/stm32f1xx_hal_flash_ex.c ****   *         The function @ref HAL_FLASH_Unlock() should be called before to unlock the FLASH interf
 407:Drivers/STM32F1xx_HAL_Driver/Src/stm32f1xx_hal_flash_ex.c ****   *         The function @ref HAL_FLASH_OB_Unlock() should be called before to unlock the options b
 408:Drivers/STM32F1xx_HAL_Driver/Src/stm32f1xx_hal_flash_ex.c ****   *         The function @ref HAL_FLASH_OB_Launch() should be called after to force the reload of t
 409:Drivers/STM32F1xx_HAL_Driver/Src/stm32f1xx_hal_flash_ex.c ****   *         (system reset will occur)
 410:Drivers/STM32F1xx_HAL_Driver/Src/stm32f1xx_hal_flash_ex.c ****   * @retval HAL status
 411:Drivers/STM32F1xx_HAL_Driver/Src/stm32f1xx_hal_flash_ex.c ****   */
 412:Drivers/STM32F1xx_HAL_Driver/Src/stm32f1xx_hal_flash_ex.c **** 
 413:Drivers/STM32F1xx_HAL_Driver/Src/stm32f1xx_hal_flash_ex.c **** HAL_StatusTypeDef HAL_FLASHEx_OBErase(void)
 414:Drivers/STM32F1xx_HAL_Driver/Src/stm32f1xx_hal_flash_ex.c **** {
 415:Drivers/STM32F1xx_HAL_Driver/Src/stm32f1xx_hal_flash_ex.c ****   uint8_t rdptmp = OB_RDP_LEVEL_0;
 416:Drivers/STM32F1xx_HAL_Driver/Src/stm32f1xx_hal_flash_ex.c ****   HAL_StatusTypeDef status = HAL_ERROR;
 417:Drivers/STM32F1xx_HAL_Driver/Src/stm32f1xx_hal_flash_ex.c **** 
 418:Drivers/STM32F1xx_HAL_Driver/Src/stm32f1xx_hal_flash_ex.c ****   /* Get the actual read protection Option Byte value */
 419:Drivers/STM32F1xx_HAL_Driver/Src/stm32f1xx_hal_flash_ex.c ****   rdptmp = FLASH_OB_GetRDP();
 420:Drivers/STM32F1xx_HAL_Driver/Src/stm32f1xx_hal_flash_ex.c **** 
 421:Drivers/STM32F1xx_HAL_Driver/Src/stm32f1xx_hal_flash_ex.c ****   /* Wait for last operation to be completed */
 422:Drivers/STM32F1xx_HAL_Driver/Src/stm32f1xx_hal_flash_ex.c ****   status = FLASH_WaitForLastOperation((uint32_t)FLASH_TIMEOUT_VALUE);
 423:Drivers/STM32F1xx_HAL_Driver/Src/stm32f1xx_hal_flash_ex.c **** 
 424:Drivers/STM32F1xx_HAL_Driver/Src/stm32f1xx_hal_flash_ex.c ****   if(status == HAL_OK)
 425:Drivers/STM32F1xx_HAL_Driver/Src/stm32f1xx_hal_flash_ex.c ****   {
 426:Drivers/STM32F1xx_HAL_Driver/Src/stm32f1xx_hal_flash_ex.c ****     /* Clean the error context */
 427:Drivers/STM32F1xx_HAL_Driver/Src/stm32f1xx_hal_flash_ex.c ****     pFlash.ErrorCode = HAL_FLASH_ERROR_NONE;
 428:Drivers/STM32F1xx_HAL_Driver/Src/stm32f1xx_hal_flash_ex.c **** 
 429:Drivers/STM32F1xx_HAL_Driver/Src/stm32f1xx_hal_flash_ex.c ****     /* If the previous operation is completed, proceed to erase the option bytes */
 430:Drivers/STM32F1xx_HAL_Driver/Src/stm32f1xx_hal_flash_ex.c ****     SET_BIT(FLASH->CR, FLASH_CR_OPTER);
 431:Drivers/STM32F1xx_HAL_Driver/Src/stm32f1xx_hal_flash_ex.c ****     SET_BIT(FLASH->CR, FLASH_CR_STRT);
 432:Drivers/STM32F1xx_HAL_Driver/Src/stm32f1xx_hal_flash_ex.c **** 
ARM GAS  /tmp/cczNPJS6.s 			page 9


 433:Drivers/STM32F1xx_HAL_Driver/Src/stm32f1xx_hal_flash_ex.c ****     /* Wait for last operation to be completed */
 434:Drivers/STM32F1xx_HAL_Driver/Src/stm32f1xx_hal_flash_ex.c ****     status = FLASH_WaitForLastOperation((uint32_t)FLASH_TIMEOUT_VALUE);
 435:Drivers/STM32F1xx_HAL_Driver/Src/stm32f1xx_hal_flash_ex.c **** 
 436:Drivers/STM32F1xx_HAL_Driver/Src/stm32f1xx_hal_flash_ex.c ****     /* If the erase operation is completed, disable the OPTER Bit */
 437:Drivers/STM32F1xx_HAL_Driver/Src/stm32f1xx_hal_flash_ex.c ****     CLEAR_BIT(FLASH->CR, FLASH_CR_OPTER);
 438:Drivers/STM32F1xx_HAL_Driver/Src/stm32f1xx_hal_flash_ex.c **** 
 439:Drivers/STM32F1xx_HAL_Driver/Src/stm32f1xx_hal_flash_ex.c ****     if(status == HAL_OK)
 440:Drivers/STM32F1xx_HAL_Driver/Src/stm32f1xx_hal_flash_ex.c ****     {
 441:Drivers/STM32F1xx_HAL_Driver/Src/stm32f1xx_hal_flash_ex.c ****       /* Restore the last read protection Option Byte value */
 442:Drivers/STM32F1xx_HAL_Driver/Src/stm32f1xx_hal_flash_ex.c ****       status = FLASH_OB_RDP_LevelConfig(rdptmp);
 443:Drivers/STM32F1xx_HAL_Driver/Src/stm32f1xx_hal_flash_ex.c ****     }
 444:Drivers/STM32F1xx_HAL_Driver/Src/stm32f1xx_hal_flash_ex.c ****   }
 445:Drivers/STM32F1xx_HAL_Driver/Src/stm32f1xx_hal_flash_ex.c **** 
 446:Drivers/STM32F1xx_HAL_Driver/Src/stm32f1xx_hal_flash_ex.c ****   /* Return the erase status */
 447:Drivers/STM32F1xx_HAL_Driver/Src/stm32f1xx_hal_flash_ex.c ****   return status;
 448:Drivers/STM32F1xx_HAL_Driver/Src/stm32f1xx_hal_flash_ex.c **** }
 449:Drivers/STM32F1xx_HAL_Driver/Src/stm32f1xx_hal_flash_ex.c **** 
 450:Drivers/STM32F1xx_HAL_Driver/Src/stm32f1xx_hal_flash_ex.c **** /**
 451:Drivers/STM32F1xx_HAL_Driver/Src/stm32f1xx_hal_flash_ex.c ****   * @brief  Program option bytes
 452:Drivers/STM32F1xx_HAL_Driver/Src/stm32f1xx_hal_flash_ex.c ****   * @note   The function @ref HAL_FLASH_Unlock() should be called before to unlock the FLASH interf
 453:Drivers/STM32F1xx_HAL_Driver/Src/stm32f1xx_hal_flash_ex.c ****   *         The function @ref HAL_FLASH_OB_Unlock() should be called before to unlock the options b
 454:Drivers/STM32F1xx_HAL_Driver/Src/stm32f1xx_hal_flash_ex.c ****   *         The function @ref HAL_FLASH_OB_Launch() should be called after to force the reload of t
 455:Drivers/STM32F1xx_HAL_Driver/Src/stm32f1xx_hal_flash_ex.c ****   *         (system reset will occur)
 456:Drivers/STM32F1xx_HAL_Driver/Src/stm32f1xx_hal_flash_ex.c ****   *
 457:Drivers/STM32F1xx_HAL_Driver/Src/stm32f1xx_hal_flash_ex.c ****   * @param  pOBInit pointer to an FLASH_OBInitStruct structure that
 458:Drivers/STM32F1xx_HAL_Driver/Src/stm32f1xx_hal_flash_ex.c ****   *         contains the configuration information for the programming.
 459:Drivers/STM32F1xx_HAL_Driver/Src/stm32f1xx_hal_flash_ex.c ****   *
 460:Drivers/STM32F1xx_HAL_Driver/Src/stm32f1xx_hal_flash_ex.c ****   * @retval HAL_StatusTypeDef HAL Status
 461:Drivers/STM32F1xx_HAL_Driver/Src/stm32f1xx_hal_flash_ex.c ****   */
 462:Drivers/STM32F1xx_HAL_Driver/Src/stm32f1xx_hal_flash_ex.c **** HAL_StatusTypeDef HAL_FLASHEx_OBProgram(FLASH_OBProgramInitTypeDef *pOBInit)
 463:Drivers/STM32F1xx_HAL_Driver/Src/stm32f1xx_hal_flash_ex.c **** {
 464:Drivers/STM32F1xx_HAL_Driver/Src/stm32f1xx_hal_flash_ex.c ****   HAL_StatusTypeDef status = HAL_ERROR;
 465:Drivers/STM32F1xx_HAL_Driver/Src/stm32f1xx_hal_flash_ex.c **** 
 466:Drivers/STM32F1xx_HAL_Driver/Src/stm32f1xx_hal_flash_ex.c ****   /* Process Locked */
 467:Drivers/STM32F1xx_HAL_Driver/Src/stm32f1xx_hal_flash_ex.c ****   __HAL_LOCK(&pFlash);
 468:Drivers/STM32F1xx_HAL_Driver/Src/stm32f1xx_hal_flash_ex.c **** 
 469:Drivers/STM32F1xx_HAL_Driver/Src/stm32f1xx_hal_flash_ex.c ****   /* Check the parameters */
 470:Drivers/STM32F1xx_HAL_Driver/Src/stm32f1xx_hal_flash_ex.c ****   assert_param(IS_OPTIONBYTE(pOBInit->OptionType));
 471:Drivers/STM32F1xx_HAL_Driver/Src/stm32f1xx_hal_flash_ex.c **** 
 472:Drivers/STM32F1xx_HAL_Driver/Src/stm32f1xx_hal_flash_ex.c ****   /* Write protection configuration */
 473:Drivers/STM32F1xx_HAL_Driver/Src/stm32f1xx_hal_flash_ex.c ****   if((pOBInit->OptionType & OPTIONBYTE_WRP) == OPTIONBYTE_WRP)
 474:Drivers/STM32F1xx_HAL_Driver/Src/stm32f1xx_hal_flash_ex.c ****   {
 475:Drivers/STM32F1xx_HAL_Driver/Src/stm32f1xx_hal_flash_ex.c ****     assert_param(IS_WRPSTATE(pOBInit->WRPState));
 476:Drivers/STM32F1xx_HAL_Driver/Src/stm32f1xx_hal_flash_ex.c ****     if (pOBInit->WRPState == OB_WRPSTATE_ENABLE)
 477:Drivers/STM32F1xx_HAL_Driver/Src/stm32f1xx_hal_flash_ex.c ****     {
 478:Drivers/STM32F1xx_HAL_Driver/Src/stm32f1xx_hal_flash_ex.c ****       /* Enable of Write protection on the selected page */
 479:Drivers/STM32F1xx_HAL_Driver/Src/stm32f1xx_hal_flash_ex.c ****       status = FLASH_OB_EnableWRP(pOBInit->WRPPage);
 480:Drivers/STM32F1xx_HAL_Driver/Src/stm32f1xx_hal_flash_ex.c ****     }
 481:Drivers/STM32F1xx_HAL_Driver/Src/stm32f1xx_hal_flash_ex.c ****     else
 482:Drivers/STM32F1xx_HAL_Driver/Src/stm32f1xx_hal_flash_ex.c ****     {
 483:Drivers/STM32F1xx_HAL_Driver/Src/stm32f1xx_hal_flash_ex.c ****       /* Disable of Write protection on the selected page */
 484:Drivers/STM32F1xx_HAL_Driver/Src/stm32f1xx_hal_flash_ex.c ****       status = FLASH_OB_DisableWRP(pOBInit->WRPPage);
 485:Drivers/STM32F1xx_HAL_Driver/Src/stm32f1xx_hal_flash_ex.c ****     }
 486:Drivers/STM32F1xx_HAL_Driver/Src/stm32f1xx_hal_flash_ex.c ****     if (status != HAL_OK)
 487:Drivers/STM32F1xx_HAL_Driver/Src/stm32f1xx_hal_flash_ex.c ****     {
 488:Drivers/STM32F1xx_HAL_Driver/Src/stm32f1xx_hal_flash_ex.c ****       /* Process Unlocked */
 489:Drivers/STM32F1xx_HAL_Driver/Src/stm32f1xx_hal_flash_ex.c ****       __HAL_UNLOCK(&pFlash);
ARM GAS  /tmp/cczNPJS6.s 			page 10


 490:Drivers/STM32F1xx_HAL_Driver/Src/stm32f1xx_hal_flash_ex.c ****       return status;
 491:Drivers/STM32F1xx_HAL_Driver/Src/stm32f1xx_hal_flash_ex.c ****     }
 492:Drivers/STM32F1xx_HAL_Driver/Src/stm32f1xx_hal_flash_ex.c ****   }
 493:Drivers/STM32F1xx_HAL_Driver/Src/stm32f1xx_hal_flash_ex.c **** 
 494:Drivers/STM32F1xx_HAL_Driver/Src/stm32f1xx_hal_flash_ex.c ****   /* Read protection configuration */
 495:Drivers/STM32F1xx_HAL_Driver/Src/stm32f1xx_hal_flash_ex.c ****   if((pOBInit->OptionType & OPTIONBYTE_RDP) == OPTIONBYTE_RDP)
 496:Drivers/STM32F1xx_HAL_Driver/Src/stm32f1xx_hal_flash_ex.c ****   {
 497:Drivers/STM32F1xx_HAL_Driver/Src/stm32f1xx_hal_flash_ex.c ****     status = FLASH_OB_RDP_LevelConfig(pOBInit->RDPLevel);
 498:Drivers/STM32F1xx_HAL_Driver/Src/stm32f1xx_hal_flash_ex.c ****     if (status != HAL_OK)
 499:Drivers/STM32F1xx_HAL_Driver/Src/stm32f1xx_hal_flash_ex.c ****     {
 500:Drivers/STM32F1xx_HAL_Driver/Src/stm32f1xx_hal_flash_ex.c ****       /* Process Unlocked */
 501:Drivers/STM32F1xx_HAL_Driver/Src/stm32f1xx_hal_flash_ex.c ****       __HAL_UNLOCK(&pFlash);
 502:Drivers/STM32F1xx_HAL_Driver/Src/stm32f1xx_hal_flash_ex.c ****       return status;
 503:Drivers/STM32F1xx_HAL_Driver/Src/stm32f1xx_hal_flash_ex.c ****     }
 504:Drivers/STM32F1xx_HAL_Driver/Src/stm32f1xx_hal_flash_ex.c ****   }
 505:Drivers/STM32F1xx_HAL_Driver/Src/stm32f1xx_hal_flash_ex.c **** 
 506:Drivers/STM32F1xx_HAL_Driver/Src/stm32f1xx_hal_flash_ex.c ****   /* USER configuration */
 507:Drivers/STM32F1xx_HAL_Driver/Src/stm32f1xx_hal_flash_ex.c ****   if((pOBInit->OptionType & OPTIONBYTE_USER) == OPTIONBYTE_USER)
 508:Drivers/STM32F1xx_HAL_Driver/Src/stm32f1xx_hal_flash_ex.c ****   {
 509:Drivers/STM32F1xx_HAL_Driver/Src/stm32f1xx_hal_flash_ex.c ****     status = FLASH_OB_UserConfig(pOBInit->USERConfig);
 510:Drivers/STM32F1xx_HAL_Driver/Src/stm32f1xx_hal_flash_ex.c ****     if (status != HAL_OK)
 511:Drivers/STM32F1xx_HAL_Driver/Src/stm32f1xx_hal_flash_ex.c ****     {
 512:Drivers/STM32F1xx_HAL_Driver/Src/stm32f1xx_hal_flash_ex.c ****       /* Process Unlocked */
 513:Drivers/STM32F1xx_HAL_Driver/Src/stm32f1xx_hal_flash_ex.c ****       __HAL_UNLOCK(&pFlash);
 514:Drivers/STM32F1xx_HAL_Driver/Src/stm32f1xx_hal_flash_ex.c ****       return status;
 515:Drivers/STM32F1xx_HAL_Driver/Src/stm32f1xx_hal_flash_ex.c ****     }
 516:Drivers/STM32F1xx_HAL_Driver/Src/stm32f1xx_hal_flash_ex.c ****   }
 517:Drivers/STM32F1xx_HAL_Driver/Src/stm32f1xx_hal_flash_ex.c **** 
 518:Drivers/STM32F1xx_HAL_Driver/Src/stm32f1xx_hal_flash_ex.c ****   /* DATA configuration*/
 519:Drivers/STM32F1xx_HAL_Driver/Src/stm32f1xx_hal_flash_ex.c ****   if((pOBInit->OptionType & OPTIONBYTE_DATA) == OPTIONBYTE_DATA)
 520:Drivers/STM32F1xx_HAL_Driver/Src/stm32f1xx_hal_flash_ex.c ****   {
 521:Drivers/STM32F1xx_HAL_Driver/Src/stm32f1xx_hal_flash_ex.c ****     status = FLASH_OB_ProgramData(pOBInit->DATAAddress, pOBInit->DATAData);
 522:Drivers/STM32F1xx_HAL_Driver/Src/stm32f1xx_hal_flash_ex.c ****     if (status != HAL_OK)
 523:Drivers/STM32F1xx_HAL_Driver/Src/stm32f1xx_hal_flash_ex.c ****     {
 524:Drivers/STM32F1xx_HAL_Driver/Src/stm32f1xx_hal_flash_ex.c ****       /* Process Unlocked */
 525:Drivers/STM32F1xx_HAL_Driver/Src/stm32f1xx_hal_flash_ex.c ****       __HAL_UNLOCK(&pFlash);
 526:Drivers/STM32F1xx_HAL_Driver/Src/stm32f1xx_hal_flash_ex.c ****       return status;
 527:Drivers/STM32F1xx_HAL_Driver/Src/stm32f1xx_hal_flash_ex.c ****     }
 528:Drivers/STM32F1xx_HAL_Driver/Src/stm32f1xx_hal_flash_ex.c ****   }
 529:Drivers/STM32F1xx_HAL_Driver/Src/stm32f1xx_hal_flash_ex.c **** 
 530:Drivers/STM32F1xx_HAL_Driver/Src/stm32f1xx_hal_flash_ex.c ****   /* Process Unlocked */
 531:Drivers/STM32F1xx_HAL_Driver/Src/stm32f1xx_hal_flash_ex.c ****   __HAL_UNLOCK(&pFlash);
 532:Drivers/STM32F1xx_HAL_Driver/Src/stm32f1xx_hal_flash_ex.c **** 
 533:Drivers/STM32F1xx_HAL_Driver/Src/stm32f1xx_hal_flash_ex.c ****   return status;
 534:Drivers/STM32F1xx_HAL_Driver/Src/stm32f1xx_hal_flash_ex.c **** }
 535:Drivers/STM32F1xx_HAL_Driver/Src/stm32f1xx_hal_flash_ex.c **** 
 536:Drivers/STM32F1xx_HAL_Driver/Src/stm32f1xx_hal_flash_ex.c **** /**
 537:Drivers/STM32F1xx_HAL_Driver/Src/stm32f1xx_hal_flash_ex.c ****   * @brief  Get the Option byte configuration
 538:Drivers/STM32F1xx_HAL_Driver/Src/stm32f1xx_hal_flash_ex.c ****   * @param  pOBInit pointer to an FLASH_OBInitStruct structure that
 539:Drivers/STM32F1xx_HAL_Driver/Src/stm32f1xx_hal_flash_ex.c ****   *         contains the configuration information for the programming.
 540:Drivers/STM32F1xx_HAL_Driver/Src/stm32f1xx_hal_flash_ex.c ****   *
 541:Drivers/STM32F1xx_HAL_Driver/Src/stm32f1xx_hal_flash_ex.c ****   * @retval None
 542:Drivers/STM32F1xx_HAL_Driver/Src/stm32f1xx_hal_flash_ex.c ****   */
 543:Drivers/STM32F1xx_HAL_Driver/Src/stm32f1xx_hal_flash_ex.c **** void HAL_FLASHEx_OBGetConfig(FLASH_OBProgramInitTypeDef *pOBInit)
 544:Drivers/STM32F1xx_HAL_Driver/Src/stm32f1xx_hal_flash_ex.c **** {
 545:Drivers/STM32F1xx_HAL_Driver/Src/stm32f1xx_hal_flash_ex.c ****   pOBInit->OptionType = OPTIONBYTE_WRP | OPTIONBYTE_RDP | OPTIONBYTE_USER;
 546:Drivers/STM32F1xx_HAL_Driver/Src/stm32f1xx_hal_flash_ex.c **** 
ARM GAS  /tmp/cczNPJS6.s 			page 11


 547:Drivers/STM32F1xx_HAL_Driver/Src/stm32f1xx_hal_flash_ex.c ****   /*Get WRP*/
 548:Drivers/STM32F1xx_HAL_Driver/Src/stm32f1xx_hal_flash_ex.c ****   pOBInit->WRPPage = FLASH_OB_GetWRP();
 549:Drivers/STM32F1xx_HAL_Driver/Src/stm32f1xx_hal_flash_ex.c **** 
 550:Drivers/STM32F1xx_HAL_Driver/Src/stm32f1xx_hal_flash_ex.c ****   /*Get RDP Level*/
 551:Drivers/STM32F1xx_HAL_Driver/Src/stm32f1xx_hal_flash_ex.c ****   pOBInit->RDPLevel = FLASH_OB_GetRDP();
 552:Drivers/STM32F1xx_HAL_Driver/Src/stm32f1xx_hal_flash_ex.c **** 
 553:Drivers/STM32F1xx_HAL_Driver/Src/stm32f1xx_hal_flash_ex.c ****   /*Get USER*/
 554:Drivers/STM32F1xx_HAL_Driver/Src/stm32f1xx_hal_flash_ex.c ****   pOBInit->USERConfig = FLASH_OB_GetUser();
 555:Drivers/STM32F1xx_HAL_Driver/Src/stm32f1xx_hal_flash_ex.c **** }
 556:Drivers/STM32F1xx_HAL_Driver/Src/stm32f1xx_hal_flash_ex.c **** 
 557:Drivers/STM32F1xx_HAL_Driver/Src/stm32f1xx_hal_flash_ex.c **** /**
 558:Drivers/STM32F1xx_HAL_Driver/Src/stm32f1xx_hal_flash_ex.c ****   * @brief  Get the Option byte user data
 559:Drivers/STM32F1xx_HAL_Driver/Src/stm32f1xx_hal_flash_ex.c ****   * @param  DATAAdress Address of the option byte DATA
 560:Drivers/STM32F1xx_HAL_Driver/Src/stm32f1xx_hal_flash_ex.c ****   *          This parameter can be one of the following values:
 561:Drivers/STM32F1xx_HAL_Driver/Src/stm32f1xx_hal_flash_ex.c ****   *            @arg @ref OB_DATA_ADDRESS_DATA0
 562:Drivers/STM32F1xx_HAL_Driver/Src/stm32f1xx_hal_flash_ex.c ****   *            @arg @ref OB_DATA_ADDRESS_DATA1
 563:Drivers/STM32F1xx_HAL_Driver/Src/stm32f1xx_hal_flash_ex.c ****   * @retval Value programmed in USER data
 564:Drivers/STM32F1xx_HAL_Driver/Src/stm32f1xx_hal_flash_ex.c ****   */
 565:Drivers/STM32F1xx_HAL_Driver/Src/stm32f1xx_hal_flash_ex.c **** uint32_t HAL_FLASHEx_OBGetUserData(uint32_t DATAAdress)
 566:Drivers/STM32F1xx_HAL_Driver/Src/stm32f1xx_hal_flash_ex.c **** {
 567:Drivers/STM32F1xx_HAL_Driver/Src/stm32f1xx_hal_flash_ex.c ****   uint32_t value = 0;
 568:Drivers/STM32F1xx_HAL_Driver/Src/stm32f1xx_hal_flash_ex.c ****   
 569:Drivers/STM32F1xx_HAL_Driver/Src/stm32f1xx_hal_flash_ex.c ****   if (DATAAdress == OB_DATA_ADDRESS_DATA0)
 570:Drivers/STM32F1xx_HAL_Driver/Src/stm32f1xx_hal_flash_ex.c ****   {
 571:Drivers/STM32F1xx_HAL_Driver/Src/stm32f1xx_hal_flash_ex.c ****     /* Get value programmed in OB USER Data0 */
 572:Drivers/STM32F1xx_HAL_Driver/Src/stm32f1xx_hal_flash_ex.c ****     value = READ_BIT(FLASH->OBR, FLASH_OBR_DATA0) >> FLASH_POSITION_OB_USERDATA0_BIT;
 573:Drivers/STM32F1xx_HAL_Driver/Src/stm32f1xx_hal_flash_ex.c ****   }
 574:Drivers/STM32F1xx_HAL_Driver/Src/stm32f1xx_hal_flash_ex.c ****   else
 575:Drivers/STM32F1xx_HAL_Driver/Src/stm32f1xx_hal_flash_ex.c ****   {
 576:Drivers/STM32F1xx_HAL_Driver/Src/stm32f1xx_hal_flash_ex.c ****     /* Get value programmed in OB USER Data1 */
 577:Drivers/STM32F1xx_HAL_Driver/Src/stm32f1xx_hal_flash_ex.c ****     value = READ_BIT(FLASH->OBR, FLASH_OBR_DATA1) >> FLASH_POSITION_OB_USERDATA1_BIT;
 578:Drivers/STM32F1xx_HAL_Driver/Src/stm32f1xx_hal_flash_ex.c ****   }
 579:Drivers/STM32F1xx_HAL_Driver/Src/stm32f1xx_hal_flash_ex.c ****   
 580:Drivers/STM32F1xx_HAL_Driver/Src/stm32f1xx_hal_flash_ex.c ****   return value;
 581:Drivers/STM32F1xx_HAL_Driver/Src/stm32f1xx_hal_flash_ex.c **** }
 582:Drivers/STM32F1xx_HAL_Driver/Src/stm32f1xx_hal_flash_ex.c **** 
 583:Drivers/STM32F1xx_HAL_Driver/Src/stm32f1xx_hal_flash_ex.c **** /**
 584:Drivers/STM32F1xx_HAL_Driver/Src/stm32f1xx_hal_flash_ex.c ****   * @}
 585:Drivers/STM32F1xx_HAL_Driver/Src/stm32f1xx_hal_flash_ex.c ****   */
 586:Drivers/STM32F1xx_HAL_Driver/Src/stm32f1xx_hal_flash_ex.c **** 
 587:Drivers/STM32F1xx_HAL_Driver/Src/stm32f1xx_hal_flash_ex.c **** /**
 588:Drivers/STM32F1xx_HAL_Driver/Src/stm32f1xx_hal_flash_ex.c ****   * @}
 589:Drivers/STM32F1xx_HAL_Driver/Src/stm32f1xx_hal_flash_ex.c ****   */
 590:Drivers/STM32F1xx_HAL_Driver/Src/stm32f1xx_hal_flash_ex.c **** 
 591:Drivers/STM32F1xx_HAL_Driver/Src/stm32f1xx_hal_flash_ex.c **** /** @addtogroup FLASHEx_Private_Functions
 592:Drivers/STM32F1xx_HAL_Driver/Src/stm32f1xx_hal_flash_ex.c ****  * @{
 593:Drivers/STM32F1xx_HAL_Driver/Src/stm32f1xx_hal_flash_ex.c ****  */
 594:Drivers/STM32F1xx_HAL_Driver/Src/stm32f1xx_hal_flash_ex.c **** 
 595:Drivers/STM32F1xx_HAL_Driver/Src/stm32f1xx_hal_flash_ex.c **** /**
 596:Drivers/STM32F1xx_HAL_Driver/Src/stm32f1xx_hal_flash_ex.c ****   * @brief  Full erase of FLASH memory Bank 
 597:Drivers/STM32F1xx_HAL_Driver/Src/stm32f1xx_hal_flash_ex.c ****   * @param  Banks Banks to be erased
 598:Drivers/STM32F1xx_HAL_Driver/Src/stm32f1xx_hal_flash_ex.c ****   *          This parameter can be one of the following values:
 599:Drivers/STM32F1xx_HAL_Driver/Src/stm32f1xx_hal_flash_ex.c ****   *            @arg @ref FLASH_BANK_1 Bank1 to be erased
 600:Drivers/STM32F1xx_HAL_Driver/Src/stm32f1xx_hal_flash_ex.c ****   @if STM32F101xG
 601:Drivers/STM32F1xx_HAL_Driver/Src/stm32f1xx_hal_flash_ex.c ****   *            @arg @ref FLASH_BANK_2 Bank2 to be erased
 602:Drivers/STM32F1xx_HAL_Driver/Src/stm32f1xx_hal_flash_ex.c ****   *            @arg @ref FLASH_BANK_BOTH Bank1 and Bank2 to be erased
 603:Drivers/STM32F1xx_HAL_Driver/Src/stm32f1xx_hal_flash_ex.c ****   @endif
ARM GAS  /tmp/cczNPJS6.s 			page 12


 604:Drivers/STM32F1xx_HAL_Driver/Src/stm32f1xx_hal_flash_ex.c ****   @if STM32F103xG
 605:Drivers/STM32F1xx_HAL_Driver/Src/stm32f1xx_hal_flash_ex.c ****   *            @arg @ref FLASH_BANK_2 Bank2 to be erased
 606:Drivers/STM32F1xx_HAL_Driver/Src/stm32f1xx_hal_flash_ex.c ****   *            @arg @ref FLASH_BANK_BOTH Bank1 and Bank2 to be erased
 607:Drivers/STM32F1xx_HAL_Driver/Src/stm32f1xx_hal_flash_ex.c ****   @endif
 608:Drivers/STM32F1xx_HAL_Driver/Src/stm32f1xx_hal_flash_ex.c ****   *
 609:Drivers/STM32F1xx_HAL_Driver/Src/stm32f1xx_hal_flash_ex.c ****   * @retval None
 610:Drivers/STM32F1xx_HAL_Driver/Src/stm32f1xx_hal_flash_ex.c ****   */
 611:Drivers/STM32F1xx_HAL_Driver/Src/stm32f1xx_hal_flash_ex.c **** static void FLASH_MassErase(uint32_t Banks)
 612:Drivers/STM32F1xx_HAL_Driver/Src/stm32f1xx_hal_flash_ex.c **** {
 613:Drivers/STM32F1xx_HAL_Driver/Src/stm32f1xx_hal_flash_ex.c ****   /* Check the parameters */
 614:Drivers/STM32F1xx_HAL_Driver/Src/stm32f1xx_hal_flash_ex.c ****   assert_param(IS_FLASH_BANK(Banks));
 615:Drivers/STM32F1xx_HAL_Driver/Src/stm32f1xx_hal_flash_ex.c **** 
 616:Drivers/STM32F1xx_HAL_Driver/Src/stm32f1xx_hal_flash_ex.c ****   /* Clean the error context */
 617:Drivers/STM32F1xx_HAL_Driver/Src/stm32f1xx_hal_flash_ex.c ****   pFlash.ErrorCode = HAL_FLASH_ERROR_NONE;
 618:Drivers/STM32F1xx_HAL_Driver/Src/stm32f1xx_hal_flash_ex.c **** 
 619:Drivers/STM32F1xx_HAL_Driver/Src/stm32f1xx_hal_flash_ex.c **** #if defined(FLASH_BANK2_END)
 620:Drivers/STM32F1xx_HAL_Driver/Src/stm32f1xx_hal_flash_ex.c ****   if(Banks == FLASH_BANK_BOTH)
 621:Drivers/STM32F1xx_HAL_Driver/Src/stm32f1xx_hal_flash_ex.c ****   {
 622:Drivers/STM32F1xx_HAL_Driver/Src/stm32f1xx_hal_flash_ex.c ****     /* bank1 & bank2 will be erased*/
 623:Drivers/STM32F1xx_HAL_Driver/Src/stm32f1xx_hal_flash_ex.c ****     SET_BIT(FLASH->CR, FLASH_CR_MER);
 624:Drivers/STM32F1xx_HAL_Driver/Src/stm32f1xx_hal_flash_ex.c ****     SET_BIT(FLASH->CR2, FLASH_CR2_MER);
 625:Drivers/STM32F1xx_HAL_Driver/Src/stm32f1xx_hal_flash_ex.c ****     SET_BIT(FLASH->CR, FLASH_CR_STRT);
 626:Drivers/STM32F1xx_HAL_Driver/Src/stm32f1xx_hal_flash_ex.c ****     SET_BIT(FLASH->CR2, FLASH_CR2_STRT);
 627:Drivers/STM32F1xx_HAL_Driver/Src/stm32f1xx_hal_flash_ex.c ****   }
 628:Drivers/STM32F1xx_HAL_Driver/Src/stm32f1xx_hal_flash_ex.c ****   else if(Banks == FLASH_BANK_2)
 629:Drivers/STM32F1xx_HAL_Driver/Src/stm32f1xx_hal_flash_ex.c ****   {
 630:Drivers/STM32F1xx_HAL_Driver/Src/stm32f1xx_hal_flash_ex.c ****     /*Only bank2 will be erased*/
 631:Drivers/STM32F1xx_HAL_Driver/Src/stm32f1xx_hal_flash_ex.c ****     SET_BIT(FLASH->CR2, FLASH_CR2_MER);
 632:Drivers/STM32F1xx_HAL_Driver/Src/stm32f1xx_hal_flash_ex.c ****     SET_BIT(FLASH->CR2, FLASH_CR2_STRT);
 633:Drivers/STM32F1xx_HAL_Driver/Src/stm32f1xx_hal_flash_ex.c ****   }
 634:Drivers/STM32F1xx_HAL_Driver/Src/stm32f1xx_hal_flash_ex.c ****   else
 635:Drivers/STM32F1xx_HAL_Driver/Src/stm32f1xx_hal_flash_ex.c ****   {
 636:Drivers/STM32F1xx_HAL_Driver/Src/stm32f1xx_hal_flash_ex.c **** #endif /* FLASH_BANK2_END */
 637:Drivers/STM32F1xx_HAL_Driver/Src/stm32f1xx_hal_flash_ex.c **** #if !defined(FLASH_BANK2_END)
 638:Drivers/STM32F1xx_HAL_Driver/Src/stm32f1xx_hal_flash_ex.c ****   /* Prevent unused argument(s) compilation warning */
 639:Drivers/STM32F1xx_HAL_Driver/Src/stm32f1xx_hal_flash_ex.c ****   UNUSED(Banks);
 640:Drivers/STM32F1xx_HAL_Driver/Src/stm32f1xx_hal_flash_ex.c **** #endif /* FLASH_BANK2_END */  
 641:Drivers/STM32F1xx_HAL_Driver/Src/stm32f1xx_hal_flash_ex.c ****     /* Only bank1 will be erased*/
 642:Drivers/STM32F1xx_HAL_Driver/Src/stm32f1xx_hal_flash_ex.c ****     SET_BIT(FLASH->CR, FLASH_CR_MER);
 643:Drivers/STM32F1xx_HAL_Driver/Src/stm32f1xx_hal_flash_ex.c ****     SET_BIT(FLASH->CR, FLASH_CR_STRT);
 644:Drivers/STM32F1xx_HAL_Driver/Src/stm32f1xx_hal_flash_ex.c **** #if defined(FLASH_BANK2_END)
 645:Drivers/STM32F1xx_HAL_Driver/Src/stm32f1xx_hal_flash_ex.c ****   }
 646:Drivers/STM32F1xx_HAL_Driver/Src/stm32f1xx_hal_flash_ex.c **** #endif /* FLASH_BANK2_END */
 647:Drivers/STM32F1xx_HAL_Driver/Src/stm32f1xx_hal_flash_ex.c **** }
 648:Drivers/STM32F1xx_HAL_Driver/Src/stm32f1xx_hal_flash_ex.c **** 
 649:Drivers/STM32F1xx_HAL_Driver/Src/stm32f1xx_hal_flash_ex.c **** /**
 650:Drivers/STM32F1xx_HAL_Driver/Src/stm32f1xx_hal_flash_ex.c ****   * @brief  Enable the write protection of the desired pages
 651:Drivers/STM32F1xx_HAL_Driver/Src/stm32f1xx_hal_flash_ex.c ****   * @note   An option byte erase is done automatically in this function. 
 652:Drivers/STM32F1xx_HAL_Driver/Src/stm32f1xx_hal_flash_ex.c ****   * @note   When the memory read protection level is selected (RDP level = 1), 
 653:Drivers/STM32F1xx_HAL_Driver/Src/stm32f1xx_hal_flash_ex.c ****   *         it is not possible to program or erase the flash page i if
 654:Drivers/STM32F1xx_HAL_Driver/Src/stm32f1xx_hal_flash_ex.c ****   *         debug features are connected or boot code is executed in RAM, even if nWRPi = 1 
 655:Drivers/STM32F1xx_HAL_Driver/Src/stm32f1xx_hal_flash_ex.c ****   * 
 656:Drivers/STM32F1xx_HAL_Driver/Src/stm32f1xx_hal_flash_ex.c ****   * @param  WriteProtectPage specifies the page(s) to be write protected.
 657:Drivers/STM32F1xx_HAL_Driver/Src/stm32f1xx_hal_flash_ex.c ****   *         The value of this parameter depend on device used within the same series 
 658:Drivers/STM32F1xx_HAL_Driver/Src/stm32f1xx_hal_flash_ex.c ****   * @retval HAL status 
 659:Drivers/STM32F1xx_HAL_Driver/Src/stm32f1xx_hal_flash_ex.c ****   */
 660:Drivers/STM32F1xx_HAL_Driver/Src/stm32f1xx_hal_flash_ex.c **** static HAL_StatusTypeDef FLASH_OB_EnableWRP(uint32_t WriteProtectPage)
ARM GAS  /tmp/cczNPJS6.s 			page 13


 661:Drivers/STM32F1xx_HAL_Driver/Src/stm32f1xx_hal_flash_ex.c **** {
 662:Drivers/STM32F1xx_HAL_Driver/Src/stm32f1xx_hal_flash_ex.c ****   HAL_StatusTypeDef status = HAL_OK;
 663:Drivers/STM32F1xx_HAL_Driver/Src/stm32f1xx_hal_flash_ex.c ****   uint16_t WRP0_Data = 0xFFFF;
 664:Drivers/STM32F1xx_HAL_Driver/Src/stm32f1xx_hal_flash_ex.c **** #if defined(FLASH_WRP1_WRP1)
 665:Drivers/STM32F1xx_HAL_Driver/Src/stm32f1xx_hal_flash_ex.c ****   uint16_t WRP1_Data = 0xFFFF;
 666:Drivers/STM32F1xx_HAL_Driver/Src/stm32f1xx_hal_flash_ex.c **** #endif /* FLASH_WRP1_WRP1 */
 667:Drivers/STM32F1xx_HAL_Driver/Src/stm32f1xx_hal_flash_ex.c **** #if defined(FLASH_WRP2_WRP2)
 668:Drivers/STM32F1xx_HAL_Driver/Src/stm32f1xx_hal_flash_ex.c ****   uint16_t WRP2_Data = 0xFFFF;
 669:Drivers/STM32F1xx_HAL_Driver/Src/stm32f1xx_hal_flash_ex.c **** #endif /* FLASH_WRP2_WRP2 */
 670:Drivers/STM32F1xx_HAL_Driver/Src/stm32f1xx_hal_flash_ex.c **** #if defined(FLASH_WRP3_WRP3)
 671:Drivers/STM32F1xx_HAL_Driver/Src/stm32f1xx_hal_flash_ex.c ****   uint16_t WRP3_Data = 0xFFFF;
 672:Drivers/STM32F1xx_HAL_Driver/Src/stm32f1xx_hal_flash_ex.c **** #endif /* FLASH_WRP3_WRP3 */
 673:Drivers/STM32F1xx_HAL_Driver/Src/stm32f1xx_hal_flash_ex.c ****   
 674:Drivers/STM32F1xx_HAL_Driver/Src/stm32f1xx_hal_flash_ex.c ****   /* Check the parameters */
 675:Drivers/STM32F1xx_HAL_Driver/Src/stm32f1xx_hal_flash_ex.c ****   assert_param(IS_OB_WRP(WriteProtectPage));
 676:Drivers/STM32F1xx_HAL_Driver/Src/stm32f1xx_hal_flash_ex.c ****     
 677:Drivers/STM32F1xx_HAL_Driver/Src/stm32f1xx_hal_flash_ex.c ****   /* Get current write protected pages and the new pages to be protected ******/
 678:Drivers/STM32F1xx_HAL_Driver/Src/stm32f1xx_hal_flash_ex.c ****   WriteProtectPage = (uint32_t)(~((~FLASH_OB_GetWRP()) | WriteProtectPage));
 679:Drivers/STM32F1xx_HAL_Driver/Src/stm32f1xx_hal_flash_ex.c ****   
 680:Drivers/STM32F1xx_HAL_Driver/Src/stm32f1xx_hal_flash_ex.c **** #if defined(OB_WRP_PAGES0TO15MASK)
 681:Drivers/STM32F1xx_HAL_Driver/Src/stm32f1xx_hal_flash_ex.c ****   WRP0_Data = (uint16_t)(WriteProtectPage & OB_WRP_PAGES0TO15MASK);
 682:Drivers/STM32F1xx_HAL_Driver/Src/stm32f1xx_hal_flash_ex.c **** #elif defined(OB_WRP_PAGES0TO31MASK)
 683:Drivers/STM32F1xx_HAL_Driver/Src/stm32f1xx_hal_flash_ex.c ****   WRP0_Data = (uint16_t)(WriteProtectPage & OB_WRP_PAGES0TO31MASK);
 684:Drivers/STM32F1xx_HAL_Driver/Src/stm32f1xx_hal_flash_ex.c **** #endif /* OB_WRP_PAGES0TO31MASK */
 685:Drivers/STM32F1xx_HAL_Driver/Src/stm32f1xx_hal_flash_ex.c ****   
 686:Drivers/STM32F1xx_HAL_Driver/Src/stm32f1xx_hal_flash_ex.c **** #if defined(OB_WRP_PAGES16TO31MASK)
 687:Drivers/STM32F1xx_HAL_Driver/Src/stm32f1xx_hal_flash_ex.c ****   WRP1_Data = (uint16_t)((WriteProtectPage & OB_WRP_PAGES16TO31MASK) >> 8U);
 688:Drivers/STM32F1xx_HAL_Driver/Src/stm32f1xx_hal_flash_ex.c **** #elif defined(OB_WRP_PAGES32TO63MASK)
 689:Drivers/STM32F1xx_HAL_Driver/Src/stm32f1xx_hal_flash_ex.c ****   WRP1_Data = (uint16_t)((WriteProtectPage & OB_WRP_PAGES32TO63MASK) >> 8U);
 690:Drivers/STM32F1xx_HAL_Driver/Src/stm32f1xx_hal_flash_ex.c **** #endif /* OB_WRP_PAGES32TO63MASK */
 691:Drivers/STM32F1xx_HAL_Driver/Src/stm32f1xx_hal_flash_ex.c ****  
 692:Drivers/STM32F1xx_HAL_Driver/Src/stm32f1xx_hal_flash_ex.c **** #if defined(OB_WRP_PAGES64TO95MASK)
 693:Drivers/STM32F1xx_HAL_Driver/Src/stm32f1xx_hal_flash_ex.c ****   WRP2_Data = (uint16_t)((WriteProtectPage & OB_WRP_PAGES64TO95MASK) >> 16U);
 694:Drivers/STM32F1xx_HAL_Driver/Src/stm32f1xx_hal_flash_ex.c **** #endif /* OB_WRP_PAGES64TO95MASK */
 695:Drivers/STM32F1xx_HAL_Driver/Src/stm32f1xx_hal_flash_ex.c **** #if defined(OB_WRP_PAGES32TO47MASK)
 696:Drivers/STM32F1xx_HAL_Driver/Src/stm32f1xx_hal_flash_ex.c ****   WRP2_Data = (uint16_t)((WriteProtectPage & OB_WRP_PAGES32TO47MASK) >> 16U);
 697:Drivers/STM32F1xx_HAL_Driver/Src/stm32f1xx_hal_flash_ex.c **** #endif /* OB_WRP_PAGES32TO47MASK */
 698:Drivers/STM32F1xx_HAL_Driver/Src/stm32f1xx_hal_flash_ex.c **** 
 699:Drivers/STM32F1xx_HAL_Driver/Src/stm32f1xx_hal_flash_ex.c **** #if defined(OB_WRP_PAGES96TO127MASK)
 700:Drivers/STM32F1xx_HAL_Driver/Src/stm32f1xx_hal_flash_ex.c ****   WRP3_Data = (uint16_t)((WriteProtectPage & OB_WRP_PAGES96TO127MASK) >> 24U); 
 701:Drivers/STM32F1xx_HAL_Driver/Src/stm32f1xx_hal_flash_ex.c **** #elif defined(OB_WRP_PAGES48TO255MASK)
 702:Drivers/STM32F1xx_HAL_Driver/Src/stm32f1xx_hal_flash_ex.c ****   WRP3_Data = (uint16_t)((WriteProtectPage & OB_WRP_PAGES48TO255MASK) >> 24U); 
 703:Drivers/STM32F1xx_HAL_Driver/Src/stm32f1xx_hal_flash_ex.c **** #elif defined(OB_WRP_PAGES48TO511MASK)
 704:Drivers/STM32F1xx_HAL_Driver/Src/stm32f1xx_hal_flash_ex.c ****   WRP3_Data = (uint16_t)((WriteProtectPage & OB_WRP_PAGES48TO511MASK) >> 24U); 
 705:Drivers/STM32F1xx_HAL_Driver/Src/stm32f1xx_hal_flash_ex.c **** #elif defined(OB_WRP_PAGES48TO127MASK)
 706:Drivers/STM32F1xx_HAL_Driver/Src/stm32f1xx_hal_flash_ex.c ****   WRP3_Data = (uint16_t)((WriteProtectPage & OB_WRP_PAGES48TO127MASK) >> 24U); 
 707:Drivers/STM32F1xx_HAL_Driver/Src/stm32f1xx_hal_flash_ex.c **** #endif /* OB_WRP_PAGES96TO127MASK */
 708:Drivers/STM32F1xx_HAL_Driver/Src/stm32f1xx_hal_flash_ex.c ****   
 709:Drivers/STM32F1xx_HAL_Driver/Src/stm32f1xx_hal_flash_ex.c ****   /* Wait for last operation to be completed */
 710:Drivers/STM32F1xx_HAL_Driver/Src/stm32f1xx_hal_flash_ex.c ****   status = FLASH_WaitForLastOperation((uint32_t)FLASH_TIMEOUT_VALUE);
 711:Drivers/STM32F1xx_HAL_Driver/Src/stm32f1xx_hal_flash_ex.c **** 
 712:Drivers/STM32F1xx_HAL_Driver/Src/stm32f1xx_hal_flash_ex.c ****   if(status == HAL_OK)
 713:Drivers/STM32F1xx_HAL_Driver/Src/stm32f1xx_hal_flash_ex.c ****   { 
 714:Drivers/STM32F1xx_HAL_Driver/Src/stm32f1xx_hal_flash_ex.c ****     /* Clean the error context */
 715:Drivers/STM32F1xx_HAL_Driver/Src/stm32f1xx_hal_flash_ex.c ****     pFlash.ErrorCode = HAL_FLASH_ERROR_NONE;
 716:Drivers/STM32F1xx_HAL_Driver/Src/stm32f1xx_hal_flash_ex.c **** 
 717:Drivers/STM32F1xx_HAL_Driver/Src/stm32f1xx_hal_flash_ex.c ****     /* To be able to write again option byte, need to perform a option byte erase */
ARM GAS  /tmp/cczNPJS6.s 			page 14


 718:Drivers/STM32F1xx_HAL_Driver/Src/stm32f1xx_hal_flash_ex.c ****     status = HAL_FLASHEx_OBErase();
 719:Drivers/STM32F1xx_HAL_Driver/Src/stm32f1xx_hal_flash_ex.c ****     if (status == HAL_OK)  
 720:Drivers/STM32F1xx_HAL_Driver/Src/stm32f1xx_hal_flash_ex.c ****     {
 721:Drivers/STM32F1xx_HAL_Driver/Src/stm32f1xx_hal_flash_ex.c ****       /* Enable write protection */
 722:Drivers/STM32F1xx_HAL_Driver/Src/stm32f1xx_hal_flash_ex.c ****       SET_BIT(FLASH->CR, FLASH_CR_OPTPG);
 723:Drivers/STM32F1xx_HAL_Driver/Src/stm32f1xx_hal_flash_ex.c **** 
 724:Drivers/STM32F1xx_HAL_Driver/Src/stm32f1xx_hal_flash_ex.c **** #if defined(FLASH_WRP0_WRP0)
 725:Drivers/STM32F1xx_HAL_Driver/Src/stm32f1xx_hal_flash_ex.c ****       if(WRP0_Data != 0xFFU)
 726:Drivers/STM32F1xx_HAL_Driver/Src/stm32f1xx_hal_flash_ex.c ****       {
 727:Drivers/STM32F1xx_HAL_Driver/Src/stm32f1xx_hal_flash_ex.c ****         OB->WRP0 &= WRP0_Data;
 728:Drivers/STM32F1xx_HAL_Driver/Src/stm32f1xx_hal_flash_ex.c ****         
 729:Drivers/STM32F1xx_HAL_Driver/Src/stm32f1xx_hal_flash_ex.c ****         /* Wait for last operation to be completed */
 730:Drivers/STM32F1xx_HAL_Driver/Src/stm32f1xx_hal_flash_ex.c ****         status = FLASH_WaitForLastOperation((uint32_t)FLASH_TIMEOUT_VALUE);
 731:Drivers/STM32F1xx_HAL_Driver/Src/stm32f1xx_hal_flash_ex.c ****       }
 732:Drivers/STM32F1xx_HAL_Driver/Src/stm32f1xx_hal_flash_ex.c **** #endif /* FLASH_WRP0_WRP0 */
 733:Drivers/STM32F1xx_HAL_Driver/Src/stm32f1xx_hal_flash_ex.c **** 
 734:Drivers/STM32F1xx_HAL_Driver/Src/stm32f1xx_hal_flash_ex.c **** #if defined(FLASH_WRP1_WRP1)
 735:Drivers/STM32F1xx_HAL_Driver/Src/stm32f1xx_hal_flash_ex.c ****       if((status == HAL_OK) && (WRP1_Data != 0xFFU))
 736:Drivers/STM32F1xx_HAL_Driver/Src/stm32f1xx_hal_flash_ex.c ****       {
 737:Drivers/STM32F1xx_HAL_Driver/Src/stm32f1xx_hal_flash_ex.c ****         OB->WRP1 &= WRP1_Data;
 738:Drivers/STM32F1xx_HAL_Driver/Src/stm32f1xx_hal_flash_ex.c ****         
 739:Drivers/STM32F1xx_HAL_Driver/Src/stm32f1xx_hal_flash_ex.c ****         /* Wait for last operation to be completed */
 740:Drivers/STM32F1xx_HAL_Driver/Src/stm32f1xx_hal_flash_ex.c ****         status = FLASH_WaitForLastOperation((uint32_t)FLASH_TIMEOUT_VALUE);
 741:Drivers/STM32F1xx_HAL_Driver/Src/stm32f1xx_hal_flash_ex.c ****       }
 742:Drivers/STM32F1xx_HAL_Driver/Src/stm32f1xx_hal_flash_ex.c **** #endif /* FLASH_WRP1_WRP1 */
 743:Drivers/STM32F1xx_HAL_Driver/Src/stm32f1xx_hal_flash_ex.c **** 
 744:Drivers/STM32F1xx_HAL_Driver/Src/stm32f1xx_hal_flash_ex.c **** #if defined(FLASH_WRP2_WRP2)
 745:Drivers/STM32F1xx_HAL_Driver/Src/stm32f1xx_hal_flash_ex.c ****       if((status == HAL_OK) && (WRP2_Data != 0xFFU))
 746:Drivers/STM32F1xx_HAL_Driver/Src/stm32f1xx_hal_flash_ex.c ****       {
 747:Drivers/STM32F1xx_HAL_Driver/Src/stm32f1xx_hal_flash_ex.c ****         OB->WRP2 &= WRP2_Data;
 748:Drivers/STM32F1xx_HAL_Driver/Src/stm32f1xx_hal_flash_ex.c ****         
 749:Drivers/STM32F1xx_HAL_Driver/Src/stm32f1xx_hal_flash_ex.c ****         /* Wait for last operation to be completed */
 750:Drivers/STM32F1xx_HAL_Driver/Src/stm32f1xx_hal_flash_ex.c ****         status = FLASH_WaitForLastOperation((uint32_t)FLASH_TIMEOUT_VALUE);
 751:Drivers/STM32F1xx_HAL_Driver/Src/stm32f1xx_hal_flash_ex.c ****       }
 752:Drivers/STM32F1xx_HAL_Driver/Src/stm32f1xx_hal_flash_ex.c **** #endif /* FLASH_WRP2_WRP2 */
 753:Drivers/STM32F1xx_HAL_Driver/Src/stm32f1xx_hal_flash_ex.c **** 
 754:Drivers/STM32F1xx_HAL_Driver/Src/stm32f1xx_hal_flash_ex.c **** #if defined(FLASH_WRP3_WRP3)
 755:Drivers/STM32F1xx_HAL_Driver/Src/stm32f1xx_hal_flash_ex.c ****       if((status == HAL_OK) && (WRP3_Data != 0xFFU))
 756:Drivers/STM32F1xx_HAL_Driver/Src/stm32f1xx_hal_flash_ex.c ****       {
 757:Drivers/STM32F1xx_HAL_Driver/Src/stm32f1xx_hal_flash_ex.c ****         OB->WRP3 &= WRP3_Data;
 758:Drivers/STM32F1xx_HAL_Driver/Src/stm32f1xx_hal_flash_ex.c ****         
 759:Drivers/STM32F1xx_HAL_Driver/Src/stm32f1xx_hal_flash_ex.c ****         /* Wait for last operation to be completed */
 760:Drivers/STM32F1xx_HAL_Driver/Src/stm32f1xx_hal_flash_ex.c ****         status = FLASH_WaitForLastOperation((uint32_t)FLASH_TIMEOUT_VALUE);
 761:Drivers/STM32F1xx_HAL_Driver/Src/stm32f1xx_hal_flash_ex.c ****       }
 762:Drivers/STM32F1xx_HAL_Driver/Src/stm32f1xx_hal_flash_ex.c **** #endif /* FLASH_WRP3_WRP3 */
 763:Drivers/STM32F1xx_HAL_Driver/Src/stm32f1xx_hal_flash_ex.c **** 
 764:Drivers/STM32F1xx_HAL_Driver/Src/stm32f1xx_hal_flash_ex.c ****       /* if the program operation is completed, disable the OPTPG Bit */
 765:Drivers/STM32F1xx_HAL_Driver/Src/stm32f1xx_hal_flash_ex.c ****       CLEAR_BIT(FLASH->CR, FLASH_CR_OPTPG);
 766:Drivers/STM32F1xx_HAL_Driver/Src/stm32f1xx_hal_flash_ex.c ****     }
 767:Drivers/STM32F1xx_HAL_Driver/Src/stm32f1xx_hal_flash_ex.c ****   }
 768:Drivers/STM32F1xx_HAL_Driver/Src/stm32f1xx_hal_flash_ex.c ****   
 769:Drivers/STM32F1xx_HAL_Driver/Src/stm32f1xx_hal_flash_ex.c ****   return status;
 770:Drivers/STM32F1xx_HAL_Driver/Src/stm32f1xx_hal_flash_ex.c **** }
 771:Drivers/STM32F1xx_HAL_Driver/Src/stm32f1xx_hal_flash_ex.c **** 
 772:Drivers/STM32F1xx_HAL_Driver/Src/stm32f1xx_hal_flash_ex.c **** /**
 773:Drivers/STM32F1xx_HAL_Driver/Src/stm32f1xx_hal_flash_ex.c ****   * @brief  Disable the write protection of the desired pages
 774:Drivers/STM32F1xx_HAL_Driver/Src/stm32f1xx_hal_flash_ex.c ****   * @note   An option byte erase is done automatically in this function. 
ARM GAS  /tmp/cczNPJS6.s 			page 15


 775:Drivers/STM32F1xx_HAL_Driver/Src/stm32f1xx_hal_flash_ex.c ****   * @note   When the memory read protection level is selected (RDP level = 1), 
 776:Drivers/STM32F1xx_HAL_Driver/Src/stm32f1xx_hal_flash_ex.c ****   *         it is not possible to program or erase the flash page i if   
 777:Drivers/STM32F1xx_HAL_Driver/Src/stm32f1xx_hal_flash_ex.c ****   *         debug features are connected or boot code is executed in RAM, even if nWRPi = 1 
 778:Drivers/STM32F1xx_HAL_Driver/Src/stm32f1xx_hal_flash_ex.c ****   * 
 779:Drivers/STM32F1xx_HAL_Driver/Src/stm32f1xx_hal_flash_ex.c ****   * @param  WriteProtectPage specifies the page(s) to be write unprotected.
 780:Drivers/STM32F1xx_HAL_Driver/Src/stm32f1xx_hal_flash_ex.c ****   *         The value of this parameter depend on device used within the same series 
 781:Drivers/STM32F1xx_HAL_Driver/Src/stm32f1xx_hal_flash_ex.c ****   * @retval HAL status 
 782:Drivers/STM32F1xx_HAL_Driver/Src/stm32f1xx_hal_flash_ex.c ****   */
 783:Drivers/STM32F1xx_HAL_Driver/Src/stm32f1xx_hal_flash_ex.c **** static HAL_StatusTypeDef FLASH_OB_DisableWRP(uint32_t WriteProtectPage)
 784:Drivers/STM32F1xx_HAL_Driver/Src/stm32f1xx_hal_flash_ex.c **** {
 785:Drivers/STM32F1xx_HAL_Driver/Src/stm32f1xx_hal_flash_ex.c ****   HAL_StatusTypeDef status = HAL_OK;
 786:Drivers/STM32F1xx_HAL_Driver/Src/stm32f1xx_hal_flash_ex.c ****   uint16_t WRP0_Data = 0xFFFF;
 787:Drivers/STM32F1xx_HAL_Driver/Src/stm32f1xx_hal_flash_ex.c **** #if defined(FLASH_WRP1_WRP1)
 788:Drivers/STM32F1xx_HAL_Driver/Src/stm32f1xx_hal_flash_ex.c ****   uint16_t WRP1_Data = 0xFFFF;
 789:Drivers/STM32F1xx_HAL_Driver/Src/stm32f1xx_hal_flash_ex.c **** #endif /* FLASH_WRP1_WRP1 */
 790:Drivers/STM32F1xx_HAL_Driver/Src/stm32f1xx_hal_flash_ex.c **** #if defined(FLASH_WRP2_WRP2)
 791:Drivers/STM32F1xx_HAL_Driver/Src/stm32f1xx_hal_flash_ex.c ****   uint16_t WRP2_Data = 0xFFFF;
 792:Drivers/STM32F1xx_HAL_Driver/Src/stm32f1xx_hal_flash_ex.c **** #endif /* FLASH_WRP2_WRP2 */
 793:Drivers/STM32F1xx_HAL_Driver/Src/stm32f1xx_hal_flash_ex.c **** #if defined(FLASH_WRP3_WRP3)
 794:Drivers/STM32F1xx_HAL_Driver/Src/stm32f1xx_hal_flash_ex.c ****   uint16_t WRP3_Data = 0xFFFF;
 795:Drivers/STM32F1xx_HAL_Driver/Src/stm32f1xx_hal_flash_ex.c **** #endif /* FLASH_WRP3_WRP3 */
 796:Drivers/STM32F1xx_HAL_Driver/Src/stm32f1xx_hal_flash_ex.c ****   
 797:Drivers/STM32F1xx_HAL_Driver/Src/stm32f1xx_hal_flash_ex.c ****   /* Check the parameters */
 798:Drivers/STM32F1xx_HAL_Driver/Src/stm32f1xx_hal_flash_ex.c ****   assert_param(IS_OB_WRP(WriteProtectPage));
 799:Drivers/STM32F1xx_HAL_Driver/Src/stm32f1xx_hal_flash_ex.c **** 
 800:Drivers/STM32F1xx_HAL_Driver/Src/stm32f1xx_hal_flash_ex.c ****   /* Get current write protected pages and the new pages to be unprotected ******/
 801:Drivers/STM32F1xx_HAL_Driver/Src/stm32f1xx_hal_flash_ex.c ****   WriteProtectPage = (FLASH_OB_GetWRP() | WriteProtectPage);
 802:Drivers/STM32F1xx_HAL_Driver/Src/stm32f1xx_hal_flash_ex.c **** 
 803:Drivers/STM32F1xx_HAL_Driver/Src/stm32f1xx_hal_flash_ex.c **** #if defined(OB_WRP_PAGES0TO15MASK)
 804:Drivers/STM32F1xx_HAL_Driver/Src/stm32f1xx_hal_flash_ex.c ****   WRP0_Data = (uint16_t)(WriteProtectPage & OB_WRP_PAGES0TO15MASK);
 805:Drivers/STM32F1xx_HAL_Driver/Src/stm32f1xx_hal_flash_ex.c **** #elif defined(OB_WRP_PAGES0TO31MASK)
 806:Drivers/STM32F1xx_HAL_Driver/Src/stm32f1xx_hal_flash_ex.c ****   WRP0_Data = (uint16_t)(WriteProtectPage & OB_WRP_PAGES0TO31MASK);
 807:Drivers/STM32F1xx_HAL_Driver/Src/stm32f1xx_hal_flash_ex.c **** #endif /* OB_WRP_PAGES0TO31MASK */
 808:Drivers/STM32F1xx_HAL_Driver/Src/stm32f1xx_hal_flash_ex.c ****   
 809:Drivers/STM32F1xx_HAL_Driver/Src/stm32f1xx_hal_flash_ex.c **** #if defined(OB_WRP_PAGES16TO31MASK)
 810:Drivers/STM32F1xx_HAL_Driver/Src/stm32f1xx_hal_flash_ex.c ****   WRP1_Data = (uint16_t)((WriteProtectPage & OB_WRP_PAGES16TO31MASK) >> 8U);
 811:Drivers/STM32F1xx_HAL_Driver/Src/stm32f1xx_hal_flash_ex.c **** #elif defined(OB_WRP_PAGES32TO63MASK)
 812:Drivers/STM32F1xx_HAL_Driver/Src/stm32f1xx_hal_flash_ex.c ****   WRP1_Data = (uint16_t)((WriteProtectPage & OB_WRP_PAGES32TO63MASK) >> 8U);
 813:Drivers/STM32F1xx_HAL_Driver/Src/stm32f1xx_hal_flash_ex.c **** #endif /* OB_WRP_PAGES32TO63MASK */
 814:Drivers/STM32F1xx_HAL_Driver/Src/stm32f1xx_hal_flash_ex.c ****  
 815:Drivers/STM32F1xx_HAL_Driver/Src/stm32f1xx_hal_flash_ex.c **** #if defined(OB_WRP_PAGES64TO95MASK)
 816:Drivers/STM32F1xx_HAL_Driver/Src/stm32f1xx_hal_flash_ex.c ****   WRP2_Data = (uint16_t)((WriteProtectPage & OB_WRP_PAGES64TO95MASK) >> 16U);
 817:Drivers/STM32F1xx_HAL_Driver/Src/stm32f1xx_hal_flash_ex.c **** #endif /* OB_WRP_PAGES64TO95MASK */
 818:Drivers/STM32F1xx_HAL_Driver/Src/stm32f1xx_hal_flash_ex.c **** #if defined(OB_WRP_PAGES32TO47MASK)
 819:Drivers/STM32F1xx_HAL_Driver/Src/stm32f1xx_hal_flash_ex.c ****   WRP2_Data = (uint16_t)((WriteProtectPage & OB_WRP_PAGES32TO47MASK) >> 16U);
 820:Drivers/STM32F1xx_HAL_Driver/Src/stm32f1xx_hal_flash_ex.c **** #endif /* OB_WRP_PAGES32TO47MASK */
 821:Drivers/STM32F1xx_HAL_Driver/Src/stm32f1xx_hal_flash_ex.c **** 
 822:Drivers/STM32F1xx_HAL_Driver/Src/stm32f1xx_hal_flash_ex.c **** #if defined(OB_WRP_PAGES96TO127MASK)
 823:Drivers/STM32F1xx_HAL_Driver/Src/stm32f1xx_hal_flash_ex.c ****   WRP3_Data = (uint16_t)((WriteProtectPage & OB_WRP_PAGES96TO127MASK) >> 24U); 
 824:Drivers/STM32F1xx_HAL_Driver/Src/stm32f1xx_hal_flash_ex.c **** #elif defined(OB_WRP_PAGES48TO255MASK)
 825:Drivers/STM32F1xx_HAL_Driver/Src/stm32f1xx_hal_flash_ex.c ****   WRP3_Data = (uint16_t)((WriteProtectPage & OB_WRP_PAGES48TO255MASK) >> 24U); 
 826:Drivers/STM32F1xx_HAL_Driver/Src/stm32f1xx_hal_flash_ex.c **** #elif defined(OB_WRP_PAGES48TO511MASK)
 827:Drivers/STM32F1xx_HAL_Driver/Src/stm32f1xx_hal_flash_ex.c ****   WRP3_Data = (uint16_t)((WriteProtectPage & OB_WRP_PAGES48TO511MASK) >> 24U); 
 828:Drivers/STM32F1xx_HAL_Driver/Src/stm32f1xx_hal_flash_ex.c **** #elif defined(OB_WRP_PAGES48TO127MASK)
 829:Drivers/STM32F1xx_HAL_Driver/Src/stm32f1xx_hal_flash_ex.c ****   WRP3_Data = (uint16_t)((WriteProtectPage & OB_WRP_PAGES48TO127MASK) >> 24U); 
 830:Drivers/STM32F1xx_HAL_Driver/Src/stm32f1xx_hal_flash_ex.c **** #endif /* OB_WRP_PAGES96TO127MASK */
 831:Drivers/STM32F1xx_HAL_Driver/Src/stm32f1xx_hal_flash_ex.c **** 
ARM GAS  /tmp/cczNPJS6.s 			page 16


 832:Drivers/STM32F1xx_HAL_Driver/Src/stm32f1xx_hal_flash_ex.c ****     
 833:Drivers/STM32F1xx_HAL_Driver/Src/stm32f1xx_hal_flash_ex.c ****   /* Wait for last operation to be completed */
 834:Drivers/STM32F1xx_HAL_Driver/Src/stm32f1xx_hal_flash_ex.c ****   status = FLASH_WaitForLastOperation((uint32_t)FLASH_TIMEOUT_VALUE);
 835:Drivers/STM32F1xx_HAL_Driver/Src/stm32f1xx_hal_flash_ex.c **** 
 836:Drivers/STM32F1xx_HAL_Driver/Src/stm32f1xx_hal_flash_ex.c ****   if(status == HAL_OK)
 837:Drivers/STM32F1xx_HAL_Driver/Src/stm32f1xx_hal_flash_ex.c ****   { 
 838:Drivers/STM32F1xx_HAL_Driver/Src/stm32f1xx_hal_flash_ex.c ****     /* Clean the error context */
 839:Drivers/STM32F1xx_HAL_Driver/Src/stm32f1xx_hal_flash_ex.c ****     pFlash.ErrorCode = HAL_FLASH_ERROR_NONE;
 840:Drivers/STM32F1xx_HAL_Driver/Src/stm32f1xx_hal_flash_ex.c **** 
 841:Drivers/STM32F1xx_HAL_Driver/Src/stm32f1xx_hal_flash_ex.c ****     /* To be able to write again option byte, need to perform a option byte erase */
 842:Drivers/STM32F1xx_HAL_Driver/Src/stm32f1xx_hal_flash_ex.c ****     status = HAL_FLASHEx_OBErase();
 843:Drivers/STM32F1xx_HAL_Driver/Src/stm32f1xx_hal_flash_ex.c ****     if (status == HAL_OK)  
 844:Drivers/STM32F1xx_HAL_Driver/Src/stm32f1xx_hal_flash_ex.c ****     {
 845:Drivers/STM32F1xx_HAL_Driver/Src/stm32f1xx_hal_flash_ex.c ****       SET_BIT(FLASH->CR, FLASH_CR_OPTPG);
 846:Drivers/STM32F1xx_HAL_Driver/Src/stm32f1xx_hal_flash_ex.c **** 
 847:Drivers/STM32F1xx_HAL_Driver/Src/stm32f1xx_hal_flash_ex.c **** #if defined(FLASH_WRP0_WRP0)
 848:Drivers/STM32F1xx_HAL_Driver/Src/stm32f1xx_hal_flash_ex.c ****       if(WRP0_Data != 0xFFU)
 849:Drivers/STM32F1xx_HAL_Driver/Src/stm32f1xx_hal_flash_ex.c ****       {
 850:Drivers/STM32F1xx_HAL_Driver/Src/stm32f1xx_hal_flash_ex.c ****         OB->WRP0 |= WRP0_Data;
 851:Drivers/STM32F1xx_HAL_Driver/Src/stm32f1xx_hal_flash_ex.c ****         
 852:Drivers/STM32F1xx_HAL_Driver/Src/stm32f1xx_hal_flash_ex.c ****         /* Wait for last operation to be completed */
 853:Drivers/STM32F1xx_HAL_Driver/Src/stm32f1xx_hal_flash_ex.c ****         status = FLASH_WaitForLastOperation((uint32_t)FLASH_TIMEOUT_VALUE);
 854:Drivers/STM32F1xx_HAL_Driver/Src/stm32f1xx_hal_flash_ex.c ****       }
 855:Drivers/STM32F1xx_HAL_Driver/Src/stm32f1xx_hal_flash_ex.c **** #endif /* FLASH_WRP0_WRP0 */
 856:Drivers/STM32F1xx_HAL_Driver/Src/stm32f1xx_hal_flash_ex.c **** 
 857:Drivers/STM32F1xx_HAL_Driver/Src/stm32f1xx_hal_flash_ex.c **** #if defined(FLASH_WRP1_WRP1)
 858:Drivers/STM32F1xx_HAL_Driver/Src/stm32f1xx_hal_flash_ex.c ****       if((status == HAL_OK) && (WRP1_Data != 0xFFU))
 859:Drivers/STM32F1xx_HAL_Driver/Src/stm32f1xx_hal_flash_ex.c ****       {
 860:Drivers/STM32F1xx_HAL_Driver/Src/stm32f1xx_hal_flash_ex.c ****         OB->WRP1 |= WRP1_Data;
 861:Drivers/STM32F1xx_HAL_Driver/Src/stm32f1xx_hal_flash_ex.c ****         
 862:Drivers/STM32F1xx_HAL_Driver/Src/stm32f1xx_hal_flash_ex.c ****         /* Wait for last operation to be completed */
 863:Drivers/STM32F1xx_HAL_Driver/Src/stm32f1xx_hal_flash_ex.c ****         status = FLASH_WaitForLastOperation((uint32_t)FLASH_TIMEOUT_VALUE);
 864:Drivers/STM32F1xx_HAL_Driver/Src/stm32f1xx_hal_flash_ex.c ****       }
 865:Drivers/STM32F1xx_HAL_Driver/Src/stm32f1xx_hal_flash_ex.c **** #endif /* FLASH_WRP1_WRP1 */
 866:Drivers/STM32F1xx_HAL_Driver/Src/stm32f1xx_hal_flash_ex.c **** 
 867:Drivers/STM32F1xx_HAL_Driver/Src/stm32f1xx_hal_flash_ex.c **** #if defined(FLASH_WRP2_WRP2)
 868:Drivers/STM32F1xx_HAL_Driver/Src/stm32f1xx_hal_flash_ex.c ****       if((status == HAL_OK) && (WRP2_Data != 0xFFU))
 869:Drivers/STM32F1xx_HAL_Driver/Src/stm32f1xx_hal_flash_ex.c ****       {
 870:Drivers/STM32F1xx_HAL_Driver/Src/stm32f1xx_hal_flash_ex.c ****         OB->WRP2 |= WRP2_Data;
 871:Drivers/STM32F1xx_HAL_Driver/Src/stm32f1xx_hal_flash_ex.c ****         
 872:Drivers/STM32F1xx_HAL_Driver/Src/stm32f1xx_hal_flash_ex.c ****         /* Wait for last operation to be completed */
 873:Drivers/STM32F1xx_HAL_Driver/Src/stm32f1xx_hal_flash_ex.c ****         status = FLASH_WaitForLastOperation((uint32_t)FLASH_TIMEOUT_VALUE);
 874:Drivers/STM32F1xx_HAL_Driver/Src/stm32f1xx_hal_flash_ex.c ****       }
 875:Drivers/STM32F1xx_HAL_Driver/Src/stm32f1xx_hal_flash_ex.c **** #endif /* FLASH_WRP2_WRP2 */
 876:Drivers/STM32F1xx_HAL_Driver/Src/stm32f1xx_hal_flash_ex.c **** 
 877:Drivers/STM32F1xx_HAL_Driver/Src/stm32f1xx_hal_flash_ex.c **** #if defined(FLASH_WRP3_WRP3)
 878:Drivers/STM32F1xx_HAL_Driver/Src/stm32f1xx_hal_flash_ex.c ****       if((status == HAL_OK) && (WRP3_Data != 0xFFU))
 879:Drivers/STM32F1xx_HAL_Driver/Src/stm32f1xx_hal_flash_ex.c ****       {
 880:Drivers/STM32F1xx_HAL_Driver/Src/stm32f1xx_hal_flash_ex.c ****         OB->WRP3 |= WRP3_Data;
 881:Drivers/STM32F1xx_HAL_Driver/Src/stm32f1xx_hal_flash_ex.c ****         
 882:Drivers/STM32F1xx_HAL_Driver/Src/stm32f1xx_hal_flash_ex.c ****         /* Wait for last operation to be completed */
 883:Drivers/STM32F1xx_HAL_Driver/Src/stm32f1xx_hal_flash_ex.c ****         status = FLASH_WaitForLastOperation((uint32_t)FLASH_TIMEOUT_VALUE);
 884:Drivers/STM32F1xx_HAL_Driver/Src/stm32f1xx_hal_flash_ex.c ****       }
 885:Drivers/STM32F1xx_HAL_Driver/Src/stm32f1xx_hal_flash_ex.c **** #endif /* FLASH_WRP3_WRP3 */
 886:Drivers/STM32F1xx_HAL_Driver/Src/stm32f1xx_hal_flash_ex.c **** 
 887:Drivers/STM32F1xx_HAL_Driver/Src/stm32f1xx_hal_flash_ex.c ****       /* if the program operation is completed, disable the OPTPG Bit */
 888:Drivers/STM32F1xx_HAL_Driver/Src/stm32f1xx_hal_flash_ex.c ****       CLEAR_BIT(FLASH->CR, FLASH_CR_OPTPG);
ARM GAS  /tmp/cczNPJS6.s 			page 17


 889:Drivers/STM32F1xx_HAL_Driver/Src/stm32f1xx_hal_flash_ex.c ****     }
 890:Drivers/STM32F1xx_HAL_Driver/Src/stm32f1xx_hal_flash_ex.c ****   }
 891:Drivers/STM32F1xx_HAL_Driver/Src/stm32f1xx_hal_flash_ex.c ****   return status;
 892:Drivers/STM32F1xx_HAL_Driver/Src/stm32f1xx_hal_flash_ex.c **** }
 893:Drivers/STM32F1xx_HAL_Driver/Src/stm32f1xx_hal_flash_ex.c **** 
 894:Drivers/STM32F1xx_HAL_Driver/Src/stm32f1xx_hal_flash_ex.c **** /**
 895:Drivers/STM32F1xx_HAL_Driver/Src/stm32f1xx_hal_flash_ex.c ****   * @brief  Set the read protection level.
 896:Drivers/STM32F1xx_HAL_Driver/Src/stm32f1xx_hal_flash_ex.c ****   * @param  ReadProtectLevel specifies the read protection level.
 897:Drivers/STM32F1xx_HAL_Driver/Src/stm32f1xx_hal_flash_ex.c ****   *         This parameter can be one of the following values:
 898:Drivers/STM32F1xx_HAL_Driver/Src/stm32f1xx_hal_flash_ex.c ****   *            @arg @ref OB_RDP_LEVEL_0 No protection
 899:Drivers/STM32F1xx_HAL_Driver/Src/stm32f1xx_hal_flash_ex.c ****   *            @arg @ref OB_RDP_LEVEL_1 Read protection of the memory
 900:Drivers/STM32F1xx_HAL_Driver/Src/stm32f1xx_hal_flash_ex.c ****   * @retval HAL status
 901:Drivers/STM32F1xx_HAL_Driver/Src/stm32f1xx_hal_flash_ex.c ****   */
 902:Drivers/STM32F1xx_HAL_Driver/Src/stm32f1xx_hal_flash_ex.c **** static HAL_StatusTypeDef FLASH_OB_RDP_LevelConfig(uint8_t ReadProtectLevel)
 903:Drivers/STM32F1xx_HAL_Driver/Src/stm32f1xx_hal_flash_ex.c **** {
 904:Drivers/STM32F1xx_HAL_Driver/Src/stm32f1xx_hal_flash_ex.c ****   HAL_StatusTypeDef status = HAL_OK;
 905:Drivers/STM32F1xx_HAL_Driver/Src/stm32f1xx_hal_flash_ex.c ****   
 906:Drivers/STM32F1xx_HAL_Driver/Src/stm32f1xx_hal_flash_ex.c ****   /* Check the parameters */
 907:Drivers/STM32F1xx_HAL_Driver/Src/stm32f1xx_hal_flash_ex.c ****   assert_param(IS_OB_RDP_LEVEL(ReadProtectLevel));
 908:Drivers/STM32F1xx_HAL_Driver/Src/stm32f1xx_hal_flash_ex.c ****   
 909:Drivers/STM32F1xx_HAL_Driver/Src/stm32f1xx_hal_flash_ex.c ****   /* Wait for last operation to be completed */
 910:Drivers/STM32F1xx_HAL_Driver/Src/stm32f1xx_hal_flash_ex.c ****   status = FLASH_WaitForLastOperation((uint32_t)FLASH_TIMEOUT_VALUE);
 911:Drivers/STM32F1xx_HAL_Driver/Src/stm32f1xx_hal_flash_ex.c ****   
 912:Drivers/STM32F1xx_HAL_Driver/Src/stm32f1xx_hal_flash_ex.c ****   if(status == HAL_OK)
 913:Drivers/STM32F1xx_HAL_Driver/Src/stm32f1xx_hal_flash_ex.c ****   { 
 914:Drivers/STM32F1xx_HAL_Driver/Src/stm32f1xx_hal_flash_ex.c ****     /* Clean the error context */
 915:Drivers/STM32F1xx_HAL_Driver/Src/stm32f1xx_hal_flash_ex.c ****     pFlash.ErrorCode = HAL_FLASH_ERROR_NONE;
 916:Drivers/STM32F1xx_HAL_Driver/Src/stm32f1xx_hal_flash_ex.c ****     
 917:Drivers/STM32F1xx_HAL_Driver/Src/stm32f1xx_hal_flash_ex.c ****     /* If the previous operation is completed, proceed to erase the option bytes */
 918:Drivers/STM32F1xx_HAL_Driver/Src/stm32f1xx_hal_flash_ex.c ****     SET_BIT(FLASH->CR, FLASH_CR_OPTER);
 919:Drivers/STM32F1xx_HAL_Driver/Src/stm32f1xx_hal_flash_ex.c ****     SET_BIT(FLASH->CR, FLASH_CR_STRT);
 920:Drivers/STM32F1xx_HAL_Driver/Src/stm32f1xx_hal_flash_ex.c **** 
 921:Drivers/STM32F1xx_HAL_Driver/Src/stm32f1xx_hal_flash_ex.c ****     /* Wait for last operation to be completed */
 922:Drivers/STM32F1xx_HAL_Driver/Src/stm32f1xx_hal_flash_ex.c ****     status = FLASH_WaitForLastOperation((uint32_t)FLASH_TIMEOUT_VALUE);
 923:Drivers/STM32F1xx_HAL_Driver/Src/stm32f1xx_hal_flash_ex.c **** 
 924:Drivers/STM32F1xx_HAL_Driver/Src/stm32f1xx_hal_flash_ex.c ****     /* If the erase operation is completed, disable the OPTER Bit */
 925:Drivers/STM32F1xx_HAL_Driver/Src/stm32f1xx_hal_flash_ex.c ****     CLEAR_BIT(FLASH->CR, FLASH_CR_OPTER);
 926:Drivers/STM32F1xx_HAL_Driver/Src/stm32f1xx_hal_flash_ex.c **** 
 927:Drivers/STM32F1xx_HAL_Driver/Src/stm32f1xx_hal_flash_ex.c ****     if(status == HAL_OK)
 928:Drivers/STM32F1xx_HAL_Driver/Src/stm32f1xx_hal_flash_ex.c ****     {
 929:Drivers/STM32F1xx_HAL_Driver/Src/stm32f1xx_hal_flash_ex.c ****       /* Enable the Option Bytes Programming operation */
 930:Drivers/STM32F1xx_HAL_Driver/Src/stm32f1xx_hal_flash_ex.c ****       SET_BIT(FLASH->CR, FLASH_CR_OPTPG);
 931:Drivers/STM32F1xx_HAL_Driver/Src/stm32f1xx_hal_flash_ex.c ****       
 932:Drivers/STM32F1xx_HAL_Driver/Src/stm32f1xx_hal_flash_ex.c ****       WRITE_REG(OB->RDP, ReadProtectLevel);
 933:Drivers/STM32F1xx_HAL_Driver/Src/stm32f1xx_hal_flash_ex.c ****       
 934:Drivers/STM32F1xx_HAL_Driver/Src/stm32f1xx_hal_flash_ex.c ****       /* Wait for last operation to be completed */
 935:Drivers/STM32F1xx_HAL_Driver/Src/stm32f1xx_hal_flash_ex.c ****       status = FLASH_WaitForLastOperation((uint32_t)FLASH_TIMEOUT_VALUE); 
 936:Drivers/STM32F1xx_HAL_Driver/Src/stm32f1xx_hal_flash_ex.c ****       
 937:Drivers/STM32F1xx_HAL_Driver/Src/stm32f1xx_hal_flash_ex.c ****       /* if the program operation is completed, disable the OPTPG Bit */
 938:Drivers/STM32F1xx_HAL_Driver/Src/stm32f1xx_hal_flash_ex.c ****       CLEAR_BIT(FLASH->CR, FLASH_CR_OPTPG);
 939:Drivers/STM32F1xx_HAL_Driver/Src/stm32f1xx_hal_flash_ex.c ****     }
 940:Drivers/STM32F1xx_HAL_Driver/Src/stm32f1xx_hal_flash_ex.c ****   }
 941:Drivers/STM32F1xx_HAL_Driver/Src/stm32f1xx_hal_flash_ex.c ****   
 942:Drivers/STM32F1xx_HAL_Driver/Src/stm32f1xx_hal_flash_ex.c ****   return status;
 943:Drivers/STM32F1xx_HAL_Driver/Src/stm32f1xx_hal_flash_ex.c **** }
 944:Drivers/STM32F1xx_HAL_Driver/Src/stm32f1xx_hal_flash_ex.c **** 
 945:Drivers/STM32F1xx_HAL_Driver/Src/stm32f1xx_hal_flash_ex.c **** /**
ARM GAS  /tmp/cczNPJS6.s 			page 18


 946:Drivers/STM32F1xx_HAL_Driver/Src/stm32f1xx_hal_flash_ex.c ****   * @brief  Program the FLASH User Option Byte.    
 947:Drivers/STM32F1xx_HAL_Driver/Src/stm32f1xx_hal_flash_ex.c ****   * @note   Programming of the OB should be performed only after an erase (otherwise PGERR occurs)
 948:Drivers/STM32F1xx_HAL_Driver/Src/stm32f1xx_hal_flash_ex.c ****   * @param  UserConfig The FLASH User Option Bytes values FLASH_OBR_IWDG_SW(Bit2), 
 949:Drivers/STM32F1xx_HAL_Driver/Src/stm32f1xx_hal_flash_ex.c ****   *         FLASH_OBR_nRST_STOP(Bit3),FLASH_OBR_nRST_STDBY(Bit4).
 950:Drivers/STM32F1xx_HAL_Driver/Src/stm32f1xx_hal_flash_ex.c ****   *         And BFBF2(Bit5) for STM32F101xG and STM32F103xG . 
 951:Drivers/STM32F1xx_HAL_Driver/Src/stm32f1xx_hal_flash_ex.c ****   * @retval HAL status
 952:Drivers/STM32F1xx_HAL_Driver/Src/stm32f1xx_hal_flash_ex.c ****   */
 953:Drivers/STM32F1xx_HAL_Driver/Src/stm32f1xx_hal_flash_ex.c **** static HAL_StatusTypeDef FLASH_OB_UserConfig(uint8_t UserConfig)
 954:Drivers/STM32F1xx_HAL_Driver/Src/stm32f1xx_hal_flash_ex.c **** {
 955:Drivers/STM32F1xx_HAL_Driver/Src/stm32f1xx_hal_flash_ex.c ****   HAL_StatusTypeDef status = HAL_OK;
 956:Drivers/STM32F1xx_HAL_Driver/Src/stm32f1xx_hal_flash_ex.c **** 
 957:Drivers/STM32F1xx_HAL_Driver/Src/stm32f1xx_hal_flash_ex.c ****   /* Check the parameters */
 958:Drivers/STM32F1xx_HAL_Driver/Src/stm32f1xx_hal_flash_ex.c ****   assert_param(IS_OB_IWDG_SOURCE((UserConfig&OB_IWDG_SW)));
 959:Drivers/STM32F1xx_HAL_Driver/Src/stm32f1xx_hal_flash_ex.c ****   assert_param(IS_OB_STOP_SOURCE((UserConfig&OB_STOP_NO_RST)));
 960:Drivers/STM32F1xx_HAL_Driver/Src/stm32f1xx_hal_flash_ex.c ****   assert_param(IS_OB_STDBY_SOURCE((UserConfig&OB_STDBY_NO_RST)));
 961:Drivers/STM32F1xx_HAL_Driver/Src/stm32f1xx_hal_flash_ex.c **** #if defined(FLASH_BANK2_END)
 962:Drivers/STM32F1xx_HAL_Driver/Src/stm32f1xx_hal_flash_ex.c ****   assert_param(IS_OB_BOOT1((UserConfig&OB_BOOT1_SET)));
 963:Drivers/STM32F1xx_HAL_Driver/Src/stm32f1xx_hal_flash_ex.c **** #endif /* FLASH_BANK2_END */
 964:Drivers/STM32F1xx_HAL_Driver/Src/stm32f1xx_hal_flash_ex.c **** 
 965:Drivers/STM32F1xx_HAL_Driver/Src/stm32f1xx_hal_flash_ex.c ****   /* Wait for last operation to be completed */
 966:Drivers/STM32F1xx_HAL_Driver/Src/stm32f1xx_hal_flash_ex.c ****   status = FLASH_WaitForLastOperation((uint32_t)FLASH_TIMEOUT_VALUE);
 967:Drivers/STM32F1xx_HAL_Driver/Src/stm32f1xx_hal_flash_ex.c ****   
 968:Drivers/STM32F1xx_HAL_Driver/Src/stm32f1xx_hal_flash_ex.c ****   if(status == HAL_OK)
 969:Drivers/STM32F1xx_HAL_Driver/Src/stm32f1xx_hal_flash_ex.c ****   {     
 970:Drivers/STM32F1xx_HAL_Driver/Src/stm32f1xx_hal_flash_ex.c ****     /* Clean the error context */
 971:Drivers/STM32F1xx_HAL_Driver/Src/stm32f1xx_hal_flash_ex.c ****     pFlash.ErrorCode = HAL_FLASH_ERROR_NONE;
 972:Drivers/STM32F1xx_HAL_Driver/Src/stm32f1xx_hal_flash_ex.c **** 
 973:Drivers/STM32F1xx_HAL_Driver/Src/stm32f1xx_hal_flash_ex.c ****     /* Enable the Option Bytes Programming operation */
 974:Drivers/STM32F1xx_HAL_Driver/Src/stm32f1xx_hal_flash_ex.c ****     SET_BIT(FLASH->CR, FLASH_CR_OPTPG); 
 975:Drivers/STM32F1xx_HAL_Driver/Src/stm32f1xx_hal_flash_ex.c ****  
 976:Drivers/STM32F1xx_HAL_Driver/Src/stm32f1xx_hal_flash_ex.c **** #if defined(FLASH_BANK2_END)
 977:Drivers/STM32F1xx_HAL_Driver/Src/stm32f1xx_hal_flash_ex.c ****     OB->USER = (UserConfig | 0xF0U);
 978:Drivers/STM32F1xx_HAL_Driver/Src/stm32f1xx_hal_flash_ex.c **** #else
 979:Drivers/STM32F1xx_HAL_Driver/Src/stm32f1xx_hal_flash_ex.c ****     OB->USER = (UserConfig | 0x88U);
 980:Drivers/STM32F1xx_HAL_Driver/Src/stm32f1xx_hal_flash_ex.c **** #endif /* FLASH_BANK2_END */
 981:Drivers/STM32F1xx_HAL_Driver/Src/stm32f1xx_hal_flash_ex.c **** 
 982:Drivers/STM32F1xx_HAL_Driver/Src/stm32f1xx_hal_flash_ex.c ****     /* Wait for last operation to be completed */
 983:Drivers/STM32F1xx_HAL_Driver/Src/stm32f1xx_hal_flash_ex.c ****     status = FLASH_WaitForLastOperation((uint32_t)FLASH_TIMEOUT_VALUE);
 984:Drivers/STM32F1xx_HAL_Driver/Src/stm32f1xx_hal_flash_ex.c **** 
 985:Drivers/STM32F1xx_HAL_Driver/Src/stm32f1xx_hal_flash_ex.c ****     /* if the program operation is completed, disable the OPTPG Bit */
 986:Drivers/STM32F1xx_HAL_Driver/Src/stm32f1xx_hal_flash_ex.c ****     CLEAR_BIT(FLASH->CR, FLASH_CR_OPTPG);
 987:Drivers/STM32F1xx_HAL_Driver/Src/stm32f1xx_hal_flash_ex.c ****   }
 988:Drivers/STM32F1xx_HAL_Driver/Src/stm32f1xx_hal_flash_ex.c ****   
 989:Drivers/STM32F1xx_HAL_Driver/Src/stm32f1xx_hal_flash_ex.c ****   return status; 
 990:Drivers/STM32F1xx_HAL_Driver/Src/stm32f1xx_hal_flash_ex.c **** }
 991:Drivers/STM32F1xx_HAL_Driver/Src/stm32f1xx_hal_flash_ex.c **** 
 992:Drivers/STM32F1xx_HAL_Driver/Src/stm32f1xx_hal_flash_ex.c **** /**
 993:Drivers/STM32F1xx_HAL_Driver/Src/stm32f1xx_hal_flash_ex.c ****   * @brief  Programs a half word at a specified Option Byte Data address.
 994:Drivers/STM32F1xx_HAL_Driver/Src/stm32f1xx_hal_flash_ex.c ****   * @note   The function @ref HAL_FLASH_Unlock() should be called before to unlock the FLASH interf
 995:Drivers/STM32F1xx_HAL_Driver/Src/stm32f1xx_hal_flash_ex.c ****   *         The function @ref HAL_FLASH_OB_Unlock() should be called before to unlock the options b
 996:Drivers/STM32F1xx_HAL_Driver/Src/stm32f1xx_hal_flash_ex.c ****   *         The function @ref HAL_FLASH_OB_Launch() should be called after to force the reload of t
 997:Drivers/STM32F1xx_HAL_Driver/Src/stm32f1xx_hal_flash_ex.c ****   *         (system reset will occur)
 998:Drivers/STM32F1xx_HAL_Driver/Src/stm32f1xx_hal_flash_ex.c ****   *         Programming of the OB should be performed only after an erase (otherwise PGERR occurs)
 999:Drivers/STM32F1xx_HAL_Driver/Src/stm32f1xx_hal_flash_ex.c ****   * @param  Address specifies the address to be programmed.
1000:Drivers/STM32F1xx_HAL_Driver/Src/stm32f1xx_hal_flash_ex.c ****   *         This parameter can be 0x1FFFF804 or 0x1FFFF806. 
1001:Drivers/STM32F1xx_HAL_Driver/Src/stm32f1xx_hal_flash_ex.c ****   * @param  Data specifies the data to be programmed.
1002:Drivers/STM32F1xx_HAL_Driver/Src/stm32f1xx_hal_flash_ex.c ****   * @retval HAL status
ARM GAS  /tmp/cczNPJS6.s 			page 19


1003:Drivers/STM32F1xx_HAL_Driver/Src/stm32f1xx_hal_flash_ex.c ****   */
1004:Drivers/STM32F1xx_HAL_Driver/Src/stm32f1xx_hal_flash_ex.c **** static HAL_StatusTypeDef FLASH_OB_ProgramData(uint32_t Address, uint8_t Data)
1005:Drivers/STM32F1xx_HAL_Driver/Src/stm32f1xx_hal_flash_ex.c **** {
1006:Drivers/STM32F1xx_HAL_Driver/Src/stm32f1xx_hal_flash_ex.c ****   HAL_StatusTypeDef status = HAL_ERROR;
1007:Drivers/STM32F1xx_HAL_Driver/Src/stm32f1xx_hal_flash_ex.c ****   
1008:Drivers/STM32F1xx_HAL_Driver/Src/stm32f1xx_hal_flash_ex.c ****   /* Check the parameters */
1009:Drivers/STM32F1xx_HAL_Driver/Src/stm32f1xx_hal_flash_ex.c ****   assert_param(IS_OB_DATA_ADDRESS(Address));
1010:Drivers/STM32F1xx_HAL_Driver/Src/stm32f1xx_hal_flash_ex.c ****   
1011:Drivers/STM32F1xx_HAL_Driver/Src/stm32f1xx_hal_flash_ex.c ****   /* Wait for last operation to be completed */
1012:Drivers/STM32F1xx_HAL_Driver/Src/stm32f1xx_hal_flash_ex.c ****   status = FLASH_WaitForLastOperation((uint32_t)FLASH_TIMEOUT_VALUE);
1013:Drivers/STM32F1xx_HAL_Driver/Src/stm32f1xx_hal_flash_ex.c ****   
1014:Drivers/STM32F1xx_HAL_Driver/Src/stm32f1xx_hal_flash_ex.c ****   if(status == HAL_OK)
1015:Drivers/STM32F1xx_HAL_Driver/Src/stm32f1xx_hal_flash_ex.c ****   {
1016:Drivers/STM32F1xx_HAL_Driver/Src/stm32f1xx_hal_flash_ex.c ****     /* Clean the error context */
1017:Drivers/STM32F1xx_HAL_Driver/Src/stm32f1xx_hal_flash_ex.c ****     pFlash.ErrorCode = HAL_FLASH_ERROR_NONE;
1018:Drivers/STM32F1xx_HAL_Driver/Src/stm32f1xx_hal_flash_ex.c **** 
1019:Drivers/STM32F1xx_HAL_Driver/Src/stm32f1xx_hal_flash_ex.c ****     /* Enables the Option Bytes Programming operation */
1020:Drivers/STM32F1xx_HAL_Driver/Src/stm32f1xx_hal_flash_ex.c ****     SET_BIT(FLASH->CR, FLASH_CR_OPTPG); 
1021:Drivers/STM32F1xx_HAL_Driver/Src/stm32f1xx_hal_flash_ex.c ****     *(__IO uint16_t*)Address = Data;
1022:Drivers/STM32F1xx_HAL_Driver/Src/stm32f1xx_hal_flash_ex.c ****     
1023:Drivers/STM32F1xx_HAL_Driver/Src/stm32f1xx_hal_flash_ex.c ****     /* Wait for last operation to be completed */
1024:Drivers/STM32F1xx_HAL_Driver/Src/stm32f1xx_hal_flash_ex.c ****     status = FLASH_WaitForLastOperation((uint32_t)FLASH_TIMEOUT_VALUE);
1025:Drivers/STM32F1xx_HAL_Driver/Src/stm32f1xx_hal_flash_ex.c ****     
1026:Drivers/STM32F1xx_HAL_Driver/Src/stm32f1xx_hal_flash_ex.c ****     /* If the program operation is completed, disable the OPTPG Bit */
1027:Drivers/STM32F1xx_HAL_Driver/Src/stm32f1xx_hal_flash_ex.c ****     CLEAR_BIT(FLASH->CR, FLASH_CR_OPTPG);
1028:Drivers/STM32F1xx_HAL_Driver/Src/stm32f1xx_hal_flash_ex.c ****   }
1029:Drivers/STM32F1xx_HAL_Driver/Src/stm32f1xx_hal_flash_ex.c ****   /* Return the Option Byte Data Program Status */
1030:Drivers/STM32F1xx_HAL_Driver/Src/stm32f1xx_hal_flash_ex.c ****   return status;
1031:Drivers/STM32F1xx_HAL_Driver/Src/stm32f1xx_hal_flash_ex.c **** }
1032:Drivers/STM32F1xx_HAL_Driver/Src/stm32f1xx_hal_flash_ex.c **** 
1033:Drivers/STM32F1xx_HAL_Driver/Src/stm32f1xx_hal_flash_ex.c **** /**
1034:Drivers/STM32F1xx_HAL_Driver/Src/stm32f1xx_hal_flash_ex.c ****   * @brief  Return the FLASH Write Protection Option Bytes value.
1035:Drivers/STM32F1xx_HAL_Driver/Src/stm32f1xx_hal_flash_ex.c ****   * @retval The FLASH Write Protection Option Bytes value
1036:Drivers/STM32F1xx_HAL_Driver/Src/stm32f1xx_hal_flash_ex.c ****   */
1037:Drivers/STM32F1xx_HAL_Driver/Src/stm32f1xx_hal_flash_ex.c **** static uint32_t FLASH_OB_GetWRP(void)
1038:Drivers/STM32F1xx_HAL_Driver/Src/stm32f1xx_hal_flash_ex.c **** {
  26              		.loc 1 1038 1 view -0
  27              		.cfi_startproc
  28              		@ args = 0, pretend = 0, frame = 0
  29              		@ frame_needed = 0, uses_anonymous_args = 0
  30              		@ link register save eliminated.
1039:Drivers/STM32F1xx_HAL_Driver/Src/stm32f1xx_hal_flash_ex.c ****   /* Return the FLASH write protection Register value */
1040:Drivers/STM32F1xx_HAL_Driver/Src/stm32f1xx_hal_flash_ex.c ****   return (uint32_t)(READ_REG(FLASH->WRPR));
  31              		.loc 1 1040 3 view .LVU1
  32              		.loc 1 1040 10 is_stmt 0 view .LVU2
  33 0000 014B     		ldr	r3, .L2
  34 0002 186A     		ldr	r0, [r3, #32]
1041:Drivers/STM32F1xx_HAL_Driver/Src/stm32f1xx_hal_flash_ex.c **** }
  35              		.loc 1 1041 1 view .LVU3
  36 0004 7047     		bx	lr
  37              	.L3:
  38 0006 00BF     		.align	2
  39              	.L2:
  40 0008 00200240 		.word	1073881088
  41              		.cfi_endproc
  42              	.LFE78:
  44              		.section	.text.FLASH_OB_GetRDP,"ax",%progbits
ARM GAS  /tmp/cczNPJS6.s 			page 20


  45              		.align	1
  46              		.syntax unified
  47              		.thumb
  48              		.thumb_func
  49              		.fpu softvfp
  51              	FLASH_OB_GetRDP:
  52              	.LFB79:
1042:Drivers/STM32F1xx_HAL_Driver/Src/stm32f1xx_hal_flash_ex.c **** 
1043:Drivers/STM32F1xx_HAL_Driver/Src/stm32f1xx_hal_flash_ex.c **** /**
1044:Drivers/STM32F1xx_HAL_Driver/Src/stm32f1xx_hal_flash_ex.c ****   * @brief  Returns the FLASH Read Protection level.
1045:Drivers/STM32F1xx_HAL_Driver/Src/stm32f1xx_hal_flash_ex.c ****   * @retval FLASH RDP level
1046:Drivers/STM32F1xx_HAL_Driver/Src/stm32f1xx_hal_flash_ex.c ****   *         This parameter can be one of the following values:
1047:Drivers/STM32F1xx_HAL_Driver/Src/stm32f1xx_hal_flash_ex.c ****   *            @arg @ref OB_RDP_LEVEL_0 No protection
1048:Drivers/STM32F1xx_HAL_Driver/Src/stm32f1xx_hal_flash_ex.c ****   *            @arg @ref OB_RDP_LEVEL_1 Read protection of the memory
1049:Drivers/STM32F1xx_HAL_Driver/Src/stm32f1xx_hal_flash_ex.c ****   */
1050:Drivers/STM32F1xx_HAL_Driver/Src/stm32f1xx_hal_flash_ex.c **** static uint32_t FLASH_OB_GetRDP(void)
1051:Drivers/STM32F1xx_HAL_Driver/Src/stm32f1xx_hal_flash_ex.c **** {
  53              		.loc 1 1051 1 is_stmt 1 view -0
  54              		.cfi_startproc
  55              		@ args = 0, pretend = 0, frame = 0
  56              		@ frame_needed = 0, uses_anonymous_args = 0
  57              		@ link register save eliminated.
1052:Drivers/STM32F1xx_HAL_Driver/Src/stm32f1xx_hal_flash_ex.c ****   uint32_t readstatus = OB_RDP_LEVEL_0;
  58              		.loc 1 1052 3 view .LVU5
  59              	.LVL0:
1053:Drivers/STM32F1xx_HAL_Driver/Src/stm32f1xx_hal_flash_ex.c ****   uint32_t tmp_reg = 0U;
  60              		.loc 1 1053 3 view .LVU6
1054:Drivers/STM32F1xx_HAL_Driver/Src/stm32f1xx_hal_flash_ex.c ****   
1055:Drivers/STM32F1xx_HAL_Driver/Src/stm32f1xx_hal_flash_ex.c ****   /* Read RDP level bits */
1056:Drivers/STM32F1xx_HAL_Driver/Src/stm32f1xx_hal_flash_ex.c ****   tmp_reg = READ_BIT(FLASH->OBR, FLASH_OBR_RDPRT);
  61              		.loc 1 1056 3 view .LVU7
  62              		.loc 1 1056 13 is_stmt 0 view .LVU8
  63 0000 044B     		ldr	r3, .L7
  64 0002 DB69     		ldr	r3, [r3, #28]
  65              	.LVL1:
1057:Drivers/STM32F1xx_HAL_Driver/Src/stm32f1xx_hal_flash_ex.c **** 
1058:Drivers/STM32F1xx_HAL_Driver/Src/stm32f1xx_hal_flash_ex.c ****   if (tmp_reg == FLASH_OBR_RDPRT)
  66              		.loc 1 1058 3 is_stmt 1 view .LVU9
  67              		.loc 1 1058 6 is_stmt 0 view .LVU10
  68 0004 13F0020F 		tst	r3, #2
  69 0008 01D0     		beq	.L6
1059:Drivers/STM32F1xx_HAL_Driver/Src/stm32f1xx_hal_flash_ex.c ****   {
1060:Drivers/STM32F1xx_HAL_Driver/Src/stm32f1xx_hal_flash_ex.c ****     readstatus = OB_RDP_LEVEL_1;
  70              		.loc 1 1060 16 view .LVU11
  71 000a 0020     		movs	r0, #0
  72 000c 7047     		bx	lr
  73              	.L6:
1061:Drivers/STM32F1xx_HAL_Driver/Src/stm32f1xx_hal_flash_ex.c ****   }
1062:Drivers/STM32F1xx_HAL_Driver/Src/stm32f1xx_hal_flash_ex.c ****   else 
1063:Drivers/STM32F1xx_HAL_Driver/Src/stm32f1xx_hal_flash_ex.c ****   {
1064:Drivers/STM32F1xx_HAL_Driver/Src/stm32f1xx_hal_flash_ex.c ****     readstatus = OB_RDP_LEVEL_0;
  74              		.loc 1 1064 16 view .LVU12
  75 000e A520     		movs	r0, #165
1065:Drivers/STM32F1xx_HAL_Driver/Src/stm32f1xx_hal_flash_ex.c ****   }
1066:Drivers/STM32F1xx_HAL_Driver/Src/stm32f1xx_hal_flash_ex.c **** 
1067:Drivers/STM32F1xx_HAL_Driver/Src/stm32f1xx_hal_flash_ex.c ****   return readstatus;
  76              		.loc 1 1067 3 is_stmt 1 view .LVU13
ARM GAS  /tmp/cczNPJS6.s 			page 21


1068:Drivers/STM32F1xx_HAL_Driver/Src/stm32f1xx_hal_flash_ex.c **** }
  77              		.loc 1 1068 1 is_stmt 0 view .LVU14
  78 0010 7047     		bx	lr
  79              	.L8:
  80 0012 00BF     		.align	2
  81              	.L7:
  82 0014 00200240 		.word	1073881088
  83              		.cfi_endproc
  84              	.LFE79:
  86              		.section	.text.FLASH_OB_GetUser,"ax",%progbits
  87              		.align	1
  88              		.syntax unified
  89              		.thumb
  90              		.thumb_func
  91              		.fpu softvfp
  93              	FLASH_OB_GetUser:
  94              	.LFB80:
1069:Drivers/STM32F1xx_HAL_Driver/Src/stm32f1xx_hal_flash_ex.c **** 
1070:Drivers/STM32F1xx_HAL_Driver/Src/stm32f1xx_hal_flash_ex.c **** /**
1071:Drivers/STM32F1xx_HAL_Driver/Src/stm32f1xx_hal_flash_ex.c ****   * @brief  Return the FLASH User Option Byte value.
1072:Drivers/STM32F1xx_HAL_Driver/Src/stm32f1xx_hal_flash_ex.c ****   * @retval The FLASH User Option Bytes values: FLASH_OBR_IWDG_SW(Bit2), 
1073:Drivers/STM32F1xx_HAL_Driver/Src/stm32f1xx_hal_flash_ex.c ****   *         FLASH_OBR_nRST_STOP(Bit3),FLASH_OBR_nRST_STDBY(Bit4).
1074:Drivers/STM32F1xx_HAL_Driver/Src/stm32f1xx_hal_flash_ex.c ****   *         And FLASH_OBR_BFB2(Bit5) for STM32F101xG and STM32F103xG . 
1075:Drivers/STM32F1xx_HAL_Driver/Src/stm32f1xx_hal_flash_ex.c ****   */
1076:Drivers/STM32F1xx_HAL_Driver/Src/stm32f1xx_hal_flash_ex.c **** static uint8_t FLASH_OB_GetUser(void)
1077:Drivers/STM32F1xx_HAL_Driver/Src/stm32f1xx_hal_flash_ex.c **** {
  95              		.loc 1 1077 1 is_stmt 1 view -0
  96              		.cfi_startproc
  97              		@ args = 0, pretend = 0, frame = 0
  98              		@ frame_needed = 0, uses_anonymous_args = 0
  99              		@ link register save eliminated.
1078:Drivers/STM32F1xx_HAL_Driver/Src/stm32f1xx_hal_flash_ex.c ****   /* Return the User Option Byte */
1079:Drivers/STM32F1xx_HAL_Driver/Src/stm32f1xx_hal_flash_ex.c ****   return (uint8_t)((READ_REG(FLASH->OBR) & FLASH_OBR_USER) >> FLASH_POSITION_IWDGSW_BIT);
 100              		.loc 1 1079 3 view .LVU16
 101              		.loc 1 1079 21 is_stmt 0 view .LVU17
 102 0000 024B     		ldr	r3, .L10
 103 0002 D869     		ldr	r0, [r3, #28]
1080:Drivers/STM32F1xx_HAL_Driver/Src/stm32f1xx_hal_flash_ex.c **** }
 104              		.loc 1 1080 1 view .LVU18
 105 0004 C0F38200 		ubfx	r0, r0, #2, #3
 106 0008 7047     		bx	lr
 107              	.L11:
 108 000a 00BF     		.align	2
 109              	.L10:
 110 000c 00200240 		.word	1073881088
 111              		.cfi_endproc
 112              	.LFE80:
 114              		.section	.rodata.FLASH_MassErase.str1.4,"aMS",%progbits,1
 115              		.align	2
 116              	.LC0:
 117 0000 44726976 		.ascii	"Drivers/STM32F1xx_HAL_Driver/Src/stm32f1xx_hal_flas"
 117      6572732F 
 117      53544D33 
 117      32463178 
 117      785F4841 
 118 0033 685F6578 		.ascii	"h_ex.c\000"
 118      2E6300
ARM GAS  /tmp/cczNPJS6.s 			page 22


 119              		.section	.text.FLASH_MassErase,"ax",%progbits
 120              		.align	1
 121              		.syntax unified
 122              		.thumb
 123              		.thumb_func
 124              		.fpu softvfp
 126              	FLASH_MassErase:
 127              	.LVL2:
 128              	.LFB72:
 612:Drivers/STM32F1xx_HAL_Driver/Src/stm32f1xx_hal_flash_ex.c ****   /* Check the parameters */
 129              		.loc 1 612 1 is_stmt 1 view -0
 130              		.cfi_startproc
 131              		@ args = 0, pretend = 0, frame = 0
 132              		@ frame_needed = 0, uses_anonymous_args = 0
 612:Drivers/STM32F1xx_HAL_Driver/Src/stm32f1xx_hal_flash_ex.c ****   /* Check the parameters */
 133              		.loc 1 612 1 is_stmt 0 view .LVU20
 134 0000 08B5     		push	{r3, lr}
 135              	.LCFI0:
 136              		.cfi_def_cfa_offset 8
 137              		.cfi_offset 3, -8
 138              		.cfi_offset 14, -4
 614:Drivers/STM32F1xx_HAL_Driver/Src/stm32f1xx_hal_flash_ex.c **** 
 139              		.loc 1 614 3 is_stmt 1 view .LVU21
 140 0002 0128     		cmp	r0, #1
 141 0004 0CD1     		bne	.L15
 142              	.LVL3:
 143              	.L13:
 617:Drivers/STM32F1xx_HAL_Driver/Src/stm32f1xx_hal_flash_ex.c **** 
 144              		.loc 1 617 3 view .LVU22
 617:Drivers/STM32F1xx_HAL_Driver/Src/stm32f1xx_hal_flash_ex.c **** 
 145              		.loc 1 617 20 is_stmt 0 view .LVU23
 146 0006 094B     		ldr	r3, .L16
 147 0008 0022     		movs	r2, #0
 148 000a DA61     		str	r2, [r3, #28]
 639:Drivers/STM32F1xx_HAL_Driver/Src/stm32f1xx_hal_flash_ex.c **** #endif /* FLASH_BANK2_END */  
 149              		.loc 1 639 3 is_stmt 1 view .LVU24
 642:Drivers/STM32F1xx_HAL_Driver/Src/stm32f1xx_hal_flash_ex.c ****     SET_BIT(FLASH->CR, FLASH_CR_STRT);
 150              		.loc 1 642 5 view .LVU25
 151 000c 084B     		ldr	r3, .L16+4
 152 000e 1A69     		ldr	r2, [r3, #16]
 153 0010 42F00402 		orr	r2, r2, #4
 154 0014 1A61     		str	r2, [r3, #16]
 643:Drivers/STM32F1xx_HAL_Driver/Src/stm32f1xx_hal_flash_ex.c **** #if defined(FLASH_BANK2_END)
 155              		.loc 1 643 5 view .LVU26
 156 0016 1A69     		ldr	r2, [r3, #16]
 157 0018 42F04002 		orr	r2, r2, #64
 158 001c 1A61     		str	r2, [r3, #16]
 647:Drivers/STM32F1xx_HAL_Driver/Src/stm32f1xx_hal_flash_ex.c **** 
 159              		.loc 1 647 1 is_stmt 0 view .LVU27
 160 001e 08BD     		pop	{r3, pc}
 161              	.LVL4:
 162              	.L15:
 614:Drivers/STM32F1xx_HAL_Driver/Src/stm32f1xx_hal_flash_ex.c **** 
 163              		.loc 1 614 3 discriminator 1 view .LVU28
 164 0020 40F26621 		movw	r1, #614
 165 0024 0348     		ldr	r0, .L16+8
 166              	.LVL5:
ARM GAS  /tmp/cczNPJS6.s 			page 23


 614:Drivers/STM32F1xx_HAL_Driver/Src/stm32f1xx_hal_flash_ex.c **** 
 167              		.loc 1 614 3 discriminator 1 view .LVU29
 168 0026 FFF7FEFF 		bl	assert_failed
 169              	.LVL6:
 170 002a ECE7     		b	.L13
 171              	.L17:
 172              		.align	2
 173              	.L16:
 174 002c 00000000 		.word	pFlash
 175 0030 00200240 		.word	1073881088
 176 0034 00000000 		.word	.LC0
 177              		.cfi_endproc
 178              	.LFE72:
 180              		.section	.text.FLASH_OB_RDP_LevelConfig,"ax",%progbits
 181              		.align	1
 182              		.syntax unified
 183              		.thumb
 184              		.thumb_func
 185              		.fpu softvfp
 187              	FLASH_OB_RDP_LevelConfig:
 188              	.LVL7:
 189              	.LFB75:
 903:Drivers/STM32F1xx_HAL_Driver/Src/stm32f1xx_hal_flash_ex.c ****   HAL_StatusTypeDef status = HAL_OK;
 190              		.loc 1 903 1 is_stmt 1 view -0
 191              		.cfi_startproc
 192              		@ args = 0, pretend = 0, frame = 0
 193              		@ frame_needed = 0, uses_anonymous_args = 0
 903:Drivers/STM32F1xx_HAL_Driver/Src/stm32f1xx_hal_flash_ex.c ****   HAL_StatusTypeDef status = HAL_OK;
 194              		.loc 1 903 1 is_stmt 0 view .LVU31
 195 0000 38B5     		push	{r3, r4, r5, lr}
 196              	.LCFI1:
 197              		.cfi_def_cfa_offset 16
 198              		.cfi_offset 3, -16
 199              		.cfi_offset 4, -12
 200              		.cfi_offset 5, -8
 201              		.cfi_offset 14, -4
 202 0002 0446     		mov	r4, r0
 904:Drivers/STM32F1xx_HAL_Driver/Src/stm32f1xx_hal_flash_ex.c ****   
 203              		.loc 1 904 3 is_stmt 1 view .LVU32
 204              	.LVL8:
 907:Drivers/STM32F1xx_HAL_Driver/Src/stm32f1xx_hal_flash_ex.c ****   
 205              		.loc 1 907 3 view .LVU33
 206 0004 A528     		cmp	r0, #165
 207 0006 00D0     		beq	.L19
 907:Drivers/STM32F1xx_HAL_Driver/Src/stm32f1xx_hal_flash_ex.c ****   
 208              		.loc 1 907 3 is_stmt 0 discriminator 1 view .LVU34
 209 0008 28B9     		cbnz	r0, .L22
 210              	.LVL9:
 211              	.L19:
 910:Drivers/STM32F1xx_HAL_Driver/Src/stm32f1xx_hal_flash_ex.c ****   
 212              		.loc 1 910 3 is_stmt 1 view .LVU35
 910:Drivers/STM32F1xx_HAL_Driver/Src/stm32f1xx_hal_flash_ex.c ****   
 213              		.loc 1 910 12 is_stmt 0 view .LVU36
 214 000a 4CF25030 		movw	r0, #50000
 215 000e FFF7FEFF 		bl	FLASH_WaitForLastOperation
 216              	.LVL10:
 912:Drivers/STM32F1xx_HAL_Driver/Src/stm32f1xx_hal_flash_ex.c ****   { 
ARM GAS  /tmp/cczNPJS6.s 			page 24


 217              		.loc 1 912 3 is_stmt 1 view .LVU37
 912:Drivers/STM32F1xx_HAL_Driver/Src/stm32f1xx_hal_flash_ex.c ****   { 
 218              		.loc 1 912 5 is_stmt 0 view .LVU38
 219 0012 30B1     		cbz	r0, .L23
 220              	.L20:
 942:Drivers/STM32F1xx_HAL_Driver/Src/stm32f1xx_hal_flash_ex.c **** }
 221              		.loc 1 942 3 is_stmt 1 view .LVU39
 943:Drivers/STM32F1xx_HAL_Driver/Src/stm32f1xx_hal_flash_ex.c **** 
 222              		.loc 1 943 1 is_stmt 0 view .LVU40
 223 0014 38BD     		pop	{r3, r4, r5, pc}
 224              	.LVL11:
 225              	.L22:
 907:Drivers/STM32F1xx_HAL_Driver/Src/stm32f1xx_hal_flash_ex.c ****   
 226              		.loc 1 907 3 discriminator 2 view .LVU41
 227 0016 40F28B31 		movw	r1, #907
 228 001a 1548     		ldr	r0, .L24
 229              	.LVL12:
 907:Drivers/STM32F1xx_HAL_Driver/Src/stm32f1xx_hal_flash_ex.c ****   
 230              		.loc 1 907 3 discriminator 2 view .LVU42
 231 001c FFF7FEFF 		bl	assert_failed
 232              	.LVL13:
 233 0020 F3E7     		b	.L19
 234              	.LVL14:
 235              	.L23:
 915:Drivers/STM32F1xx_HAL_Driver/Src/stm32f1xx_hal_flash_ex.c ****     
 236              		.loc 1 915 5 is_stmt 1 view .LVU43
 915:Drivers/STM32F1xx_HAL_Driver/Src/stm32f1xx_hal_flash_ex.c ****     
 237              		.loc 1 915 22 is_stmt 0 view .LVU44
 238 0022 144B     		ldr	r3, .L24+4
 239 0024 0022     		movs	r2, #0
 240 0026 DA61     		str	r2, [r3, #28]
 918:Drivers/STM32F1xx_HAL_Driver/Src/stm32f1xx_hal_flash_ex.c ****     SET_BIT(FLASH->CR, FLASH_CR_STRT);
 241              		.loc 1 918 5 is_stmt 1 view .LVU45
 242 0028 134D     		ldr	r5, .L24+8
 243 002a 2B69     		ldr	r3, [r5, #16]
 244 002c 43F02003 		orr	r3, r3, #32
 245 0030 2B61     		str	r3, [r5, #16]
 919:Drivers/STM32F1xx_HAL_Driver/Src/stm32f1xx_hal_flash_ex.c **** 
 246              		.loc 1 919 5 view .LVU46
 247 0032 2B69     		ldr	r3, [r5, #16]
 248 0034 43F04003 		orr	r3, r3, #64
 249 0038 2B61     		str	r3, [r5, #16]
 922:Drivers/STM32F1xx_HAL_Driver/Src/stm32f1xx_hal_flash_ex.c **** 
 250              		.loc 1 922 5 view .LVU47
 922:Drivers/STM32F1xx_HAL_Driver/Src/stm32f1xx_hal_flash_ex.c **** 
 251              		.loc 1 922 14 is_stmt 0 view .LVU48
 252 003a 4CF25030 		movw	r0, #50000
 253              	.LVL15:
 922:Drivers/STM32F1xx_HAL_Driver/Src/stm32f1xx_hal_flash_ex.c **** 
 254              		.loc 1 922 14 view .LVU49
 255 003e FFF7FEFF 		bl	FLASH_WaitForLastOperation
 256              	.LVL16:
 925:Drivers/STM32F1xx_HAL_Driver/Src/stm32f1xx_hal_flash_ex.c **** 
 257              		.loc 1 925 5 is_stmt 1 view .LVU50
 258 0042 2B69     		ldr	r3, [r5, #16]
 259 0044 23F02003 		bic	r3, r3, #32
 260 0048 2B61     		str	r3, [r5, #16]
ARM GAS  /tmp/cczNPJS6.s 			page 25


 927:Drivers/STM32F1xx_HAL_Driver/Src/stm32f1xx_hal_flash_ex.c ****     {
 261              		.loc 1 927 5 view .LVU51
 927:Drivers/STM32F1xx_HAL_Driver/Src/stm32f1xx_hal_flash_ex.c ****     {
 262              		.loc 1 927 7 is_stmt 0 view .LVU52
 263 004a 0028     		cmp	r0, #0
 264 004c E2D1     		bne	.L20
 930:Drivers/STM32F1xx_HAL_Driver/Src/stm32f1xx_hal_flash_ex.c ****       
 265              		.loc 1 930 7 is_stmt 1 view .LVU53
 266 004e 2B69     		ldr	r3, [r5, #16]
 267 0050 43F01003 		orr	r3, r3, #16
 268 0054 2B61     		str	r3, [r5, #16]
 932:Drivers/STM32F1xx_HAL_Driver/Src/stm32f1xx_hal_flash_ex.c ****       
 269              		.loc 1 932 7 view .LVU54
 270 0056 A4B2     		uxth	r4, r4
 271 0058 084B     		ldr	r3, .L24+12
 272 005a 1C80     		strh	r4, [r3]	@ movhi
 935:Drivers/STM32F1xx_HAL_Driver/Src/stm32f1xx_hal_flash_ex.c ****       
 273              		.loc 1 935 7 view .LVU55
 935:Drivers/STM32F1xx_HAL_Driver/Src/stm32f1xx_hal_flash_ex.c ****       
 274              		.loc 1 935 16 is_stmt 0 view .LVU56
 275 005c 4CF25030 		movw	r0, #50000
 276              	.LVL17:
 935:Drivers/STM32F1xx_HAL_Driver/Src/stm32f1xx_hal_flash_ex.c ****       
 277              		.loc 1 935 16 view .LVU57
 278 0060 FFF7FEFF 		bl	FLASH_WaitForLastOperation
 279              	.LVL18:
 938:Drivers/STM32F1xx_HAL_Driver/Src/stm32f1xx_hal_flash_ex.c ****     }
 280              		.loc 1 938 7 is_stmt 1 view .LVU58
 281 0064 2B69     		ldr	r3, [r5, #16]
 282 0066 23F01003 		bic	r3, r3, #16
 283 006a 2B61     		str	r3, [r5, #16]
 284 006c D2E7     		b	.L20
 285              	.L25:
 286 006e 00BF     		.align	2
 287              	.L24:
 288 0070 00000000 		.word	.LC0
 289 0074 00000000 		.word	pFlash
 290 0078 00200240 		.word	1073881088
 291 007c 00F8FF1F 		.word	536868864
 292              		.cfi_endproc
 293              	.LFE75:
 295              		.section	.text.FLASH_OB_UserConfig,"ax",%progbits
 296              		.align	1
 297              		.syntax unified
 298              		.thumb
 299              		.thumb_func
 300              		.fpu softvfp
 302              	FLASH_OB_UserConfig:
 303              	.LVL19:
 304              	.LFB76:
 954:Drivers/STM32F1xx_HAL_Driver/Src/stm32f1xx_hal_flash_ex.c ****   HAL_StatusTypeDef status = HAL_OK;
 305              		.loc 1 954 1 view -0
 306              		.cfi_startproc
 307              		@ args = 0, pretend = 0, frame = 0
 308              		@ frame_needed = 0, uses_anonymous_args = 0
 954:Drivers/STM32F1xx_HAL_Driver/Src/stm32f1xx_hal_flash_ex.c ****   HAL_StatusTypeDef status = HAL_OK;
 309              		.loc 1 954 1 is_stmt 0 view .LVU60
ARM GAS  /tmp/cczNPJS6.s 			page 26


 310 0000 38B5     		push	{r3, r4, r5, lr}
 311              	.LCFI2:
 312              		.cfi_def_cfa_offset 16
 313              		.cfi_offset 3, -16
 314              		.cfi_offset 4, -12
 315              		.cfi_offset 5, -8
 316              		.cfi_offset 14, -4
 317 0002 0446     		mov	r4, r0
 955:Drivers/STM32F1xx_HAL_Driver/Src/stm32f1xx_hal_flash_ex.c **** 
 318              		.loc 1 955 3 is_stmt 1 view .LVU61
 319              	.LVL20:
 958:Drivers/STM32F1xx_HAL_Driver/Src/stm32f1xx_hal_flash_ex.c ****   assert_param(IS_OB_STOP_SOURCE((UserConfig&OB_STOP_NO_RST)));
 320              		.loc 1 958 3 view .LVU62
 959:Drivers/STM32F1xx_HAL_Driver/Src/stm32f1xx_hal_flash_ex.c ****   assert_param(IS_OB_STDBY_SOURCE((UserConfig&OB_STDBY_NO_RST)));
 321              		.loc 1 959 3 view .LVU63
 960:Drivers/STM32F1xx_HAL_Driver/Src/stm32f1xx_hal_flash_ex.c **** #if defined(FLASH_BANK2_END)
 322              		.loc 1 960 3 view .LVU64
 966:Drivers/STM32F1xx_HAL_Driver/Src/stm32f1xx_hal_flash_ex.c ****   
 323              		.loc 1 966 3 view .LVU65
 966:Drivers/STM32F1xx_HAL_Driver/Src/stm32f1xx_hal_flash_ex.c ****   
 324              		.loc 1 966 12 is_stmt 0 view .LVU66
 325 0004 4CF25030 		movw	r0, #50000
 326              	.LVL21:
 966:Drivers/STM32F1xx_HAL_Driver/Src/stm32f1xx_hal_flash_ex.c ****   
 327              		.loc 1 966 12 view .LVU67
 328 0008 FFF7FEFF 		bl	FLASH_WaitForLastOperation
 329              	.LVL22:
 968:Drivers/STM32F1xx_HAL_Driver/Src/stm32f1xx_hal_flash_ex.c ****   {     
 330              		.loc 1 968 3 is_stmt 1 view .LVU68
 968:Drivers/STM32F1xx_HAL_Driver/Src/stm32f1xx_hal_flash_ex.c ****   {     
 331              		.loc 1 968 5 is_stmt 0 view .LVU69
 332 000c 00B1     		cbz	r0, .L29
 333              	.L27:
 334              	.LVL23:
 989:Drivers/STM32F1xx_HAL_Driver/Src/stm32f1xx_hal_flash_ex.c **** }
 335              		.loc 1 989 3 is_stmt 1 view .LVU70
 990:Drivers/STM32F1xx_HAL_Driver/Src/stm32f1xx_hal_flash_ex.c **** 
 336              		.loc 1 990 1 is_stmt 0 view .LVU71
 337 000e 38BD     		pop	{r3, r4, r5, pc}
 338              	.LVL24:
 339              	.L29:
 971:Drivers/STM32F1xx_HAL_Driver/Src/stm32f1xx_hal_flash_ex.c **** 
 340              		.loc 1 971 5 is_stmt 1 view .LVU72
 971:Drivers/STM32F1xx_HAL_Driver/Src/stm32f1xx_hal_flash_ex.c **** 
 341              		.loc 1 971 22 is_stmt 0 view .LVU73
 342 0010 0A4B     		ldr	r3, .L30
 343 0012 0022     		movs	r2, #0
 344 0014 DA61     		str	r2, [r3, #28]
 974:Drivers/STM32F1xx_HAL_Driver/Src/stm32f1xx_hal_flash_ex.c ****  
 345              		.loc 1 974 5 is_stmt 1 view .LVU74
 346 0016 0A4D     		ldr	r5, .L30+4
 347 0018 2B69     		ldr	r3, [r5, #16]
 348 001a 43F01003 		orr	r3, r3, #16
 349 001e 2B61     		str	r3, [r5, #16]
 979:Drivers/STM32F1xx_HAL_Driver/Src/stm32f1xx_hal_flash_ex.c **** #endif /* FLASH_BANK2_END */
 350              		.loc 1 979 5 view .LVU75
 979:Drivers/STM32F1xx_HAL_Driver/Src/stm32f1xx_hal_flash_ex.c **** #endif /* FLASH_BANK2_END */
ARM GAS  /tmp/cczNPJS6.s 			page 27


 351              		.loc 1 979 14 is_stmt 0 view .LVU76
 352 0020 44F08800 		orr	r0, r4, #136
 353 0024 074B     		ldr	r3, .L30+8
 354 0026 5880     		strh	r0, [r3, #2]	@ movhi
 983:Drivers/STM32F1xx_HAL_Driver/Src/stm32f1xx_hal_flash_ex.c **** 
 355              		.loc 1 983 5 is_stmt 1 view .LVU77
 983:Drivers/STM32F1xx_HAL_Driver/Src/stm32f1xx_hal_flash_ex.c **** 
 356              		.loc 1 983 14 is_stmt 0 view .LVU78
 357 0028 4CF25030 		movw	r0, #50000
 358 002c FFF7FEFF 		bl	FLASH_WaitForLastOperation
 359              	.LVL25:
 986:Drivers/STM32F1xx_HAL_Driver/Src/stm32f1xx_hal_flash_ex.c ****   }
 360              		.loc 1 986 5 is_stmt 1 view .LVU79
 361 0030 2B69     		ldr	r3, [r5, #16]
 362 0032 23F01003 		bic	r3, r3, #16
 363 0036 2B61     		str	r3, [r5, #16]
 364 0038 E9E7     		b	.L27
 365              	.L31:
 366 003a 00BF     		.align	2
 367              	.L30:
 368 003c 00000000 		.word	pFlash
 369 0040 00200240 		.word	1073881088
 370 0044 00F8FF1F 		.word	536868864
 371              		.cfi_endproc
 372              	.LFE76:
 374              		.section	.text.FLASH_OB_ProgramData,"ax",%progbits
 375              		.align	1
 376              		.syntax unified
 377              		.thumb
 378              		.thumb_func
 379              		.fpu softvfp
 381              	FLASH_OB_ProgramData:
 382              	.LVL26:
 383              	.LFB77:
1005:Drivers/STM32F1xx_HAL_Driver/Src/stm32f1xx_hal_flash_ex.c ****   HAL_StatusTypeDef status = HAL_ERROR;
 384              		.loc 1 1005 1 view -0
 385              		.cfi_startproc
 386              		@ args = 0, pretend = 0, frame = 0
 387              		@ frame_needed = 0, uses_anonymous_args = 0
1005:Drivers/STM32F1xx_HAL_Driver/Src/stm32f1xx_hal_flash_ex.c ****   HAL_StatusTypeDef status = HAL_ERROR;
 388              		.loc 1 1005 1 is_stmt 0 view .LVU81
 389 0000 70B5     		push	{r4, r5, r6, lr}
 390              	.LCFI3:
 391              		.cfi_def_cfa_offset 16
 392              		.cfi_offset 4, -16
 393              		.cfi_offset 5, -12
 394              		.cfi_offset 6, -8
 395              		.cfi_offset 14, -4
 396 0002 0446     		mov	r4, r0
 397 0004 0D46     		mov	r5, r1
1006:Drivers/STM32F1xx_HAL_Driver/Src/stm32f1xx_hal_flash_ex.c ****   
 398              		.loc 1 1006 3 is_stmt 1 view .LVU82
 399              	.LVL27:
1009:Drivers/STM32F1xx_HAL_Driver/Src/stm32f1xx_hal_flash_ex.c ****   
 400              		.loc 1 1009 3 view .LVU83
 401 0006 124B     		ldr	r3, .L38
 402 0008 9842     		cmp	r0, r3
ARM GAS  /tmp/cczNPJS6.s 			page 28


 403 000a 02D0     		beq	.L33
1009:Drivers/STM32F1xx_HAL_Driver/Src/stm32f1xx_hal_flash_ex.c ****   
 404              		.loc 1 1009 3 is_stmt 0 discriminator 1 view .LVU84
 405 000c 0233     		adds	r3, r3, #2
 406 000e 9842     		cmp	r0, r3
 407 0010 05D1     		bne	.L36
 408              	.LVL28:
 409              	.L33:
1012:Drivers/STM32F1xx_HAL_Driver/Src/stm32f1xx_hal_flash_ex.c ****   
 410              		.loc 1 1012 3 is_stmt 1 view .LVU85
1012:Drivers/STM32F1xx_HAL_Driver/Src/stm32f1xx_hal_flash_ex.c ****   
 411              		.loc 1 1012 12 is_stmt 0 view .LVU86
 412 0012 4CF25030 		movw	r0, #50000
 413 0016 FFF7FEFF 		bl	FLASH_WaitForLastOperation
 414              	.LVL29:
1014:Drivers/STM32F1xx_HAL_Driver/Src/stm32f1xx_hal_flash_ex.c ****   {
 415              		.loc 1 1014 3 is_stmt 1 view .LVU87
1014:Drivers/STM32F1xx_HAL_Driver/Src/stm32f1xx_hal_flash_ex.c ****   {
 416              		.loc 1 1014 5 is_stmt 0 view .LVU88
 417 001a 30B1     		cbz	r0, .L37
 418              	.L34:
1030:Drivers/STM32F1xx_HAL_Driver/Src/stm32f1xx_hal_flash_ex.c **** }
 419              		.loc 1 1030 3 is_stmt 1 view .LVU89
1031:Drivers/STM32F1xx_HAL_Driver/Src/stm32f1xx_hal_flash_ex.c **** 
 420              		.loc 1 1031 1 is_stmt 0 view .LVU90
 421 001c 70BD     		pop	{r4, r5, r6, pc}
 422              	.LVL30:
 423              	.L36:
1009:Drivers/STM32F1xx_HAL_Driver/Src/stm32f1xx_hal_flash_ex.c ****   
 424              		.loc 1 1009 3 discriminator 2 view .LVU91
 425 001e 40F2F131 		movw	r1, #1009
 426              	.LVL31:
1009:Drivers/STM32F1xx_HAL_Driver/Src/stm32f1xx_hal_flash_ex.c ****   
 427              		.loc 1 1009 3 discriminator 2 view .LVU92
 428 0022 0C48     		ldr	r0, .L38+4
 429              	.LVL32:
1009:Drivers/STM32F1xx_HAL_Driver/Src/stm32f1xx_hal_flash_ex.c ****   
 430              		.loc 1 1009 3 discriminator 2 view .LVU93
 431 0024 FFF7FEFF 		bl	assert_failed
 432              	.LVL33:
 433 0028 F3E7     		b	.L33
 434              	.LVL34:
 435              	.L37:
1017:Drivers/STM32F1xx_HAL_Driver/Src/stm32f1xx_hal_flash_ex.c **** 
 436              		.loc 1 1017 5 is_stmt 1 view .LVU94
1017:Drivers/STM32F1xx_HAL_Driver/Src/stm32f1xx_hal_flash_ex.c **** 
 437              		.loc 1 1017 22 is_stmt 0 view .LVU95
 438 002a 0B4B     		ldr	r3, .L38+8
 439 002c 0022     		movs	r2, #0
 440 002e DA61     		str	r2, [r3, #28]
1020:Drivers/STM32F1xx_HAL_Driver/Src/stm32f1xx_hal_flash_ex.c ****     *(__IO uint16_t*)Address = Data;
 441              		.loc 1 1020 5 is_stmt 1 view .LVU96
 442 0030 0A4E     		ldr	r6, .L38+12
 443 0032 3369     		ldr	r3, [r6, #16]
 444 0034 43F01003 		orr	r3, r3, #16
 445 0038 3361     		str	r3, [r6, #16]
1021:Drivers/STM32F1xx_HAL_Driver/Src/stm32f1xx_hal_flash_ex.c ****     
ARM GAS  /tmp/cczNPJS6.s 			page 29


 446              		.loc 1 1021 5 view .LVU97
1021:Drivers/STM32F1xx_HAL_Driver/Src/stm32f1xx_hal_flash_ex.c ****     
 447              		.loc 1 1021 30 is_stmt 0 view .LVU98
 448 003a A9B2     		uxth	r1, r5
 449 003c 2180     		strh	r1, [r4]	@ movhi
1024:Drivers/STM32F1xx_HAL_Driver/Src/stm32f1xx_hal_flash_ex.c ****     
 450              		.loc 1 1024 5 is_stmt 1 view .LVU99
1024:Drivers/STM32F1xx_HAL_Driver/Src/stm32f1xx_hal_flash_ex.c ****     
 451              		.loc 1 1024 14 is_stmt 0 view .LVU100
 452 003e 4CF25030 		movw	r0, #50000
 453              	.LVL35:
1024:Drivers/STM32F1xx_HAL_Driver/Src/stm32f1xx_hal_flash_ex.c ****     
 454              		.loc 1 1024 14 view .LVU101
 455 0042 FFF7FEFF 		bl	FLASH_WaitForLastOperation
 456              	.LVL36:
1027:Drivers/STM32F1xx_HAL_Driver/Src/stm32f1xx_hal_flash_ex.c ****   }
 457              		.loc 1 1027 5 is_stmt 1 view .LVU102
 458 0046 3369     		ldr	r3, [r6, #16]
 459 0048 23F01003 		bic	r3, r3, #16
 460 004c 3361     		str	r3, [r6, #16]
 461 004e E5E7     		b	.L34
 462              	.L39:
 463              		.align	2
 464              	.L38:
 465 0050 04F8FF1F 		.word	536868868
 466 0054 00000000 		.word	.LC0
 467 0058 00000000 		.word	pFlash
 468 005c 00200240 		.word	1073881088
 469              		.cfi_endproc
 470              	.LFE77:
 472              		.section	.text.HAL_FLASHEx_OBErase,"ax",%progbits
 473              		.align	1
 474              		.global	HAL_FLASHEx_OBErase
 475              		.syntax unified
 476              		.thumb
 477              		.thumb_func
 478              		.fpu softvfp
 480              	HAL_FLASHEx_OBErase:
 481              	.LFB68:
 414:Drivers/STM32F1xx_HAL_Driver/Src/stm32f1xx_hal_flash_ex.c ****   uint8_t rdptmp = OB_RDP_LEVEL_0;
 482              		.loc 1 414 1 view -0
 483              		.cfi_startproc
 484              		@ args = 0, pretend = 0, frame = 0
 485              		@ frame_needed = 0, uses_anonymous_args = 0
 486 0000 38B5     		push	{r3, r4, r5, lr}
 487              	.LCFI4:
 488              		.cfi_def_cfa_offset 16
 489              		.cfi_offset 3, -16
 490              		.cfi_offset 4, -12
 491              		.cfi_offset 5, -8
 492              		.cfi_offset 14, -4
 415:Drivers/STM32F1xx_HAL_Driver/Src/stm32f1xx_hal_flash_ex.c ****   HAL_StatusTypeDef status = HAL_ERROR;
 493              		.loc 1 415 3 view .LVU104
 494              	.LVL37:
 416:Drivers/STM32F1xx_HAL_Driver/Src/stm32f1xx_hal_flash_ex.c **** 
 495              		.loc 1 416 3 view .LVU105
 419:Drivers/STM32F1xx_HAL_Driver/Src/stm32f1xx_hal_flash_ex.c **** 
ARM GAS  /tmp/cczNPJS6.s 			page 30


 496              		.loc 1 419 3 view .LVU106
 419:Drivers/STM32F1xx_HAL_Driver/Src/stm32f1xx_hal_flash_ex.c **** 
 497              		.loc 1 419 12 is_stmt 0 view .LVU107
 498 0002 FFF7FEFF 		bl	FLASH_OB_GetRDP
 499              	.LVL38:
 419:Drivers/STM32F1xx_HAL_Driver/Src/stm32f1xx_hal_flash_ex.c **** 
 500              		.loc 1 419 10 view .LVU108
 501 0006 C5B2     		uxtb	r5, r0
 502              	.LVL39:
 422:Drivers/STM32F1xx_HAL_Driver/Src/stm32f1xx_hal_flash_ex.c **** 
 503              		.loc 1 422 3 is_stmt 1 view .LVU109
 422:Drivers/STM32F1xx_HAL_Driver/Src/stm32f1xx_hal_flash_ex.c **** 
 504              		.loc 1 422 12 is_stmt 0 view .LVU110
 505 0008 4CF25030 		movw	r0, #50000
 506 000c FFF7FEFF 		bl	FLASH_WaitForLastOperation
 507              	.LVL40:
 424:Drivers/STM32F1xx_HAL_Driver/Src/stm32f1xx_hal_flash_ex.c ****   {
 508              		.loc 1 424 3 is_stmt 1 view .LVU111
 424:Drivers/STM32F1xx_HAL_Driver/Src/stm32f1xx_hal_flash_ex.c ****   {
 509              		.loc 1 424 5 is_stmt 0 view .LVU112
 510 0010 00B1     		cbz	r0, .L43
 511              	.L41:
 512              	.LVL41:
 447:Drivers/STM32F1xx_HAL_Driver/Src/stm32f1xx_hal_flash_ex.c **** }
 513              		.loc 1 447 3 is_stmt 1 view .LVU113
 448:Drivers/STM32F1xx_HAL_Driver/Src/stm32f1xx_hal_flash_ex.c **** 
 514              		.loc 1 448 1 is_stmt 0 view .LVU114
 515 0012 38BD     		pop	{r3, r4, r5, pc}
 516              	.LVL42:
 517              	.L43:
 427:Drivers/STM32F1xx_HAL_Driver/Src/stm32f1xx_hal_flash_ex.c **** 
 518              		.loc 1 427 5 is_stmt 1 view .LVU115
 427:Drivers/STM32F1xx_HAL_Driver/Src/stm32f1xx_hal_flash_ex.c **** 
 519              		.loc 1 427 22 is_stmt 0 view .LVU116
 520 0014 0C4B     		ldr	r3, .L44
 521 0016 0022     		movs	r2, #0
 522 0018 DA61     		str	r2, [r3, #28]
 430:Drivers/STM32F1xx_HAL_Driver/Src/stm32f1xx_hal_flash_ex.c ****     SET_BIT(FLASH->CR, FLASH_CR_STRT);
 523              		.loc 1 430 5 is_stmt 1 view .LVU117
 524 001a 0C4C     		ldr	r4, .L44+4
 525 001c 2369     		ldr	r3, [r4, #16]
 526 001e 43F02003 		orr	r3, r3, #32
 527 0022 2361     		str	r3, [r4, #16]
 431:Drivers/STM32F1xx_HAL_Driver/Src/stm32f1xx_hal_flash_ex.c **** 
 528              		.loc 1 431 5 view .LVU118
 529 0024 2369     		ldr	r3, [r4, #16]
 530 0026 43F04003 		orr	r3, r3, #64
 531 002a 2361     		str	r3, [r4, #16]
 434:Drivers/STM32F1xx_HAL_Driver/Src/stm32f1xx_hal_flash_ex.c **** 
 532              		.loc 1 434 5 view .LVU119
 434:Drivers/STM32F1xx_HAL_Driver/Src/stm32f1xx_hal_flash_ex.c **** 
 533              		.loc 1 434 14 is_stmt 0 view .LVU120
 534 002c 4CF25030 		movw	r0, #50000
 535 0030 FFF7FEFF 		bl	FLASH_WaitForLastOperation
 536              	.LVL43:
 437:Drivers/STM32F1xx_HAL_Driver/Src/stm32f1xx_hal_flash_ex.c **** 
 537              		.loc 1 437 5 is_stmt 1 view .LVU121
ARM GAS  /tmp/cczNPJS6.s 			page 31


 538 0034 2369     		ldr	r3, [r4, #16]
 539 0036 23F02003 		bic	r3, r3, #32
 540 003a 2361     		str	r3, [r4, #16]
 439:Drivers/STM32F1xx_HAL_Driver/Src/stm32f1xx_hal_flash_ex.c ****     {
 541              		.loc 1 439 5 view .LVU122
 439:Drivers/STM32F1xx_HAL_Driver/Src/stm32f1xx_hal_flash_ex.c ****     {
 542              		.loc 1 439 7 is_stmt 0 view .LVU123
 543 003c 0028     		cmp	r0, #0
 544 003e E8D1     		bne	.L41
 442:Drivers/STM32F1xx_HAL_Driver/Src/stm32f1xx_hal_flash_ex.c ****     }
 545              		.loc 1 442 7 is_stmt 1 view .LVU124
 442:Drivers/STM32F1xx_HAL_Driver/Src/stm32f1xx_hal_flash_ex.c ****     }
 546              		.loc 1 442 16 is_stmt 0 view .LVU125
 547 0040 2846     		mov	r0, r5
 548              	.LVL44:
 442:Drivers/STM32F1xx_HAL_Driver/Src/stm32f1xx_hal_flash_ex.c ****     }
 549              		.loc 1 442 16 view .LVU126
 550 0042 FFF7FEFF 		bl	FLASH_OB_RDP_LevelConfig
 551              	.LVL45:
 442:Drivers/STM32F1xx_HAL_Driver/Src/stm32f1xx_hal_flash_ex.c ****     }
 552              		.loc 1 442 16 view .LVU127
 553 0046 E4E7     		b	.L41
 554              	.L45:
 555              		.align	2
 556              	.L44:
 557 0048 00000000 		.word	pFlash
 558 004c 00200240 		.word	1073881088
 559              		.cfi_endproc
 560              	.LFE68:
 562              		.section	.text.FLASH_OB_EnableWRP,"ax",%progbits
 563              		.align	1
 564              		.syntax unified
 565              		.thumb
 566              		.thumb_func
 567              		.fpu softvfp
 569              	FLASH_OB_EnableWRP:
 570              	.LVL46:
 571              	.LFB73:
 661:Drivers/STM32F1xx_HAL_Driver/Src/stm32f1xx_hal_flash_ex.c ****   HAL_StatusTypeDef status = HAL_OK;
 572              		.loc 1 661 1 is_stmt 1 view -0
 573              		.cfi_startproc
 574              		@ args = 0, pretend = 0, frame = 0
 575              		@ frame_needed = 0, uses_anonymous_args = 0
 661:Drivers/STM32F1xx_HAL_Driver/Src/stm32f1xx_hal_flash_ex.c ****   HAL_StatusTypeDef status = HAL_OK;
 576              		.loc 1 661 1 is_stmt 0 view .LVU129
 577 0000 F8B5     		push	{r3, r4, r5, r6, r7, lr}
 578              	.LCFI5:
 579              		.cfi_def_cfa_offset 24
 580              		.cfi_offset 3, -24
 581              		.cfi_offset 4, -20
 582              		.cfi_offset 5, -16
 583              		.cfi_offset 6, -12
 584              		.cfi_offset 7, -8
 585              		.cfi_offset 14, -4
 662:Drivers/STM32F1xx_HAL_Driver/Src/stm32f1xx_hal_flash_ex.c ****   uint16_t WRP0_Data = 0xFFFF;
 586              		.loc 1 662 3 is_stmt 1 view .LVU130
 587              	.LVL47:
ARM GAS  /tmp/cczNPJS6.s 			page 32


 663:Drivers/STM32F1xx_HAL_Driver/Src/stm32f1xx_hal_flash_ex.c **** #if defined(FLASH_WRP1_WRP1)
 588              		.loc 1 663 3 view .LVU131
 665:Drivers/STM32F1xx_HAL_Driver/Src/stm32f1xx_hal_flash_ex.c **** #endif /* FLASH_WRP1_WRP1 */
 589              		.loc 1 665 3 view .LVU132
 668:Drivers/STM32F1xx_HAL_Driver/Src/stm32f1xx_hal_flash_ex.c **** #endif /* FLASH_WRP2_WRP2 */
 590              		.loc 1 668 3 view .LVU133
 671:Drivers/STM32F1xx_HAL_Driver/Src/stm32f1xx_hal_flash_ex.c **** #endif /* FLASH_WRP3_WRP3 */
 591              		.loc 1 671 3 view .LVU134
 675:Drivers/STM32F1xx_HAL_Driver/Src/stm32f1xx_hal_flash_ex.c ****     
 592              		.loc 1 675 3 view .LVU135
 593 0002 0446     		mov	r4, r0
 594 0004 88B1     		cbz	r0, .L54
 595              	.LVL48:
 596              	.L47:
 678:Drivers/STM32F1xx_HAL_Driver/Src/stm32f1xx_hal_flash_ex.c ****   
 597              		.loc 1 678 3 view .LVU136
 678:Drivers/STM32F1xx_HAL_Driver/Src/stm32f1xx_hal_flash_ex.c ****   
 598              		.loc 1 678 37 is_stmt 0 view .LVU137
 599 0006 FFF7FEFF 		bl	FLASH_OB_GetWRP
 600              	.LVL49:
 678:Drivers/STM32F1xx_HAL_Driver/Src/stm32f1xx_hal_flash_ex.c ****   
 601              		.loc 1 678 20 view .LVU138
 602 000a 20EA0400 		bic	r0, r0, r4
 603              	.LVL50:
 683:Drivers/STM32F1xx_HAL_Driver/Src/stm32f1xx_hal_flash_ex.c **** #endif /* OB_WRP_PAGES0TO31MASK */
 604              		.loc 1 683 3 is_stmt 1 view .LVU139
 683:Drivers/STM32F1xx_HAL_Driver/Src/stm32f1xx_hal_flash_ex.c **** #endif /* OB_WRP_PAGES0TO31MASK */
 605              		.loc 1 683 13 is_stmt 0 view .LVU140
 606 000e C5B2     		uxtb	r5, r0
 607              	.LVL51:
 689:Drivers/STM32F1xx_HAL_Driver/Src/stm32f1xx_hal_flash_ex.c **** #endif /* OB_WRP_PAGES32TO63MASK */
 608              		.loc 1 689 3 is_stmt 1 view .LVU141
 689:Drivers/STM32F1xx_HAL_Driver/Src/stm32f1xx_hal_flash_ex.c **** #endif /* OB_WRP_PAGES32TO63MASK */
 609              		.loc 1 689 13 is_stmt 0 view .LVU142
 610 0010 C0F30727 		ubfx	r7, r0, #8, #8
 611              	.LVL52:
 693:Drivers/STM32F1xx_HAL_Driver/Src/stm32f1xx_hal_flash_ex.c **** #endif /* OB_WRP_PAGES64TO95MASK */
 612              		.loc 1 693 3 is_stmt 1 view .LVU143
 693:Drivers/STM32F1xx_HAL_Driver/Src/stm32f1xx_hal_flash_ex.c **** #endif /* OB_WRP_PAGES64TO95MASK */
 613              		.loc 1 693 13 is_stmt 0 view .LVU144
 614 0014 C0F30746 		ubfx	r6, r0, #16, #8
 615              	.LVL53:
 700:Drivers/STM32F1xx_HAL_Driver/Src/stm32f1xx_hal_flash_ex.c **** #elif defined(OB_WRP_PAGES48TO255MASK)
 616              		.loc 1 700 3 is_stmt 1 view .LVU145
 700:Drivers/STM32F1xx_HAL_Driver/Src/stm32f1xx_hal_flash_ex.c **** #elif defined(OB_WRP_PAGES48TO255MASK)
 617              		.loc 1 700 13 is_stmt 0 view .LVU146
 618 0018 040E     		lsrs	r4, r0, #24
 619              	.LVL54:
 710:Drivers/STM32F1xx_HAL_Driver/Src/stm32f1xx_hal_flash_ex.c **** 
 620              		.loc 1 710 3 is_stmt 1 view .LVU147
 710:Drivers/STM32F1xx_HAL_Driver/Src/stm32f1xx_hal_flash_ex.c **** 
 621              		.loc 1 710 12 is_stmt 0 view .LVU148
 622 001a 4CF25030 		movw	r0, #50000
 623              	.LVL55:
 710:Drivers/STM32F1xx_HAL_Driver/Src/stm32f1xx_hal_flash_ex.c **** 
 624              		.loc 1 710 12 view .LVU149
 625 001e FFF7FEFF 		bl	FLASH_WaitForLastOperation
ARM GAS  /tmp/cczNPJS6.s 			page 33


 626              	.LVL56:
 712:Drivers/STM32F1xx_HAL_Driver/Src/stm32f1xx_hal_flash_ex.c ****   { 
 627              		.loc 1 712 3 is_stmt 1 view .LVU150
 712:Drivers/STM32F1xx_HAL_Driver/Src/stm32f1xx_hal_flash_ex.c ****   { 
 628              		.loc 1 712 5 is_stmt 0 view .LVU151
 629 0022 0346     		mov	r3, r0
 630 0024 38B1     		cbz	r0, .L55
 631              	.LVL57:
 632              	.L48:
 769:Drivers/STM32F1xx_HAL_Driver/Src/stm32f1xx_hal_flash_ex.c **** }
 633              		.loc 1 769 3 is_stmt 1 view .LVU152
 770:Drivers/STM32F1xx_HAL_Driver/Src/stm32f1xx_hal_flash_ex.c **** 
 634              		.loc 1 770 1 is_stmt 0 view .LVU153
 635 0026 1846     		mov	r0, r3
 636 0028 F8BD     		pop	{r3, r4, r5, r6, r7, pc}
 637              	.LVL58:
 638              	.L54:
 675:Drivers/STM32F1xx_HAL_Driver/Src/stm32f1xx_hal_flash_ex.c ****     
 639              		.loc 1 675 3 discriminator 1 view .LVU154
 640 002a 40F2A321 		movw	r1, #675
 641 002e 2548     		ldr	r0, .L60
 642              	.LVL59:
 675:Drivers/STM32F1xx_HAL_Driver/Src/stm32f1xx_hal_flash_ex.c ****     
 643              		.loc 1 675 3 discriminator 1 view .LVU155
 644 0030 FFF7FEFF 		bl	assert_failed
 645              	.LVL60:
 646 0034 E7E7     		b	.L47
 647              	.LVL61:
 648              	.L55:
 715:Drivers/STM32F1xx_HAL_Driver/Src/stm32f1xx_hal_flash_ex.c **** 
 649              		.loc 1 715 5 is_stmt 1 view .LVU156
 715:Drivers/STM32F1xx_HAL_Driver/Src/stm32f1xx_hal_flash_ex.c **** 
 650              		.loc 1 715 22 is_stmt 0 view .LVU157
 651 0036 244B     		ldr	r3, .L60+4
 652 0038 0022     		movs	r2, #0
 653 003a DA61     		str	r2, [r3, #28]
 718:Drivers/STM32F1xx_HAL_Driver/Src/stm32f1xx_hal_flash_ex.c ****     if (status == HAL_OK)  
 654              		.loc 1 718 5 is_stmt 1 view .LVU158
 718:Drivers/STM32F1xx_HAL_Driver/Src/stm32f1xx_hal_flash_ex.c ****     if (status == HAL_OK)  
 655              		.loc 1 718 14 is_stmt 0 view .LVU159
 656 003c FFF7FEFF 		bl	HAL_FLASHEx_OBErase
 657              	.LVL62:
 719:Drivers/STM32F1xx_HAL_Driver/Src/stm32f1xx_hal_flash_ex.c ****     {
 658              		.loc 1 719 5 is_stmt 1 view .LVU160
 719:Drivers/STM32F1xx_HAL_Driver/Src/stm32f1xx_hal_flash_ex.c ****     {
 659              		.loc 1 719 8 is_stmt 0 view .LVU161
 660 0040 0346     		mov	r3, r0
 661 0042 0028     		cmp	r0, #0
 662 0044 EFD1     		bne	.L48
 722:Drivers/STM32F1xx_HAL_Driver/Src/stm32f1xx_hal_flash_ex.c **** 
 663              		.loc 1 722 7 is_stmt 1 view .LVU162
 664 0046 2149     		ldr	r1, .L60+8
 665 0048 0A69     		ldr	r2, [r1, #16]
 666 004a 42F01002 		orr	r2, r2, #16
 667 004e 0A61     		str	r2, [r1, #16]
 725:Drivers/STM32F1xx_HAL_Driver/Src/stm32f1xx_hal_flash_ex.c ****       {
 668              		.loc 1 725 7 view .LVU163
ARM GAS  /tmp/cczNPJS6.s 			page 34


 725:Drivers/STM32F1xx_HAL_Driver/Src/stm32f1xx_hal_flash_ex.c ****       {
 669              		.loc 1 725 9 is_stmt 0 view .LVU164
 670 0050 FF2D     		cmp	r5, #255
 671 0052 0ED1     		bne	.L56
 672              	.LVL63:
 673              	.L49:
 735:Drivers/STM32F1xx_HAL_Driver/Src/stm32f1xx_hal_flash_ex.c ****       {
 674              		.loc 1 735 7 is_stmt 1 view .LVU165
 735:Drivers/STM32F1xx_HAL_Driver/Src/stm32f1xx_hal_flash_ex.c ****       {
 675              		.loc 1 735 9 is_stmt 0 view .LVU166
 676 0054 0BB9     		cbnz	r3, .L50
 735:Drivers/STM32F1xx_HAL_Driver/Src/stm32f1xx_hal_flash_ex.c ****       {
 677              		.loc 1 735 29 discriminator 1 view .LVU167
 678 0056 FF2F     		cmp	r7, #255
 679 0058 15D1     		bne	.L57
 680              	.LVL64:
 681              	.L50:
 745:Drivers/STM32F1xx_HAL_Driver/Src/stm32f1xx_hal_flash_ex.c ****       {
 682              		.loc 1 745 7 is_stmt 1 view .LVU168
 745:Drivers/STM32F1xx_HAL_Driver/Src/stm32f1xx_hal_flash_ex.c ****       {
 683              		.loc 1 745 9 is_stmt 0 view .LVU169
 684 005a 0BB9     		cbnz	r3, .L51
 745:Drivers/STM32F1xx_HAL_Driver/Src/stm32f1xx_hal_flash_ex.c ****       {
 685              		.loc 1 745 29 discriminator 1 view .LVU170
 686 005c FF2E     		cmp	r6, #255
 687 005e 1CD1     		bne	.L58
 688              	.LVL65:
 689              	.L51:
 755:Drivers/STM32F1xx_HAL_Driver/Src/stm32f1xx_hal_flash_ex.c ****       {
 690              		.loc 1 755 7 is_stmt 1 view .LVU171
 755:Drivers/STM32F1xx_HAL_Driver/Src/stm32f1xx_hal_flash_ex.c ****       {
 691              		.loc 1 755 9 is_stmt 0 view .LVU172
 692 0060 0BB9     		cbnz	r3, .L52
 755:Drivers/STM32F1xx_HAL_Driver/Src/stm32f1xx_hal_flash_ex.c ****       {
 693              		.loc 1 755 29 discriminator 1 view .LVU173
 694 0062 FF2C     		cmp	r4, #255
 695 0064 23D1     		bne	.L59
 696              	.L52:
 765:Drivers/STM32F1xx_HAL_Driver/Src/stm32f1xx_hal_flash_ex.c ****     }
 697              		.loc 1 765 7 is_stmt 1 view .LVU174
 698 0066 1949     		ldr	r1, .L60+8
 699 0068 0A69     		ldr	r2, [r1, #16]
 700 006a 22F01002 		bic	r2, r2, #16
 701 006e 0A61     		str	r2, [r1, #16]
 702 0070 D9E7     		b	.L48
 703              	.LVL66:
 704              	.L56:
 727:Drivers/STM32F1xx_HAL_Driver/Src/stm32f1xx_hal_flash_ex.c ****         
 705              		.loc 1 727 9 view .LVU175
 727:Drivers/STM32F1xx_HAL_Driver/Src/stm32f1xx_hal_flash_ex.c ****         
 706              		.loc 1 727 18 is_stmt 0 view .LVU176
 707 0072 174B     		ldr	r3, .L60+12
 708 0074 1A89     		ldrh	r2, [r3, #8]
 709 0076 1540     		ands	r5, r5, r2
 710              	.LVL67:
 727:Drivers/STM32F1xx_HAL_Driver/Src/stm32f1xx_hal_flash_ex.c ****         
 711              		.loc 1 727 18 view .LVU177
ARM GAS  /tmp/cczNPJS6.s 			page 35


 712 0078 1D81     		strh	r5, [r3, #8]	@ movhi
 730:Drivers/STM32F1xx_HAL_Driver/Src/stm32f1xx_hal_flash_ex.c ****       }
 713              		.loc 1 730 9 is_stmt 1 view .LVU178
 730:Drivers/STM32F1xx_HAL_Driver/Src/stm32f1xx_hal_flash_ex.c ****       }
 714              		.loc 1 730 18 is_stmt 0 view .LVU179
 715 007a 4CF25030 		movw	r0, #50000
 716              	.LVL68:
 730:Drivers/STM32F1xx_HAL_Driver/Src/stm32f1xx_hal_flash_ex.c ****       }
 717              		.loc 1 730 18 view .LVU180
 718 007e FFF7FEFF 		bl	FLASH_WaitForLastOperation
 719              	.LVL69:
 720 0082 0346     		mov	r3, r0
 721              	.LVL70:
 730:Drivers/STM32F1xx_HAL_Driver/Src/stm32f1xx_hal_flash_ex.c ****       }
 722              		.loc 1 730 18 view .LVU181
 723 0084 E6E7     		b	.L49
 724              	.L57:
 737:Drivers/STM32F1xx_HAL_Driver/Src/stm32f1xx_hal_flash_ex.c ****         
 725              		.loc 1 737 9 is_stmt 1 view .LVU182
 737:Drivers/STM32F1xx_HAL_Driver/Src/stm32f1xx_hal_flash_ex.c ****         
 726              		.loc 1 737 18 is_stmt 0 view .LVU183
 727 0086 124B     		ldr	r3, .L60+12
 728              	.LVL71:
 737:Drivers/STM32F1xx_HAL_Driver/Src/stm32f1xx_hal_flash_ex.c ****         
 729              		.loc 1 737 18 view .LVU184
 730 0088 5A89     		ldrh	r2, [r3, #10]
 731 008a 1740     		ands	r7, r7, r2
 732              	.LVL72:
 737:Drivers/STM32F1xx_HAL_Driver/Src/stm32f1xx_hal_flash_ex.c ****         
 733              		.loc 1 737 18 view .LVU185
 734 008c 5F81     		strh	r7, [r3, #10]	@ movhi
 740:Drivers/STM32F1xx_HAL_Driver/Src/stm32f1xx_hal_flash_ex.c ****       }
 735              		.loc 1 740 9 is_stmt 1 view .LVU186
 740:Drivers/STM32F1xx_HAL_Driver/Src/stm32f1xx_hal_flash_ex.c ****       }
 736              		.loc 1 740 18 is_stmt 0 view .LVU187
 737 008e 4CF25030 		movw	r0, #50000
 738 0092 FFF7FEFF 		bl	FLASH_WaitForLastOperation
 739              	.LVL73:
 740 0096 0346     		mov	r3, r0
 741              	.LVL74:
 740:Drivers/STM32F1xx_HAL_Driver/Src/stm32f1xx_hal_flash_ex.c ****       }
 742              		.loc 1 740 18 view .LVU188
 743 0098 DFE7     		b	.L50
 744              	.L58:
 747:Drivers/STM32F1xx_HAL_Driver/Src/stm32f1xx_hal_flash_ex.c ****         
 745              		.loc 1 747 9 is_stmt 1 view .LVU189
 747:Drivers/STM32F1xx_HAL_Driver/Src/stm32f1xx_hal_flash_ex.c ****         
 746              		.loc 1 747 18 is_stmt 0 view .LVU190
 747 009a 0D4B     		ldr	r3, .L60+12
 748              	.LVL75:
 747:Drivers/STM32F1xx_HAL_Driver/Src/stm32f1xx_hal_flash_ex.c ****         
 749              		.loc 1 747 18 view .LVU191
 750 009c 9A89     		ldrh	r2, [r3, #12]
 751 009e 1640     		ands	r6, r6, r2
 752              	.LVL76:
 747:Drivers/STM32F1xx_HAL_Driver/Src/stm32f1xx_hal_flash_ex.c ****         
 753              		.loc 1 747 18 view .LVU192
ARM GAS  /tmp/cczNPJS6.s 			page 36


 754 00a0 9E81     		strh	r6, [r3, #12]	@ movhi
 750:Drivers/STM32F1xx_HAL_Driver/Src/stm32f1xx_hal_flash_ex.c ****       }
 755              		.loc 1 750 9 is_stmt 1 view .LVU193
 750:Drivers/STM32F1xx_HAL_Driver/Src/stm32f1xx_hal_flash_ex.c ****       }
 756              		.loc 1 750 18 is_stmt 0 view .LVU194
 757 00a2 4CF25030 		movw	r0, #50000
 758 00a6 FFF7FEFF 		bl	FLASH_WaitForLastOperation
 759              	.LVL77:
 760 00aa 0346     		mov	r3, r0
 761              	.LVL78:
 750:Drivers/STM32F1xx_HAL_Driver/Src/stm32f1xx_hal_flash_ex.c ****       }
 762              		.loc 1 750 18 view .LVU195
 763 00ac D8E7     		b	.L51
 764              	.L59:
 757:Drivers/STM32F1xx_HAL_Driver/Src/stm32f1xx_hal_flash_ex.c ****         
 765              		.loc 1 757 9 is_stmt 1 view .LVU196
 757:Drivers/STM32F1xx_HAL_Driver/Src/stm32f1xx_hal_flash_ex.c ****         
 766              		.loc 1 757 18 is_stmt 0 view .LVU197
 767 00ae 084B     		ldr	r3, .L60+12
 768              	.LVL79:
 757:Drivers/STM32F1xx_HAL_Driver/Src/stm32f1xx_hal_flash_ex.c ****         
 769              		.loc 1 757 18 view .LVU198
 770 00b0 D889     		ldrh	r0, [r3, #14]
 771 00b2 2040     		ands	r0, r0, r4
 772 00b4 D881     		strh	r0, [r3, #14]	@ movhi
 760:Drivers/STM32F1xx_HAL_Driver/Src/stm32f1xx_hal_flash_ex.c ****       }
 773              		.loc 1 760 9 is_stmt 1 view .LVU199
 760:Drivers/STM32F1xx_HAL_Driver/Src/stm32f1xx_hal_flash_ex.c ****       }
 774              		.loc 1 760 18 is_stmt 0 view .LVU200
 775 00b6 4CF25030 		movw	r0, #50000
 776 00ba FFF7FEFF 		bl	FLASH_WaitForLastOperation
 777              	.LVL80:
 778 00be 0346     		mov	r3, r0
 779              	.LVL81:
 760:Drivers/STM32F1xx_HAL_Driver/Src/stm32f1xx_hal_flash_ex.c ****       }
 780              		.loc 1 760 18 view .LVU201
 781 00c0 D1E7     		b	.L52
 782              	.L61:
 783 00c2 00BF     		.align	2
 784              	.L60:
 785 00c4 00000000 		.word	.LC0
 786 00c8 00000000 		.word	pFlash
 787 00cc 00200240 		.word	1073881088
 788 00d0 00F8FF1F 		.word	536868864
 789              		.cfi_endproc
 790              	.LFE73:
 792              		.section	.text.FLASH_OB_DisableWRP,"ax",%progbits
 793              		.align	1
 794              		.syntax unified
 795              		.thumb
 796              		.thumb_func
 797              		.fpu softvfp
 799              	FLASH_OB_DisableWRP:
 800              	.LVL82:
 801              	.LFB74:
 784:Drivers/STM32F1xx_HAL_Driver/Src/stm32f1xx_hal_flash_ex.c ****   HAL_StatusTypeDef status = HAL_OK;
 802              		.loc 1 784 1 is_stmt 1 view -0
ARM GAS  /tmp/cczNPJS6.s 			page 37


 803              		.cfi_startproc
 804              		@ args = 0, pretend = 0, frame = 0
 805              		@ frame_needed = 0, uses_anonymous_args = 0
 784:Drivers/STM32F1xx_HAL_Driver/Src/stm32f1xx_hal_flash_ex.c ****   HAL_StatusTypeDef status = HAL_OK;
 806              		.loc 1 784 1 is_stmt 0 view .LVU203
 807 0000 F8B5     		push	{r3, r4, r5, r6, r7, lr}
 808              	.LCFI6:
 809              		.cfi_def_cfa_offset 24
 810              		.cfi_offset 3, -24
 811              		.cfi_offset 4, -20
 812              		.cfi_offset 5, -16
 813              		.cfi_offset 6, -12
 814              		.cfi_offset 7, -8
 815              		.cfi_offset 14, -4
 785:Drivers/STM32F1xx_HAL_Driver/Src/stm32f1xx_hal_flash_ex.c ****   uint16_t WRP0_Data = 0xFFFF;
 816              		.loc 1 785 3 is_stmt 1 view .LVU204
 817              	.LVL83:
 786:Drivers/STM32F1xx_HAL_Driver/Src/stm32f1xx_hal_flash_ex.c **** #if defined(FLASH_WRP1_WRP1)
 818              		.loc 1 786 3 view .LVU205
 788:Drivers/STM32F1xx_HAL_Driver/Src/stm32f1xx_hal_flash_ex.c **** #endif /* FLASH_WRP1_WRP1 */
 819              		.loc 1 788 3 view .LVU206
 791:Drivers/STM32F1xx_HAL_Driver/Src/stm32f1xx_hal_flash_ex.c **** #endif /* FLASH_WRP2_WRP2 */
 820              		.loc 1 791 3 view .LVU207
 794:Drivers/STM32F1xx_HAL_Driver/Src/stm32f1xx_hal_flash_ex.c **** #endif /* FLASH_WRP3_WRP3 */
 821              		.loc 1 794 3 view .LVU208
 798:Drivers/STM32F1xx_HAL_Driver/Src/stm32f1xx_hal_flash_ex.c **** 
 822              		.loc 1 798 3 view .LVU209
 823 0002 0446     		mov	r4, r0
 824 0004 80B1     		cbz	r0, .L70
 825              	.LVL84:
 826              	.L63:
 801:Drivers/STM32F1xx_HAL_Driver/Src/stm32f1xx_hal_flash_ex.c **** 
 827              		.loc 1 801 3 view .LVU210
 801:Drivers/STM32F1xx_HAL_Driver/Src/stm32f1xx_hal_flash_ex.c **** 
 828              		.loc 1 801 23 is_stmt 0 view .LVU211
 829 0006 FFF7FEFF 		bl	FLASH_OB_GetWRP
 830              	.LVL85:
 801:Drivers/STM32F1xx_HAL_Driver/Src/stm32f1xx_hal_flash_ex.c **** 
 831              		.loc 1 801 20 view .LVU212
 832 000a 2043     		orrs	r0, r0, r4
 833              	.LVL86:
 806:Drivers/STM32F1xx_HAL_Driver/Src/stm32f1xx_hal_flash_ex.c **** #endif /* OB_WRP_PAGES0TO31MASK */
 834              		.loc 1 806 3 is_stmt 1 view .LVU213
 806:Drivers/STM32F1xx_HAL_Driver/Src/stm32f1xx_hal_flash_ex.c **** #endif /* OB_WRP_PAGES0TO31MASK */
 835              		.loc 1 806 13 is_stmt 0 view .LVU214
 836 000c C5B2     		uxtb	r5, r0
 837              	.LVL87:
 812:Drivers/STM32F1xx_HAL_Driver/Src/stm32f1xx_hal_flash_ex.c **** #endif /* OB_WRP_PAGES32TO63MASK */
 838              		.loc 1 812 3 is_stmt 1 view .LVU215
 812:Drivers/STM32F1xx_HAL_Driver/Src/stm32f1xx_hal_flash_ex.c **** #endif /* OB_WRP_PAGES32TO63MASK */
 839              		.loc 1 812 13 is_stmt 0 view .LVU216
 840 000e C0F30727 		ubfx	r7, r0, #8, #8
 841              	.LVL88:
 816:Drivers/STM32F1xx_HAL_Driver/Src/stm32f1xx_hal_flash_ex.c **** #endif /* OB_WRP_PAGES64TO95MASK */
 842              		.loc 1 816 3 is_stmt 1 view .LVU217
 816:Drivers/STM32F1xx_HAL_Driver/Src/stm32f1xx_hal_flash_ex.c **** #endif /* OB_WRP_PAGES64TO95MASK */
 843              		.loc 1 816 13 is_stmt 0 view .LVU218
ARM GAS  /tmp/cczNPJS6.s 			page 38


 844 0012 C0F30746 		ubfx	r6, r0, #16, #8
 845              	.LVL89:
 823:Drivers/STM32F1xx_HAL_Driver/Src/stm32f1xx_hal_flash_ex.c **** #elif defined(OB_WRP_PAGES48TO255MASK)
 846              		.loc 1 823 3 is_stmt 1 view .LVU219
 823:Drivers/STM32F1xx_HAL_Driver/Src/stm32f1xx_hal_flash_ex.c **** #elif defined(OB_WRP_PAGES48TO255MASK)
 847              		.loc 1 823 13 is_stmt 0 view .LVU220
 848 0016 040E     		lsrs	r4, r0, #24
 849              	.LVL90:
 834:Drivers/STM32F1xx_HAL_Driver/Src/stm32f1xx_hal_flash_ex.c **** 
 850              		.loc 1 834 3 is_stmt 1 view .LVU221
 834:Drivers/STM32F1xx_HAL_Driver/Src/stm32f1xx_hal_flash_ex.c **** 
 851              		.loc 1 834 12 is_stmt 0 view .LVU222
 852 0018 4CF25030 		movw	r0, #50000
 853              	.LVL91:
 834:Drivers/STM32F1xx_HAL_Driver/Src/stm32f1xx_hal_flash_ex.c **** 
 854              		.loc 1 834 12 view .LVU223
 855 001c FFF7FEFF 		bl	FLASH_WaitForLastOperation
 856              	.LVL92:
 836:Drivers/STM32F1xx_HAL_Driver/Src/stm32f1xx_hal_flash_ex.c ****   { 
 857              		.loc 1 836 3 is_stmt 1 view .LVU224
 836:Drivers/STM32F1xx_HAL_Driver/Src/stm32f1xx_hal_flash_ex.c ****   { 
 858              		.loc 1 836 5 is_stmt 0 view .LVU225
 859 0020 0346     		mov	r3, r0
 860 0022 38B1     		cbz	r0, .L71
 861              	.LVL93:
 862              	.L64:
 891:Drivers/STM32F1xx_HAL_Driver/Src/stm32f1xx_hal_flash_ex.c **** }
 863              		.loc 1 891 3 is_stmt 1 view .LVU226
 892:Drivers/STM32F1xx_HAL_Driver/Src/stm32f1xx_hal_flash_ex.c **** 
 864              		.loc 1 892 1 is_stmt 0 view .LVU227
 865 0024 1846     		mov	r0, r3
 866 0026 F8BD     		pop	{r3, r4, r5, r6, r7, pc}
 867              	.LVL94:
 868              	.L70:
 798:Drivers/STM32F1xx_HAL_Driver/Src/stm32f1xx_hal_flash_ex.c **** 
 869              		.loc 1 798 3 discriminator 1 view .LVU228
 870 0028 40F21E31 		movw	r1, #798
 871 002c 2648     		ldr	r0, .L76
 872              	.LVL95:
 798:Drivers/STM32F1xx_HAL_Driver/Src/stm32f1xx_hal_flash_ex.c **** 
 873              		.loc 1 798 3 discriminator 1 view .LVU229
 874 002e FFF7FEFF 		bl	assert_failed
 875              	.LVL96:
 876 0032 E8E7     		b	.L63
 877              	.LVL97:
 878              	.L71:
 839:Drivers/STM32F1xx_HAL_Driver/Src/stm32f1xx_hal_flash_ex.c **** 
 879              		.loc 1 839 5 is_stmt 1 view .LVU230
 839:Drivers/STM32F1xx_HAL_Driver/Src/stm32f1xx_hal_flash_ex.c **** 
 880              		.loc 1 839 22 is_stmt 0 view .LVU231
 881 0034 254B     		ldr	r3, .L76+4
 882 0036 0022     		movs	r2, #0
 883 0038 DA61     		str	r2, [r3, #28]
 842:Drivers/STM32F1xx_HAL_Driver/Src/stm32f1xx_hal_flash_ex.c ****     if (status == HAL_OK)  
 884              		.loc 1 842 5 is_stmt 1 view .LVU232
 842:Drivers/STM32F1xx_HAL_Driver/Src/stm32f1xx_hal_flash_ex.c ****     if (status == HAL_OK)  
 885              		.loc 1 842 14 is_stmt 0 view .LVU233
ARM GAS  /tmp/cczNPJS6.s 			page 39


 886 003a FFF7FEFF 		bl	HAL_FLASHEx_OBErase
 887              	.LVL98:
 843:Drivers/STM32F1xx_HAL_Driver/Src/stm32f1xx_hal_flash_ex.c ****     {
 888              		.loc 1 843 5 is_stmt 1 view .LVU234
 843:Drivers/STM32F1xx_HAL_Driver/Src/stm32f1xx_hal_flash_ex.c ****     {
 889              		.loc 1 843 8 is_stmt 0 view .LVU235
 890 003e 0346     		mov	r3, r0
 891 0040 0028     		cmp	r0, #0
 892 0042 EFD1     		bne	.L64
 845:Drivers/STM32F1xx_HAL_Driver/Src/stm32f1xx_hal_flash_ex.c **** 
 893              		.loc 1 845 7 is_stmt 1 view .LVU236
 894 0044 2249     		ldr	r1, .L76+8
 895 0046 0A69     		ldr	r2, [r1, #16]
 896 0048 42F01002 		orr	r2, r2, #16
 897 004c 0A61     		str	r2, [r1, #16]
 848:Drivers/STM32F1xx_HAL_Driver/Src/stm32f1xx_hal_flash_ex.c ****       {
 898              		.loc 1 848 7 view .LVU237
 848:Drivers/STM32F1xx_HAL_Driver/Src/stm32f1xx_hal_flash_ex.c ****       {
 899              		.loc 1 848 9 is_stmt 0 view .LVU238
 900 004e FF2D     		cmp	r5, #255
 901 0050 0ED1     		bne	.L72
 902              	.LVL99:
 903              	.L65:
 858:Drivers/STM32F1xx_HAL_Driver/Src/stm32f1xx_hal_flash_ex.c ****       {
 904              		.loc 1 858 7 is_stmt 1 view .LVU239
 858:Drivers/STM32F1xx_HAL_Driver/Src/stm32f1xx_hal_flash_ex.c ****       {
 905              		.loc 1 858 9 is_stmt 0 view .LVU240
 906 0052 0BB9     		cbnz	r3, .L66
 858:Drivers/STM32F1xx_HAL_Driver/Src/stm32f1xx_hal_flash_ex.c ****       {
 907              		.loc 1 858 29 discriminator 1 view .LVU241
 908 0054 FF2F     		cmp	r7, #255
 909 0056 16D1     		bne	.L73
 910              	.LVL100:
 911              	.L66:
 868:Drivers/STM32F1xx_HAL_Driver/Src/stm32f1xx_hal_flash_ex.c ****       {
 912              		.loc 1 868 7 is_stmt 1 view .LVU242
 868:Drivers/STM32F1xx_HAL_Driver/Src/stm32f1xx_hal_flash_ex.c ****       {
 913              		.loc 1 868 9 is_stmt 0 view .LVU243
 914 0058 0BB9     		cbnz	r3, .L67
 868:Drivers/STM32F1xx_HAL_Driver/Src/stm32f1xx_hal_flash_ex.c ****       {
 915              		.loc 1 868 29 discriminator 1 view .LVU244
 916 005a FF2E     		cmp	r6, #255
 917 005c 1ED1     		bne	.L74
 918              	.LVL101:
 919              	.L67:
 878:Drivers/STM32F1xx_HAL_Driver/Src/stm32f1xx_hal_flash_ex.c ****       {
 920              		.loc 1 878 7 is_stmt 1 view .LVU245
 878:Drivers/STM32F1xx_HAL_Driver/Src/stm32f1xx_hal_flash_ex.c ****       {
 921              		.loc 1 878 9 is_stmt 0 view .LVU246
 922 005e 0BB9     		cbnz	r3, .L68
 878:Drivers/STM32F1xx_HAL_Driver/Src/stm32f1xx_hal_flash_ex.c ****       {
 923              		.loc 1 878 29 discriminator 1 view .LVU247
 924 0060 FF2C     		cmp	r4, #255
 925 0062 26D1     		bne	.L75
 926              	.L68:
 888:Drivers/STM32F1xx_HAL_Driver/Src/stm32f1xx_hal_flash_ex.c ****     }
 927              		.loc 1 888 7 is_stmt 1 view .LVU248
ARM GAS  /tmp/cczNPJS6.s 			page 40


 928 0064 1A49     		ldr	r1, .L76+8
 929 0066 0A69     		ldr	r2, [r1, #16]
 930 0068 22F01002 		bic	r2, r2, #16
 931 006c 0A61     		str	r2, [r1, #16]
 932 006e D9E7     		b	.L64
 933              	.LVL102:
 934              	.L72:
 850:Drivers/STM32F1xx_HAL_Driver/Src/stm32f1xx_hal_flash_ex.c ****         
 935              		.loc 1 850 9 view .LVU249
 850:Drivers/STM32F1xx_HAL_Driver/Src/stm32f1xx_hal_flash_ex.c ****         
 936              		.loc 1 850 18 is_stmt 0 view .LVU250
 937 0070 184A     		ldr	r2, .L76+12
 938 0072 1389     		ldrh	r3, [r2, #8]
 939 0074 9BB2     		uxth	r3, r3
 940 0076 1D43     		orrs	r5, r5, r3
 941              	.LVL103:
 850:Drivers/STM32F1xx_HAL_Driver/Src/stm32f1xx_hal_flash_ex.c ****         
 942              		.loc 1 850 18 view .LVU251
 943 0078 1581     		strh	r5, [r2, #8]	@ movhi
 853:Drivers/STM32F1xx_HAL_Driver/Src/stm32f1xx_hal_flash_ex.c ****       }
 944              		.loc 1 853 9 is_stmt 1 view .LVU252
 853:Drivers/STM32F1xx_HAL_Driver/Src/stm32f1xx_hal_flash_ex.c ****       }
 945              		.loc 1 853 18 is_stmt 0 view .LVU253
 946 007a 4CF25030 		movw	r0, #50000
 947              	.LVL104:
 853:Drivers/STM32F1xx_HAL_Driver/Src/stm32f1xx_hal_flash_ex.c ****       }
 948              		.loc 1 853 18 view .LVU254
 949 007e FFF7FEFF 		bl	FLASH_WaitForLastOperation
 950              	.LVL105:
 951 0082 0346     		mov	r3, r0
 952              	.LVL106:
 853:Drivers/STM32F1xx_HAL_Driver/Src/stm32f1xx_hal_flash_ex.c ****       }
 953              		.loc 1 853 18 view .LVU255
 954 0084 E5E7     		b	.L65
 955              	.L73:
 860:Drivers/STM32F1xx_HAL_Driver/Src/stm32f1xx_hal_flash_ex.c ****         
 956              		.loc 1 860 9 is_stmt 1 view .LVU256
 860:Drivers/STM32F1xx_HAL_Driver/Src/stm32f1xx_hal_flash_ex.c ****         
 957              		.loc 1 860 18 is_stmt 0 view .LVU257
 958 0086 134A     		ldr	r2, .L76+12
 959 0088 5389     		ldrh	r3, [r2, #10]
 960              	.LVL107:
 860:Drivers/STM32F1xx_HAL_Driver/Src/stm32f1xx_hal_flash_ex.c ****         
 961              		.loc 1 860 18 view .LVU258
 962 008a 9BB2     		uxth	r3, r3
 963 008c 1F43     		orrs	r7, r7, r3
 964              	.LVL108:
 860:Drivers/STM32F1xx_HAL_Driver/Src/stm32f1xx_hal_flash_ex.c ****         
 965              		.loc 1 860 18 view .LVU259
 966 008e 5781     		strh	r7, [r2, #10]	@ movhi
 863:Drivers/STM32F1xx_HAL_Driver/Src/stm32f1xx_hal_flash_ex.c ****       }
 967              		.loc 1 863 9 is_stmt 1 view .LVU260
 863:Drivers/STM32F1xx_HAL_Driver/Src/stm32f1xx_hal_flash_ex.c ****       }
 968              		.loc 1 863 18 is_stmt 0 view .LVU261
 969 0090 4CF25030 		movw	r0, #50000
 970 0094 FFF7FEFF 		bl	FLASH_WaitForLastOperation
 971              	.LVL109:
ARM GAS  /tmp/cczNPJS6.s 			page 41


 972 0098 0346     		mov	r3, r0
 973              	.LVL110:
 863:Drivers/STM32F1xx_HAL_Driver/Src/stm32f1xx_hal_flash_ex.c ****       }
 974              		.loc 1 863 18 view .LVU262
 975 009a DDE7     		b	.L66
 976              	.L74:
 870:Drivers/STM32F1xx_HAL_Driver/Src/stm32f1xx_hal_flash_ex.c ****         
 977              		.loc 1 870 9 is_stmt 1 view .LVU263
 870:Drivers/STM32F1xx_HAL_Driver/Src/stm32f1xx_hal_flash_ex.c ****         
 978              		.loc 1 870 18 is_stmt 0 view .LVU264
 979 009c 0D4A     		ldr	r2, .L76+12
 980 009e 9389     		ldrh	r3, [r2, #12]
 981              	.LVL111:
 870:Drivers/STM32F1xx_HAL_Driver/Src/stm32f1xx_hal_flash_ex.c ****         
 982              		.loc 1 870 18 view .LVU265
 983 00a0 9BB2     		uxth	r3, r3
 984 00a2 1E43     		orrs	r6, r6, r3
 985              	.LVL112:
 870:Drivers/STM32F1xx_HAL_Driver/Src/stm32f1xx_hal_flash_ex.c ****         
 986              		.loc 1 870 18 view .LVU266
 987 00a4 9681     		strh	r6, [r2, #12]	@ movhi
 873:Drivers/STM32F1xx_HAL_Driver/Src/stm32f1xx_hal_flash_ex.c ****       }
 988              		.loc 1 873 9 is_stmt 1 view .LVU267
 873:Drivers/STM32F1xx_HAL_Driver/Src/stm32f1xx_hal_flash_ex.c ****       }
 989              		.loc 1 873 18 is_stmt 0 view .LVU268
 990 00a6 4CF25030 		movw	r0, #50000
 991 00aa FFF7FEFF 		bl	FLASH_WaitForLastOperation
 992              	.LVL113:
 993 00ae 0346     		mov	r3, r0
 994              	.LVL114:
 873:Drivers/STM32F1xx_HAL_Driver/Src/stm32f1xx_hal_flash_ex.c ****       }
 995              		.loc 1 873 18 view .LVU269
 996 00b0 D5E7     		b	.L67
 997              	.L75:
 880:Drivers/STM32F1xx_HAL_Driver/Src/stm32f1xx_hal_flash_ex.c ****         
 998              		.loc 1 880 9 is_stmt 1 view .LVU270
 880:Drivers/STM32F1xx_HAL_Driver/Src/stm32f1xx_hal_flash_ex.c ****         
 999              		.loc 1 880 18 is_stmt 0 view .LVU271
 1000 00b2 084B     		ldr	r3, .L76+12
 1001              	.LVL115:
 880:Drivers/STM32F1xx_HAL_Driver/Src/stm32f1xx_hal_flash_ex.c ****         
 1002              		.loc 1 880 18 view .LVU272
 1003 00b4 D889     		ldrh	r0, [r3, #14]
 1004 00b6 80B2     		uxth	r0, r0
 1005 00b8 2043     		orrs	r0, r0, r4
 1006 00ba D881     		strh	r0, [r3, #14]	@ movhi
 883:Drivers/STM32F1xx_HAL_Driver/Src/stm32f1xx_hal_flash_ex.c ****       }
 1007              		.loc 1 883 9 is_stmt 1 view .LVU273
 883:Drivers/STM32F1xx_HAL_Driver/Src/stm32f1xx_hal_flash_ex.c ****       }
 1008              		.loc 1 883 18 is_stmt 0 view .LVU274
 1009 00bc 4CF25030 		movw	r0, #50000
 1010 00c0 FFF7FEFF 		bl	FLASH_WaitForLastOperation
 1011              	.LVL116:
 1012 00c4 0346     		mov	r3, r0
 1013              	.LVL117:
 883:Drivers/STM32F1xx_HAL_Driver/Src/stm32f1xx_hal_flash_ex.c ****       }
 1014              		.loc 1 883 18 view .LVU275
ARM GAS  /tmp/cczNPJS6.s 			page 42


 1015 00c6 CDE7     		b	.L68
 1016              	.L77:
 1017              		.align	2
 1018              	.L76:
 1019 00c8 00000000 		.word	.LC0
 1020 00cc 00000000 		.word	pFlash
 1021 00d0 00200240 		.word	1073881088
 1022 00d4 00F8FF1F 		.word	536868864
 1023              		.cfi_endproc
 1024              	.LFE74:
 1026              		.section	.text.HAL_FLASHEx_OBProgram,"ax",%progbits
 1027              		.align	1
 1028              		.global	HAL_FLASHEx_OBProgram
 1029              		.syntax unified
 1030              		.thumb
 1031              		.thumb_func
 1032              		.fpu softvfp
 1034              	HAL_FLASHEx_OBProgram:
 1035              	.LVL118:
 1036              	.LFB69:
 463:Drivers/STM32F1xx_HAL_Driver/Src/stm32f1xx_hal_flash_ex.c ****   HAL_StatusTypeDef status = HAL_ERROR;
 1037              		.loc 1 463 1 is_stmt 1 view -0
 1038              		.cfi_startproc
 1039              		@ args = 0, pretend = 0, frame = 0
 1040              		@ frame_needed = 0, uses_anonymous_args = 0
 464:Drivers/STM32F1xx_HAL_Driver/Src/stm32f1xx_hal_flash_ex.c **** 
 1041              		.loc 1 464 3 view .LVU277
 467:Drivers/STM32F1xx_HAL_Driver/Src/stm32f1xx_hal_flash_ex.c **** 
 1042              		.loc 1 467 3 view .LVU278
 467:Drivers/STM32F1xx_HAL_Driver/Src/stm32f1xx_hal_flash_ex.c **** 
 1043              		.loc 1 467 3 view .LVU279
 1044 0000 2E4B     		ldr	r3, .L100
 1045 0002 1B7E     		ldrb	r3, [r3, #24]	@ zero_extendqisi2
 1046 0004 012B     		cmp	r3, #1
 1047 0006 56D0     		beq	.L88
 463:Drivers/STM32F1xx_HAL_Driver/Src/stm32f1xx_hal_flash_ex.c ****   HAL_StatusTypeDef status = HAL_ERROR;
 1048              		.loc 1 463 1 is_stmt 0 discriminator 2 view .LVU280
 1049 0008 10B5     		push	{r4, lr}
 1050              	.LCFI7:
 1051              		.cfi_def_cfa_offset 8
 1052              		.cfi_offset 4, -8
 1053              		.cfi_offset 14, -4
 1054 000a 0446     		mov	r4, r0
 467:Drivers/STM32F1xx_HAL_Driver/Src/stm32f1xx_hal_flash_ex.c **** 
 1055              		.loc 1 467 3 is_stmt 1 discriminator 2 view .LVU281
 1056 000c 2B4B     		ldr	r3, .L100
 1057 000e 0122     		movs	r2, #1
 1058 0010 1A76     		strb	r2, [r3, #24]
 467:Drivers/STM32F1xx_HAL_Driver/Src/stm32f1xx_hal_flash_ex.c **** 
 1059              		.loc 1 467 3 discriminator 2 view .LVU282
 470:Drivers/STM32F1xx_HAL_Driver/Src/stm32f1xx_hal_flash_ex.c **** 
 1060              		.loc 1 470 3 discriminator 2 view .LVU283
 1061 0012 0368     		ldr	r3, [r0]
 1062 0014 0F2B     		cmp	r3, #15
 1063 0016 11D8     		bhi	.L94
 1064              	.LVL119:
 1065              	.L80:
ARM GAS  /tmp/cczNPJS6.s 			page 43


 473:Drivers/STM32F1xx_HAL_Driver/Src/stm32f1xx_hal_flash_ex.c ****   {
 1066              		.loc 1 473 3 view .LVU284
 473:Drivers/STM32F1xx_HAL_Driver/Src/stm32f1xx_hal_flash_ex.c ****   {
 1067              		.loc 1 473 14 is_stmt 0 view .LVU285
 1068 0018 2368     		ldr	r3, [r4]
 473:Drivers/STM32F1xx_HAL_Driver/Src/stm32f1xx_hal_flash_ex.c ****   {
 1069              		.loc 1 473 5 view .LVU286
 1070 001a 13F0010F 		tst	r3, #1
 1071 001e 1DD0     		beq	.L89
 475:Drivers/STM32F1xx_HAL_Driver/Src/stm32f1xx_hal_flash_ex.c ****     if (pOBInit->WRPState == OB_WRPSTATE_ENABLE)
 1072              		.loc 1 475 5 is_stmt 1 view .LVU287
 1073 0020 6368     		ldr	r3, [r4, #4]
 1074 0022 012B     		cmp	r3, #1
 1075 0024 10D8     		bhi	.L95
 1076              	.L82:
 476:Drivers/STM32F1xx_HAL_Driver/Src/stm32f1xx_hal_flash_ex.c ****     {
 1077              		.loc 1 476 5 view .LVU288
 476:Drivers/STM32F1xx_HAL_Driver/Src/stm32f1xx_hal_flash_ex.c ****     {
 1078              		.loc 1 476 16 is_stmt 0 view .LVU289
 1079 0026 6368     		ldr	r3, [r4, #4]
 476:Drivers/STM32F1xx_HAL_Driver/Src/stm32f1xx_hal_flash_ex.c ****     {
 1080              		.loc 1 476 8 view .LVU290
 1081 0028 012B     		cmp	r3, #1
 1082 002a 13D0     		beq	.L96
 484:Drivers/STM32F1xx_HAL_Driver/Src/stm32f1xx_hal_flash_ex.c ****     }
 1083              		.loc 1 484 7 is_stmt 1 view .LVU291
 484:Drivers/STM32F1xx_HAL_Driver/Src/stm32f1xx_hal_flash_ex.c ****     }
 1084              		.loc 1 484 16 is_stmt 0 view .LVU292
 1085 002c A068     		ldr	r0, [r4, #8]
 1086 002e FFF7FEFF 		bl	FLASH_OB_DisableWRP
 1087              	.LVL120:
 1088              	.L84:
 486:Drivers/STM32F1xx_HAL_Driver/Src/stm32f1xx_hal_flash_ex.c ****     {
 1089              		.loc 1 486 5 is_stmt 1 view .LVU293
 486:Drivers/STM32F1xx_HAL_Driver/Src/stm32f1xx_hal_flash_ex.c ****     {
 1090              		.loc 1 486 8 is_stmt 0 view .LVU294
 1091 0032 A0B1     		cbz	r0, .L81
 489:Drivers/STM32F1xx_HAL_Driver/Src/stm32f1xx_hal_flash_ex.c ****       return status;
 1092              		.loc 1 489 7 is_stmt 1 view .LVU295
 489:Drivers/STM32F1xx_HAL_Driver/Src/stm32f1xx_hal_flash_ex.c ****       return status;
 1093              		.loc 1 489 7 view .LVU296
 1094 0034 214B     		ldr	r3, .L100
 1095 0036 0022     		movs	r2, #0
 1096 0038 1A76     		strb	r2, [r3, #24]
 489:Drivers/STM32F1xx_HAL_Driver/Src/stm32f1xx_hal_flash_ex.c ****       return status;
 1097              		.loc 1 489 7 view .LVU297
 490:Drivers/STM32F1xx_HAL_Driver/Src/stm32f1xx_hal_flash_ex.c ****     }
 1098              		.loc 1 490 7 view .LVU298
 490:Drivers/STM32F1xx_HAL_Driver/Src/stm32f1xx_hal_flash_ex.c ****     }
 1099              		.loc 1 490 14 is_stmt 0 view .LVU299
 1100 003a 1FE0     		b	.L79
 1101              	.LVL121:
 1102              	.L94:
 470:Drivers/STM32F1xx_HAL_Driver/Src/stm32f1xx_hal_flash_ex.c **** 
 1103              		.loc 1 470 3 discriminator 1 view .LVU300
 1104 003c 4FF4EB71 		mov	r1, #470
 1105 0040 1F48     		ldr	r0, .L100+4
ARM GAS  /tmp/cczNPJS6.s 			page 44


 1106              	.LVL122:
 470:Drivers/STM32F1xx_HAL_Driver/Src/stm32f1xx_hal_flash_ex.c **** 
 1107              		.loc 1 470 3 discriminator 1 view .LVU301
 1108 0042 FFF7FEFF 		bl	assert_failed
 1109              	.LVL123:
 1110 0046 E7E7     		b	.L80
 1111              	.L95:
 475:Drivers/STM32F1xx_HAL_Driver/Src/stm32f1xx_hal_flash_ex.c ****     if (pOBInit->WRPState == OB_WRPSTATE_ENABLE)
 1112              		.loc 1 475 5 discriminator 1 view .LVU302
 1113 0048 40F2DB11 		movw	r1, #475
 1114 004c 1C48     		ldr	r0, .L100+4
 1115 004e FFF7FEFF 		bl	assert_failed
 1116              	.LVL124:
 1117 0052 E8E7     		b	.L82
 1118              	.L96:
 479:Drivers/STM32F1xx_HAL_Driver/Src/stm32f1xx_hal_flash_ex.c ****     }
 1119              		.loc 1 479 7 is_stmt 1 view .LVU303
 479:Drivers/STM32F1xx_HAL_Driver/Src/stm32f1xx_hal_flash_ex.c ****     }
 1120              		.loc 1 479 16 is_stmt 0 view .LVU304
 1121 0054 A068     		ldr	r0, [r4, #8]
 1122 0056 FFF7FEFF 		bl	FLASH_OB_EnableWRP
 1123              	.LVL125:
 479:Drivers/STM32F1xx_HAL_Driver/Src/stm32f1xx_hal_flash_ex.c ****     }
 1124              		.loc 1 479 16 view .LVU305
 1125 005a EAE7     		b	.L84
 1126              	.LVL126:
 1127              	.L89:
 464:Drivers/STM32F1xx_HAL_Driver/Src/stm32f1xx_hal_flash_ex.c **** 
 1128              		.loc 1 464 21 view .LVU306
 1129 005c 0120     		movs	r0, #1
 1130              	.LVL127:
 1131              	.L81:
 495:Drivers/STM32F1xx_HAL_Driver/Src/stm32f1xx_hal_flash_ex.c ****   {
 1132              		.loc 1 495 3 is_stmt 1 view .LVU307
 495:Drivers/STM32F1xx_HAL_Driver/Src/stm32f1xx_hal_flash_ex.c ****   {
 1133              		.loc 1 495 14 is_stmt 0 view .LVU308
 1134 005e 2368     		ldr	r3, [r4]
 495:Drivers/STM32F1xx_HAL_Driver/Src/stm32f1xx_hal_flash_ex.c ****   {
 1135              		.loc 1 495 5 view .LVU309
 1136 0060 13F0020F 		tst	r3, #2
 1137 0064 0BD1     		bne	.L97
 1138              	.L85:
 507:Drivers/STM32F1xx_HAL_Driver/Src/stm32f1xx_hal_flash_ex.c ****   {
 1139              		.loc 1 507 3 is_stmt 1 view .LVU310
 507:Drivers/STM32F1xx_HAL_Driver/Src/stm32f1xx_hal_flash_ex.c ****   {
 1140              		.loc 1 507 14 is_stmt 0 view .LVU311
 1141 0066 2368     		ldr	r3, [r4]
 507:Drivers/STM32F1xx_HAL_Driver/Src/stm32f1xx_hal_flash_ex.c ****   {
 1142              		.loc 1 507 5 view .LVU312
 1143 0068 13F0040F 		tst	r3, #4
 1144 006c 10D1     		bne	.L98
 1145              	.L86:
 519:Drivers/STM32F1xx_HAL_Driver/Src/stm32f1xx_hal_flash_ex.c ****   {
 1146              		.loc 1 519 3 is_stmt 1 view .LVU313
 519:Drivers/STM32F1xx_HAL_Driver/Src/stm32f1xx_hal_flash_ex.c ****   {
 1147              		.loc 1 519 14 is_stmt 0 view .LVU314
 1148 006e 2368     		ldr	r3, [r4]
ARM GAS  /tmp/cczNPJS6.s 			page 45


 519:Drivers/STM32F1xx_HAL_Driver/Src/stm32f1xx_hal_flash_ex.c ****   {
 1149              		.loc 1 519 5 view .LVU315
 1150 0070 13F0080F 		tst	r3, #8
 1151 0074 15D1     		bne	.L99
 1152              	.L87:
 531:Drivers/STM32F1xx_HAL_Driver/Src/stm32f1xx_hal_flash_ex.c **** 
 1153              		.loc 1 531 3 is_stmt 1 view .LVU316
 531:Drivers/STM32F1xx_HAL_Driver/Src/stm32f1xx_hal_flash_ex.c **** 
 1154              		.loc 1 531 3 view .LVU317
 1155 0076 114B     		ldr	r3, .L100
 1156 0078 0022     		movs	r2, #0
 1157 007a 1A76     		strb	r2, [r3, #24]
 531:Drivers/STM32F1xx_HAL_Driver/Src/stm32f1xx_hal_flash_ex.c **** 
 1158              		.loc 1 531 3 view .LVU318
 533:Drivers/STM32F1xx_HAL_Driver/Src/stm32f1xx_hal_flash_ex.c **** }
 1159              		.loc 1 533 3 view .LVU319
 1160              	.L79:
 534:Drivers/STM32F1xx_HAL_Driver/Src/stm32f1xx_hal_flash_ex.c **** 
 1161              		.loc 1 534 1 is_stmt 0 view .LVU320
 1162 007c 10BD     		pop	{r4, pc}
 1163              	.LVL128:
 1164              	.L97:
 497:Drivers/STM32F1xx_HAL_Driver/Src/stm32f1xx_hal_flash_ex.c ****     if (status != HAL_OK)
 1165              		.loc 1 497 5 is_stmt 1 view .LVU321
 497:Drivers/STM32F1xx_HAL_Driver/Src/stm32f1xx_hal_flash_ex.c ****     if (status != HAL_OK)
 1166              		.loc 1 497 14 is_stmt 0 view .LVU322
 1167 007e 207C     		ldrb	r0, [r4, #16]	@ zero_extendqisi2
 1168              	.LVL129:
 497:Drivers/STM32F1xx_HAL_Driver/Src/stm32f1xx_hal_flash_ex.c ****     if (status != HAL_OK)
 1169              		.loc 1 497 14 view .LVU323
 1170 0080 FFF7FEFF 		bl	FLASH_OB_RDP_LevelConfig
 1171              	.LVL130:
 498:Drivers/STM32F1xx_HAL_Driver/Src/stm32f1xx_hal_flash_ex.c ****     {
 1172              		.loc 1 498 5 is_stmt 1 view .LVU324
 498:Drivers/STM32F1xx_HAL_Driver/Src/stm32f1xx_hal_flash_ex.c ****     {
 1173              		.loc 1 498 8 is_stmt 0 view .LVU325
 1174 0084 0028     		cmp	r0, #0
 1175 0086 EED0     		beq	.L85
 501:Drivers/STM32F1xx_HAL_Driver/Src/stm32f1xx_hal_flash_ex.c ****       return status;
 1176              		.loc 1 501 7 is_stmt 1 view .LVU326
 501:Drivers/STM32F1xx_HAL_Driver/Src/stm32f1xx_hal_flash_ex.c ****       return status;
 1177              		.loc 1 501 7 view .LVU327
 1178 0088 0C4B     		ldr	r3, .L100
 1179 008a 0022     		movs	r2, #0
 1180 008c 1A76     		strb	r2, [r3, #24]
 501:Drivers/STM32F1xx_HAL_Driver/Src/stm32f1xx_hal_flash_ex.c ****       return status;
 1181              		.loc 1 501 7 view .LVU328
 502:Drivers/STM32F1xx_HAL_Driver/Src/stm32f1xx_hal_flash_ex.c ****     }
 1182              		.loc 1 502 7 view .LVU329
 502:Drivers/STM32F1xx_HAL_Driver/Src/stm32f1xx_hal_flash_ex.c ****     }
 1183              		.loc 1 502 14 is_stmt 0 view .LVU330
 1184 008e F5E7     		b	.L79
 1185              	.L98:
 509:Drivers/STM32F1xx_HAL_Driver/Src/stm32f1xx_hal_flash_ex.c ****     if (status != HAL_OK)
 1186              		.loc 1 509 5 is_stmt 1 view .LVU331
 509:Drivers/STM32F1xx_HAL_Driver/Src/stm32f1xx_hal_flash_ex.c ****     if (status != HAL_OK)
 1187              		.loc 1 509 14 is_stmt 0 view .LVU332
ARM GAS  /tmp/cczNPJS6.s 			page 46


 1188 0090 607C     		ldrb	r0, [r4, #17]	@ zero_extendqisi2
 1189              	.LVL131:
 509:Drivers/STM32F1xx_HAL_Driver/Src/stm32f1xx_hal_flash_ex.c ****     if (status != HAL_OK)
 1190              		.loc 1 509 14 view .LVU333
 1191 0092 FFF7FEFF 		bl	FLASH_OB_UserConfig
 1192              	.LVL132:
 510:Drivers/STM32F1xx_HAL_Driver/Src/stm32f1xx_hal_flash_ex.c ****     {
 1193              		.loc 1 510 5 is_stmt 1 view .LVU334
 510:Drivers/STM32F1xx_HAL_Driver/Src/stm32f1xx_hal_flash_ex.c ****     {
 1194              		.loc 1 510 8 is_stmt 0 view .LVU335
 1195 0096 0028     		cmp	r0, #0
 1196 0098 E9D0     		beq	.L86
 513:Drivers/STM32F1xx_HAL_Driver/Src/stm32f1xx_hal_flash_ex.c ****       return status;
 1197              		.loc 1 513 7 is_stmt 1 view .LVU336
 513:Drivers/STM32F1xx_HAL_Driver/Src/stm32f1xx_hal_flash_ex.c ****       return status;
 1198              		.loc 1 513 7 view .LVU337
 1199 009a 084B     		ldr	r3, .L100
 1200 009c 0022     		movs	r2, #0
 1201 009e 1A76     		strb	r2, [r3, #24]
 513:Drivers/STM32F1xx_HAL_Driver/Src/stm32f1xx_hal_flash_ex.c ****       return status;
 1202              		.loc 1 513 7 view .LVU338
 514:Drivers/STM32F1xx_HAL_Driver/Src/stm32f1xx_hal_flash_ex.c ****     }
 1203              		.loc 1 514 7 view .LVU339
 514:Drivers/STM32F1xx_HAL_Driver/Src/stm32f1xx_hal_flash_ex.c ****     }
 1204              		.loc 1 514 14 is_stmt 0 view .LVU340
 1205 00a0 ECE7     		b	.L79
 1206              	.L99:
 521:Drivers/STM32F1xx_HAL_Driver/Src/stm32f1xx_hal_flash_ex.c ****     if (status != HAL_OK)
 1207              		.loc 1 521 5 is_stmt 1 view .LVU341
 521:Drivers/STM32F1xx_HAL_Driver/Src/stm32f1xx_hal_flash_ex.c ****     if (status != HAL_OK)
 1208              		.loc 1 521 14 is_stmt 0 view .LVU342
 1209 00a2 217E     		ldrb	r1, [r4, #24]	@ zero_extendqisi2
 1210 00a4 6069     		ldr	r0, [r4, #20]
 1211              	.LVL133:
 521:Drivers/STM32F1xx_HAL_Driver/Src/stm32f1xx_hal_flash_ex.c ****     if (status != HAL_OK)
 1212              		.loc 1 521 14 view .LVU343
 1213 00a6 FFF7FEFF 		bl	FLASH_OB_ProgramData
 1214              	.LVL134:
 522:Drivers/STM32F1xx_HAL_Driver/Src/stm32f1xx_hal_flash_ex.c ****     {
 1215              		.loc 1 522 5 is_stmt 1 view .LVU344
 522:Drivers/STM32F1xx_HAL_Driver/Src/stm32f1xx_hal_flash_ex.c ****     {
 1216              		.loc 1 522 8 is_stmt 0 view .LVU345
 1217 00aa 0028     		cmp	r0, #0
 1218 00ac E3D0     		beq	.L87
 525:Drivers/STM32F1xx_HAL_Driver/Src/stm32f1xx_hal_flash_ex.c ****       return status;
 1219              		.loc 1 525 7 is_stmt 1 view .LVU346
 525:Drivers/STM32F1xx_HAL_Driver/Src/stm32f1xx_hal_flash_ex.c ****       return status;
 1220              		.loc 1 525 7 view .LVU347
 1221 00ae 034B     		ldr	r3, .L100
 1222 00b0 0022     		movs	r2, #0
 1223 00b2 1A76     		strb	r2, [r3, #24]
 525:Drivers/STM32F1xx_HAL_Driver/Src/stm32f1xx_hal_flash_ex.c ****       return status;
 1224              		.loc 1 525 7 view .LVU348
 526:Drivers/STM32F1xx_HAL_Driver/Src/stm32f1xx_hal_flash_ex.c ****     }
 1225              		.loc 1 526 7 view .LVU349
 526:Drivers/STM32F1xx_HAL_Driver/Src/stm32f1xx_hal_flash_ex.c ****     }
 1226              		.loc 1 526 14 is_stmt 0 view .LVU350
ARM GAS  /tmp/cczNPJS6.s 			page 47


 1227 00b4 E2E7     		b	.L79
 1228              	.LVL135:
 1229              	.L88:
 1230              	.LCFI8:
 1231              		.cfi_def_cfa_offset 0
 1232              		.cfi_restore 4
 1233              		.cfi_restore 14
 467:Drivers/STM32F1xx_HAL_Driver/Src/stm32f1xx_hal_flash_ex.c **** 
 1234              		.loc 1 467 3 view .LVU351
 1235 00b6 0220     		movs	r0, #2
 1236              	.LVL136:
 534:Drivers/STM32F1xx_HAL_Driver/Src/stm32f1xx_hal_flash_ex.c **** 
 1237              		.loc 1 534 1 view .LVU352
 1238 00b8 7047     		bx	lr
 1239              	.L101:
 1240 00ba 00BF     		.align	2
 1241              	.L100:
 1242 00bc 00000000 		.word	pFlash
 1243 00c0 00000000 		.word	.LC0
 1244              		.cfi_endproc
 1245              	.LFE69:
 1247              		.section	.text.HAL_FLASHEx_OBGetConfig,"ax",%progbits
 1248              		.align	1
 1249              		.global	HAL_FLASHEx_OBGetConfig
 1250              		.syntax unified
 1251              		.thumb
 1252              		.thumb_func
 1253              		.fpu softvfp
 1255              	HAL_FLASHEx_OBGetConfig:
 1256              	.LVL137:
 1257              	.LFB70:
 544:Drivers/STM32F1xx_HAL_Driver/Src/stm32f1xx_hal_flash_ex.c ****   pOBInit->OptionType = OPTIONBYTE_WRP | OPTIONBYTE_RDP | OPTIONBYTE_USER;
 1258              		.loc 1 544 1 is_stmt 1 view -0
 1259              		.cfi_startproc
 1260              		@ args = 0, pretend = 0, frame = 0
 1261              		@ frame_needed = 0, uses_anonymous_args = 0
 544:Drivers/STM32F1xx_HAL_Driver/Src/stm32f1xx_hal_flash_ex.c ****   pOBInit->OptionType = OPTIONBYTE_WRP | OPTIONBYTE_RDP | OPTIONBYTE_USER;
 1262              		.loc 1 544 1 is_stmt 0 view .LVU354
 1263 0000 10B5     		push	{r4, lr}
 1264              	.LCFI9:
 1265              		.cfi_def_cfa_offset 8
 1266              		.cfi_offset 4, -8
 1267              		.cfi_offset 14, -4
 1268 0002 0446     		mov	r4, r0
 545:Drivers/STM32F1xx_HAL_Driver/Src/stm32f1xx_hal_flash_ex.c **** 
 1269              		.loc 1 545 3 is_stmt 1 view .LVU355
 545:Drivers/STM32F1xx_HAL_Driver/Src/stm32f1xx_hal_flash_ex.c **** 
 1270              		.loc 1 545 23 is_stmt 0 view .LVU356
 1271 0004 0723     		movs	r3, #7
 1272 0006 0360     		str	r3, [r0]
 548:Drivers/STM32F1xx_HAL_Driver/Src/stm32f1xx_hal_flash_ex.c **** 
 1273              		.loc 1 548 3 is_stmt 1 view .LVU357
 548:Drivers/STM32F1xx_HAL_Driver/Src/stm32f1xx_hal_flash_ex.c **** 
 1274              		.loc 1 548 22 is_stmt 0 view .LVU358
 1275 0008 FFF7FEFF 		bl	FLASH_OB_GetWRP
 1276              	.LVL138:
 548:Drivers/STM32F1xx_HAL_Driver/Src/stm32f1xx_hal_flash_ex.c **** 
ARM GAS  /tmp/cczNPJS6.s 			page 48


 1277              		.loc 1 548 20 view .LVU359
 1278 000c A060     		str	r0, [r4, #8]
 551:Drivers/STM32F1xx_HAL_Driver/Src/stm32f1xx_hal_flash_ex.c **** 
 1279              		.loc 1 551 3 is_stmt 1 view .LVU360
 551:Drivers/STM32F1xx_HAL_Driver/Src/stm32f1xx_hal_flash_ex.c **** 
 1280              		.loc 1 551 23 is_stmt 0 view .LVU361
 1281 000e FFF7FEFF 		bl	FLASH_OB_GetRDP
 1282              	.LVL139:
 551:Drivers/STM32F1xx_HAL_Driver/Src/stm32f1xx_hal_flash_ex.c **** 
 1283              		.loc 1 551 21 view .LVU362
 1284 0012 2074     		strb	r0, [r4, #16]
 554:Drivers/STM32F1xx_HAL_Driver/Src/stm32f1xx_hal_flash_ex.c **** }
 1285              		.loc 1 554 3 is_stmt 1 view .LVU363
 554:Drivers/STM32F1xx_HAL_Driver/Src/stm32f1xx_hal_flash_ex.c **** }
 1286              		.loc 1 554 25 is_stmt 0 view .LVU364
 1287 0014 FFF7FEFF 		bl	FLASH_OB_GetUser
 1288              	.LVL140:
 554:Drivers/STM32F1xx_HAL_Driver/Src/stm32f1xx_hal_flash_ex.c **** }
 1289              		.loc 1 554 23 view .LVU365
 1290 0018 6074     		strb	r0, [r4, #17]
 555:Drivers/STM32F1xx_HAL_Driver/Src/stm32f1xx_hal_flash_ex.c **** 
 1291              		.loc 1 555 1 view .LVU366
 1292 001a 10BD     		pop	{r4, pc}
 555:Drivers/STM32F1xx_HAL_Driver/Src/stm32f1xx_hal_flash_ex.c **** 
 1293              		.loc 1 555 1 view .LVU367
 1294              		.cfi_endproc
 1295              	.LFE70:
 1297              		.section	.text.HAL_FLASHEx_OBGetUserData,"ax",%progbits
 1298              		.align	1
 1299              		.global	HAL_FLASHEx_OBGetUserData
 1300              		.syntax unified
 1301              		.thumb
 1302              		.thumb_func
 1303              		.fpu softvfp
 1305              	HAL_FLASHEx_OBGetUserData:
 1306              	.LVL141:
 1307              	.LFB71:
 566:Drivers/STM32F1xx_HAL_Driver/Src/stm32f1xx_hal_flash_ex.c ****   uint32_t value = 0;
 1308              		.loc 1 566 1 is_stmt 1 view -0
 1309              		.cfi_startproc
 1310              		@ args = 0, pretend = 0, frame = 0
 1311              		@ frame_needed = 0, uses_anonymous_args = 0
 1312              		@ link register save eliminated.
 567:Drivers/STM32F1xx_HAL_Driver/Src/stm32f1xx_hal_flash_ex.c ****   
 1313              		.loc 1 567 3 view .LVU369
 569:Drivers/STM32F1xx_HAL_Driver/Src/stm32f1xx_hal_flash_ex.c ****   {
 1314              		.loc 1 569 3 view .LVU370
 569:Drivers/STM32F1xx_HAL_Driver/Src/stm32f1xx_hal_flash_ex.c ****   {
 1315              		.loc 1 569 6 is_stmt 0 view .LVU371
 1316 0000 064B     		ldr	r3, .L108
 1317 0002 9842     		cmp	r0, r3
 1318 0004 04D0     		beq	.L107
 577:Drivers/STM32F1xx_HAL_Driver/Src/stm32f1xx_hal_flash_ex.c ****   }
 1319              		.loc 1 577 5 is_stmt 1 view .LVU372
 577:Drivers/STM32F1xx_HAL_Driver/Src/stm32f1xx_hal_flash_ex.c ****   }
 1320              		.loc 1 577 13 is_stmt 0 view .LVU373
 1321 0006 064B     		ldr	r3, .L108+4
ARM GAS  /tmp/cczNPJS6.s 			page 49


 1322 0008 D869     		ldr	r0, [r3, #28]
 1323              	.LVL142:
 577:Drivers/STM32F1xx_HAL_Driver/Src/stm32f1xx_hal_flash_ex.c ****   }
 1324              		.loc 1 577 11 view .LVU374
 1325 000a C0F38740 		ubfx	r0, r0, #18, #8
 1326              	.LVL143:
 580:Drivers/STM32F1xx_HAL_Driver/Src/stm32f1xx_hal_flash_ex.c **** }
 1327              		.loc 1 580 3 is_stmt 1 view .LVU375
 581:Drivers/STM32F1xx_HAL_Driver/Src/stm32f1xx_hal_flash_ex.c **** 
 1328              		.loc 1 581 1 is_stmt 0 view .LVU376
 1329 000e 7047     		bx	lr
 1330              	.LVL144:
 1331              	.L107:
 572:Drivers/STM32F1xx_HAL_Driver/Src/stm32f1xx_hal_flash_ex.c ****   }
 1332              		.loc 1 572 5 is_stmt 1 view .LVU377
 572:Drivers/STM32F1xx_HAL_Driver/Src/stm32f1xx_hal_flash_ex.c ****   }
 1333              		.loc 1 572 13 is_stmt 0 view .LVU378
 1334 0010 034B     		ldr	r3, .L108+4
 1335 0012 D869     		ldr	r0, [r3, #28]
 1336              	.LVL145:
 572:Drivers/STM32F1xx_HAL_Driver/Src/stm32f1xx_hal_flash_ex.c ****   }
 1337              		.loc 1 572 11 view .LVU379
 1338 0014 C0F38720 		ubfx	r0, r0, #10, #8
 1339              	.LVL146:
 572:Drivers/STM32F1xx_HAL_Driver/Src/stm32f1xx_hal_flash_ex.c ****   }
 1340              		.loc 1 572 11 view .LVU380
 1341 0018 7047     		bx	lr
 1342              	.L109:
 1343 001a 00BF     		.align	2
 1344              	.L108:
 1345 001c 04F8FF1F 		.word	536868868
 1346 0020 00200240 		.word	1073881088
 1347              		.cfi_endproc
 1348              	.LFE71:
 1350              		.section	.text.FLASH_PageErase,"ax",%progbits
 1351              		.align	1
 1352              		.global	FLASH_PageErase
 1353              		.syntax unified
 1354              		.thumb
 1355              		.thumb_func
 1356              		.fpu softvfp
 1358              	FLASH_PageErase:
 1359              	.LVL147:
 1360              	.LFB81:
1081:Drivers/STM32F1xx_HAL_Driver/Src/stm32f1xx_hal_flash_ex.c **** 
1082:Drivers/STM32F1xx_HAL_Driver/Src/stm32f1xx_hal_flash_ex.c **** /**
1083:Drivers/STM32F1xx_HAL_Driver/Src/stm32f1xx_hal_flash_ex.c ****   * @}
1084:Drivers/STM32F1xx_HAL_Driver/Src/stm32f1xx_hal_flash_ex.c ****   */
1085:Drivers/STM32F1xx_HAL_Driver/Src/stm32f1xx_hal_flash_ex.c **** 
1086:Drivers/STM32F1xx_HAL_Driver/Src/stm32f1xx_hal_flash_ex.c **** /**
1087:Drivers/STM32F1xx_HAL_Driver/Src/stm32f1xx_hal_flash_ex.c ****   * @}
1088:Drivers/STM32F1xx_HAL_Driver/Src/stm32f1xx_hal_flash_ex.c ****   */
1089:Drivers/STM32F1xx_HAL_Driver/Src/stm32f1xx_hal_flash_ex.c **** 
1090:Drivers/STM32F1xx_HAL_Driver/Src/stm32f1xx_hal_flash_ex.c **** /** @addtogroup FLASH
1091:Drivers/STM32F1xx_HAL_Driver/Src/stm32f1xx_hal_flash_ex.c ****   * @{
1092:Drivers/STM32F1xx_HAL_Driver/Src/stm32f1xx_hal_flash_ex.c ****   */
1093:Drivers/STM32F1xx_HAL_Driver/Src/stm32f1xx_hal_flash_ex.c **** 
ARM GAS  /tmp/cczNPJS6.s 			page 50


1094:Drivers/STM32F1xx_HAL_Driver/Src/stm32f1xx_hal_flash_ex.c **** /** @addtogroup FLASH_Private_Functions
1095:Drivers/STM32F1xx_HAL_Driver/Src/stm32f1xx_hal_flash_ex.c ****  * @{
1096:Drivers/STM32F1xx_HAL_Driver/Src/stm32f1xx_hal_flash_ex.c ****  */
1097:Drivers/STM32F1xx_HAL_Driver/Src/stm32f1xx_hal_flash_ex.c **** 
1098:Drivers/STM32F1xx_HAL_Driver/Src/stm32f1xx_hal_flash_ex.c **** /**
1099:Drivers/STM32F1xx_HAL_Driver/Src/stm32f1xx_hal_flash_ex.c ****   * @brief  Erase the specified FLASH memory page
1100:Drivers/STM32F1xx_HAL_Driver/Src/stm32f1xx_hal_flash_ex.c ****   * @param  PageAddress FLASH page to erase
1101:Drivers/STM32F1xx_HAL_Driver/Src/stm32f1xx_hal_flash_ex.c ****   *         The value of this parameter depend on device used within the same series      
1102:Drivers/STM32F1xx_HAL_Driver/Src/stm32f1xx_hal_flash_ex.c ****   * 
1103:Drivers/STM32F1xx_HAL_Driver/Src/stm32f1xx_hal_flash_ex.c ****   * @retval None
1104:Drivers/STM32F1xx_HAL_Driver/Src/stm32f1xx_hal_flash_ex.c ****   */
1105:Drivers/STM32F1xx_HAL_Driver/Src/stm32f1xx_hal_flash_ex.c **** void FLASH_PageErase(uint32_t PageAddress)
1106:Drivers/STM32F1xx_HAL_Driver/Src/stm32f1xx_hal_flash_ex.c **** {
 1361              		.loc 1 1106 1 is_stmt 1 view -0
 1362              		.cfi_startproc
 1363              		@ args = 0, pretend = 0, frame = 0
 1364              		@ frame_needed = 0, uses_anonymous_args = 0
 1365              		@ link register save eliminated.
1107:Drivers/STM32F1xx_HAL_Driver/Src/stm32f1xx_hal_flash_ex.c ****   /* Clean the error context */
1108:Drivers/STM32F1xx_HAL_Driver/Src/stm32f1xx_hal_flash_ex.c ****   pFlash.ErrorCode = HAL_FLASH_ERROR_NONE;
 1366              		.loc 1 1108 3 view .LVU382
 1367              		.loc 1 1108 20 is_stmt 0 view .LVU383
 1368 0000 064B     		ldr	r3, .L111
 1369 0002 0022     		movs	r2, #0
 1370 0004 DA61     		str	r2, [r3, #28]
1109:Drivers/STM32F1xx_HAL_Driver/Src/stm32f1xx_hal_flash_ex.c **** 
1110:Drivers/STM32F1xx_HAL_Driver/Src/stm32f1xx_hal_flash_ex.c **** #if defined(FLASH_BANK2_END)
1111:Drivers/STM32F1xx_HAL_Driver/Src/stm32f1xx_hal_flash_ex.c ****   if(PageAddress > FLASH_BANK1_END)
1112:Drivers/STM32F1xx_HAL_Driver/Src/stm32f1xx_hal_flash_ex.c ****   { 
1113:Drivers/STM32F1xx_HAL_Driver/Src/stm32f1xx_hal_flash_ex.c ****     /* Proceed to erase the page */
1114:Drivers/STM32F1xx_HAL_Driver/Src/stm32f1xx_hal_flash_ex.c ****     SET_BIT(FLASH->CR2, FLASH_CR2_PER);
1115:Drivers/STM32F1xx_HAL_Driver/Src/stm32f1xx_hal_flash_ex.c ****     WRITE_REG(FLASH->AR2, PageAddress);
1116:Drivers/STM32F1xx_HAL_Driver/Src/stm32f1xx_hal_flash_ex.c ****     SET_BIT(FLASH->CR2, FLASH_CR2_STRT);
1117:Drivers/STM32F1xx_HAL_Driver/Src/stm32f1xx_hal_flash_ex.c ****   }
1118:Drivers/STM32F1xx_HAL_Driver/Src/stm32f1xx_hal_flash_ex.c ****   else
1119:Drivers/STM32F1xx_HAL_Driver/Src/stm32f1xx_hal_flash_ex.c ****   {
1120:Drivers/STM32F1xx_HAL_Driver/Src/stm32f1xx_hal_flash_ex.c **** #endif /* FLASH_BANK2_END */
1121:Drivers/STM32F1xx_HAL_Driver/Src/stm32f1xx_hal_flash_ex.c ****     /* Proceed to erase the page */
1122:Drivers/STM32F1xx_HAL_Driver/Src/stm32f1xx_hal_flash_ex.c ****     SET_BIT(FLASH->CR, FLASH_CR_PER);
 1371              		.loc 1 1122 5 is_stmt 1 view .LVU384
 1372 0006 064B     		ldr	r3, .L111+4
 1373 0008 1A69     		ldr	r2, [r3, #16]
 1374 000a 42F00202 		orr	r2, r2, #2
 1375 000e 1A61     		str	r2, [r3, #16]
1123:Drivers/STM32F1xx_HAL_Driver/Src/stm32f1xx_hal_flash_ex.c ****     WRITE_REG(FLASH->AR, PageAddress);
 1376              		.loc 1 1123 5 view .LVU385
 1377 0010 5861     		str	r0, [r3, #20]
1124:Drivers/STM32F1xx_HAL_Driver/Src/stm32f1xx_hal_flash_ex.c ****     SET_BIT(FLASH->CR, FLASH_CR_STRT);
 1378              		.loc 1 1124 5 view .LVU386
 1379 0012 1A69     		ldr	r2, [r3, #16]
 1380 0014 42F04002 		orr	r2, r2, #64
 1381 0018 1A61     		str	r2, [r3, #16]
1125:Drivers/STM32F1xx_HAL_Driver/Src/stm32f1xx_hal_flash_ex.c **** #if defined(FLASH_BANK2_END)
1126:Drivers/STM32F1xx_HAL_Driver/Src/stm32f1xx_hal_flash_ex.c ****   }
1127:Drivers/STM32F1xx_HAL_Driver/Src/stm32f1xx_hal_flash_ex.c **** #endif /* FLASH_BANK2_END */
1128:Drivers/STM32F1xx_HAL_Driver/Src/stm32f1xx_hal_flash_ex.c **** }
 1382              		.loc 1 1128 1 is_stmt 0 view .LVU387
ARM GAS  /tmp/cczNPJS6.s 			page 51


 1383 001a 7047     		bx	lr
 1384              	.L112:
 1385              		.align	2
 1386              	.L111:
 1387 001c 00000000 		.word	pFlash
 1388 0020 00200240 		.word	1073881088
 1389              		.cfi_endproc
 1390              	.LFE81:
 1392              		.section	.text.HAL_FLASHEx_Erase,"ax",%progbits
 1393              		.align	1
 1394              		.global	HAL_FLASHEx_Erase
 1395              		.syntax unified
 1396              		.thumb
 1397              		.thumb_func
 1398              		.fpu softvfp
 1400              	HAL_FLASHEx_Erase:
 1401              	.LVL148:
 1402              	.LFB66:
 176:Drivers/STM32F1xx_HAL_Driver/Src/stm32f1xx_hal_flash_ex.c ****   HAL_StatusTypeDef status = HAL_ERROR;
 1403              		.loc 1 176 1 is_stmt 1 view -0
 1404              		.cfi_startproc
 1405              		@ args = 0, pretend = 0, frame = 0
 1406              		@ frame_needed = 0, uses_anonymous_args = 0
 177:Drivers/STM32F1xx_HAL_Driver/Src/stm32f1xx_hal_flash_ex.c ****   uint32_t address = 0U;
 1407              		.loc 1 177 3 view .LVU389
 178:Drivers/STM32F1xx_HAL_Driver/Src/stm32f1xx_hal_flash_ex.c **** 
 1408              		.loc 1 178 3 view .LVU390
 181:Drivers/STM32F1xx_HAL_Driver/Src/stm32f1xx_hal_flash_ex.c **** 
 1409              		.loc 1 181 3 view .LVU391
 181:Drivers/STM32F1xx_HAL_Driver/Src/stm32f1xx_hal_flash_ex.c **** 
 1410              		.loc 1 181 3 view .LVU392
 1411 0000 584B     		ldr	r3, .L149
 1412 0002 1B7E     		ldrb	r3, [r3, #24]	@ zero_extendqisi2
 1413 0004 012B     		cmp	r3, #1
 1414 0006 00F0AA80 		beq	.L131
 176:Drivers/STM32F1xx_HAL_Driver/Src/stm32f1xx_hal_flash_ex.c ****   HAL_StatusTypeDef status = HAL_ERROR;
 1415              		.loc 1 176 1 is_stmt 0 discriminator 2 view .LVU393
 1416 000a 70B5     		push	{r4, r5, r6, lr}
 1417              	.LCFI10:
 1418              		.cfi_def_cfa_offset 16
 1419              		.cfi_offset 4, -16
 1420              		.cfi_offset 5, -12
 1421              		.cfi_offset 6, -8
 1422              		.cfi_offset 14, -4
 1423 000c 0446     		mov	r4, r0
 1424 000e 0E46     		mov	r6, r1
 181:Drivers/STM32F1xx_HAL_Driver/Src/stm32f1xx_hal_flash_ex.c **** 
 1425              		.loc 1 181 3 is_stmt 1 discriminator 2 view .LVU394
 1426 0010 544B     		ldr	r3, .L149
 1427 0012 0122     		movs	r2, #1
 1428 0014 1A76     		strb	r2, [r3, #24]
 181:Drivers/STM32F1xx_HAL_Driver/Src/stm32f1xx_hal_flash_ex.c **** 
 1429              		.loc 1 181 3 discriminator 2 view .LVU395
 184:Drivers/STM32F1xx_HAL_Driver/Src/stm32f1xx_hal_flash_ex.c **** 
 1430              		.loc 1 184 3 discriminator 2 view .LVU396
 1431 0016 0368     		ldr	r3, [r0]
 1432 0018 0BB1     		cbz	r3, .L115
ARM GAS  /tmp/cczNPJS6.s 			page 52


 184:Drivers/STM32F1xx_HAL_Driver/Src/stm32f1xx_hal_flash_ex.c **** 
 1433              		.loc 1 184 3 is_stmt 0 discriminator 1 view .LVU397
 1434 001a 022B     		cmp	r3, #2
 1435 001c 12D1     		bne	.L138
 1436              	.LVL149:
 1437              	.L115:
 186:Drivers/STM32F1xx_HAL_Driver/Src/stm32f1xx_hal_flash_ex.c ****   {
 1438              		.loc 1 186 3 is_stmt 1 view .LVU398
 186:Drivers/STM32F1xx_HAL_Driver/Src/stm32f1xx_hal_flash_ex.c ****   {
 1439              		.loc 1 186 17 is_stmt 0 view .LVU399
 1440 001e 2368     		ldr	r3, [r4]
 186:Drivers/STM32F1xx_HAL_Driver/Src/stm32f1xx_hal_flash_ex.c ****   {
 1441              		.loc 1 186 6 view .LVU400
 1442 0020 022B     		cmp	r3, #2
 1443 0022 14D0     		beq	.L139
 249:Drivers/STM32F1xx_HAL_Driver/Src/stm32f1xx_hal_flash_ex.c ****     assert_param(IS_FLASH_NB_PAGES(pEraseInit->PageAddress, pEraseInit->NbPages));
 1444              		.loc 1 249 5 is_stmt 1 view .LVU401
 1445 0024 A368     		ldr	r3, [r4, #8]
 1446 0026 B3F1006F 		cmp	r3, #134217728
 1447 002a 28D3     		bcc	.L118
 249:Drivers/STM32F1xx_HAL_Driver/Src/stm32f1xx_hal_flash_ex.c ****     assert_param(IS_FLASH_NB_PAGES(pEraseInit->PageAddress, pEraseInit->NbPages));
 1448              		.loc 1 249 5 is_stmt 0 discriminator 2 view .LVU402
 1449 002c 4E4A     		ldr	r2, .L149+4
 1450 002e 1288     		ldrh	r2, [r2]
 1451 0030 802A     		cmp	r2, #128
 1452 0032 21D0     		beq	.L140
 249:Drivers/STM32F1xx_HAL_Driver/Src/stm32f1xx_hal_flash_ex.c ****     assert_param(IS_FLASH_NB_PAGES(pEraseInit->PageAddress, pEraseInit->NbPages));
 1453              		.loc 1 249 5 discriminator 4 view .LVU403
 1454 0034 402A     		cmp	r2, #64
 1455 0036 39D0     		beq	.L141
 249:Drivers/STM32F1xx_HAL_Driver/Src/stm32f1xx_hal_flash_ex.c ****     assert_param(IS_FLASH_NB_PAGES(pEraseInit->PageAddress, pEraseInit->NbPages));
 1456              		.loc 1 249 5 discriminator 7 view .LVU404
 1457 0038 202A     		cmp	r2, #32
 1458 003a 3BD0     		beq	.L142
 249:Drivers/STM32F1xx_HAL_Driver/Src/stm32f1xx_hal_flash_ex.c ****     assert_param(IS_FLASH_NB_PAGES(pEraseInit->PageAddress, pEraseInit->NbPages));
 1459              		.loc 1 249 5 discriminator 10 view .LVU405
 1460 003c 4B4A     		ldr	r2, .L149+8
 1461 003e 9342     		cmp	r3, r2
 1462 0040 21D3     		bcc	.L120
 1463 0042 1CE0     		b	.L118
 1464              	.LVL150:
 1465              	.L138:
 184:Drivers/STM32F1xx_HAL_Driver/Src/stm32f1xx_hal_flash_ex.c **** 
 1466              		.loc 1 184 3 discriminator 2 view .LVU406
 1467 0044 B821     		movs	r1, #184
 1468              	.LVL151:
 184:Drivers/STM32F1xx_HAL_Driver/Src/stm32f1xx_hal_flash_ex.c **** 
 1469              		.loc 1 184 3 discriminator 2 view .LVU407
 1470 0046 4A48     		ldr	r0, .L149+12
 1471              	.LVL152:
 184:Drivers/STM32F1xx_HAL_Driver/Src/stm32f1xx_hal_flash_ex.c **** 
 1472              		.loc 1 184 3 discriminator 2 view .LVU408
 1473 0048 FFF7FEFF 		bl	assert_failed
 1474              	.LVL153:
 1475 004c E7E7     		b	.L115
 1476              	.L139:
 232:Drivers/STM32F1xx_HAL_Driver/Src/stm32f1xx_hal_flash_ex.c ****       {
ARM GAS  /tmp/cczNPJS6.s 			page 53


 1477              		.loc 1 232 7 is_stmt 1 view .LVU409
 232:Drivers/STM32F1xx_HAL_Driver/Src/stm32f1xx_hal_flash_ex.c ****       {
 1478              		.loc 1 232 11 is_stmt 0 view .LVU410
 1479 004e 4CF25030 		movw	r0, #50000
 1480 0052 FFF7FEFF 		bl	FLASH_WaitForLastOperation
 1481              	.LVL154:
 232:Drivers/STM32F1xx_HAL_Driver/Src/stm32f1xx_hal_flash_ex.c ****       {
 1482              		.loc 1 232 10 view .LVU411
 1483 0056 08B1     		cbz	r0, .L143
 177:Drivers/STM32F1xx_HAL_Driver/Src/stm32f1xx_hal_flash_ex.c ****   uint32_t address = 0U;
 1484              		.loc 1 177 21 view .LVU412
 1485 0058 0121     		movs	r1, #1
 1486 005a 7BE0     		b	.L117
 1487              	.L143:
 235:Drivers/STM32F1xx_HAL_Driver/Src/stm32f1xx_hal_flash_ex.c ****         
 1488              		.loc 1 235 9 is_stmt 1 view .LVU413
 1489 005c 0120     		movs	r0, #1
 1490 005e FFF7FEFF 		bl	FLASH_MassErase
 1491              	.LVL155:
 238:Drivers/STM32F1xx_HAL_Driver/Src/stm32f1xx_hal_flash_ex.c ****         
 1492              		.loc 1 238 9 view .LVU414
 238:Drivers/STM32F1xx_HAL_Driver/Src/stm32f1xx_hal_flash_ex.c ****         
 1493              		.loc 1 238 18 is_stmt 0 view .LVU415
 1494 0062 4CF25030 		movw	r0, #50000
 1495 0066 FFF7FEFF 		bl	FLASH_WaitForLastOperation
 1496              	.LVL156:
 1497 006a 0146     		mov	r1, r0
 1498              	.LVL157:
 241:Drivers/STM32F1xx_HAL_Driver/Src/stm32f1xx_hal_flash_ex.c ****       }
 1499              		.loc 1 241 9 is_stmt 1 view .LVU416
 1500 006c 414A     		ldr	r2, .L149+16
 1501 006e 1369     		ldr	r3, [r2, #16]
 1502 0070 23F00403 		bic	r3, r3, #4
 1503 0074 1361     		str	r3, [r2, #16]
 1504 0076 6DE0     		b	.L117
 1505              	.LVL158:
 1506              	.L140:
 249:Drivers/STM32F1xx_HAL_Driver/Src/stm32f1xx_hal_flash_ex.c ****     assert_param(IS_FLASH_NB_PAGES(pEraseInit->PageAddress, pEraseInit->NbPages));
 1507              		.loc 1 249 5 is_stmt 0 discriminator 3 view .LVU417
 1508 0078 3F4A     		ldr	r2, .L149+20
 1509 007a 9342     		cmp	r3, r2
 1510 007c 03D9     		bls	.L120
 1511              	.L118:
 249:Drivers/STM32F1xx_HAL_Driver/Src/stm32f1xx_hal_flash_ex.c ****     assert_param(IS_FLASH_NB_PAGES(pEraseInit->PageAddress, pEraseInit->NbPages));
 1512              		.loc 1 249 5 discriminator 12 view .LVU418
 1513 007e F921     		movs	r1, #249
 1514 0080 3B48     		ldr	r0, .L149+12
 1515 0082 FFF7FEFF 		bl	assert_failed
 1516              	.LVL159:
 1517              	.L120:
 250:Drivers/STM32F1xx_HAL_Driver/Src/stm32f1xx_hal_flash_ex.c ****     
 1518              		.loc 1 250 5 is_stmt 1 view .LVU419
 1519 0086 384B     		ldr	r3, .L149+4
 1520 0088 1B88     		ldrh	r3, [r3]
 1521 008a 802B     		cmp	r3, #128
 1522 008c 16D0     		beq	.L144
 250:Drivers/STM32F1xx_HAL_Driver/Src/stm32f1xx_hal_flash_ex.c ****     
ARM GAS  /tmp/cczNPJS6.s 			page 54


 1523              		.loc 1 250 5 is_stmt 0 discriminator 2 view .LVU420
 1524 008e 402B     		cmp	r3, #64
 1525 0090 42D0     		beq	.L145
 250:Drivers/STM32F1xx_HAL_Driver/Src/stm32f1xx_hal_flash_ex.c ****     
 1526              		.loc 1 250 5 discriminator 5 view .LVU421
 1527 0092 202B     		cmp	r3, #32
 1528 0094 4BD0     		beq	.L146
 250:Drivers/STM32F1xx_HAL_Driver/Src/stm32f1xx_hal_flash_ex.c ****     
 1529              		.loc 1 250 5 discriminator 8 view .LVU422
 1530 0096 A368     		ldr	r3, [r4, #8]
 1531 0098 E268     		ldr	r2, [r4, #12]
 1532 009a 03EB8223 		add	r3, r3, r2, lsl #10
 1533 009e 013B     		subs	r3, r3, #1
 1534 00a0 324A     		ldr	r2, .L149+8
 1535 00a2 9342     		cmp	r3, r2
 1536 00a4 2CBF     		ite	cs
 1537 00a6 0023     		movcs	r3, #0
 1538 00a8 0123     		movcc	r3, #1
 1539 00aa 11E0     		b	.L124
 1540              	.L141:
 249:Drivers/STM32F1xx_HAL_Driver/Src/stm32f1xx_hal_flash_ex.c ****     assert_param(IS_FLASH_NB_PAGES(pEraseInit->PageAddress, pEraseInit->NbPages));
 1541              		.loc 1 249 5 discriminator 6 view .LVU423
 1542 00ac 334A     		ldr	r2, .L149+24
 1543 00ae 9342     		cmp	r3, r2
 1544 00b0 E5D8     		bhi	.L118
 1545 00b2 E8E7     		b	.L120
 1546              	.L142:
 249:Drivers/STM32F1xx_HAL_Driver/Src/stm32f1xx_hal_flash_ex.c ****     assert_param(IS_FLASH_NB_PAGES(pEraseInit->PageAddress, pEraseInit->NbPages));
 1547              		.loc 1 249 5 discriminator 9 view .LVU424
 1548 00b4 324A     		ldr	r2, .L149+28
 1549 00b6 9342     		cmp	r3, r2
 1550 00b8 E1D2     		bcs	.L118
 1551 00ba E4E7     		b	.L120
 1552              	.L144:
 250:Drivers/STM32F1xx_HAL_Driver/Src/stm32f1xx_hal_flash_ex.c ****     
 1553              		.loc 1 250 5 discriminator 1 view .LVU425
 1554 00bc A368     		ldr	r3, [r4, #8]
 1555 00be E268     		ldr	r2, [r4, #12]
 1556 00c0 03EB8223 		add	r3, r3, r2, lsl #10
 1557 00c4 013B     		subs	r3, r3, #1
 1558 00c6 2C4A     		ldr	r2, .L149+20
 1559 00c8 9342     		cmp	r3, r2
 1560 00ca 8CBF     		ite	hi
 1561 00cc 0023     		movhi	r3, #0
 1562 00ce 0123     		movls	r3, #1
 1563              	.L124:
 250:Drivers/STM32F1xx_HAL_Driver/Src/stm32f1xx_hal_flash_ex.c ****     
 1564              		.loc 1 250 5 discriminator 12 view .LVU426
 1565 00d0 002B     		cmp	r3, #0
 1566 00d2 37D0     		beq	.L147
 1567              	.L127:
 289:Drivers/STM32F1xx_HAL_Driver/Src/stm32f1xx_hal_flash_ex.c ****       {
 1568              		.loc 1 289 7 is_stmt 1 view .LVU427
 289:Drivers/STM32F1xx_HAL_Driver/Src/stm32f1xx_hal_flash_ex.c ****       {
 1569              		.loc 1 289 11 is_stmt 0 view .LVU428
 1570 00d4 4CF25030 		movw	r0, #50000
 1571 00d8 FFF7FEFF 		bl	FLASH_WaitForLastOperation
ARM GAS  /tmp/cczNPJS6.s 			page 55


 1572              	.LVL160:
 289:Drivers/STM32F1xx_HAL_Driver/Src/stm32f1xx_hal_flash_ex.c ****       {
 1573              		.loc 1 289 10 view .LVU429
 1574 00dc 0028     		cmp	r0, #0
 1575 00de 38D1     		bne	.L133
 292:Drivers/STM32F1xx_HAL_Driver/Src/stm32f1xx_hal_flash_ex.c ****         
 1576              		.loc 1 292 9 is_stmt 1 view .LVU430
 292:Drivers/STM32F1xx_HAL_Driver/Src/stm32f1xx_hal_flash_ex.c ****         
 1577              		.loc 1 292 20 is_stmt 0 view .LVU431
 1578 00e0 4FF0FF33 		mov	r3, #-1
 1579 00e4 3360     		str	r3, [r6]
 295:Drivers/STM32F1xx_HAL_Driver/Src/stm32f1xx_hal_flash_ex.c ****             address < ((pEraseInit->NbPages * FLASH_PAGE_SIZE) + pEraseInit->PageAddress);
 1580              		.loc 1 295 9 is_stmt 1 view .LVU432
 295:Drivers/STM32F1xx_HAL_Driver/Src/stm32f1xx_hal_flash_ex.c ****             address < ((pEraseInit->NbPages * FLASH_PAGE_SIZE) + pEraseInit->PageAddress);
 1581              		.loc 1 295 21 is_stmt 0 view .LVU433
 1582 00e6 A568     		ldr	r5, [r4, #8]
 1583              	.LVL161:
 177:Drivers/STM32F1xx_HAL_Driver/Src/stm32f1xx_hal_flash_ex.c ****   uint32_t address = 0U;
 1584              		.loc 1 177 21 view .LVU434
 1585 00e8 0121     		movs	r1, #1
 1586              	.LVL162:
 1587              	.L128:
 296:Drivers/STM32F1xx_HAL_Driver/Src/stm32f1xx_hal_flash_ex.c ****             address += FLASH_PAGE_SIZE)
 1588              		.loc 1 296 13 is_stmt 1 discriminator 1 view .LVU435
 296:Drivers/STM32F1xx_HAL_Driver/Src/stm32f1xx_hal_flash_ex.c ****             address += FLASH_PAGE_SIZE)
 1589              		.loc 1 296 35 is_stmt 0 discriminator 1 view .LVU436
 1590 00ea E268     		ldr	r2, [r4, #12]
 296:Drivers/STM32F1xx_HAL_Driver/Src/stm32f1xx_hal_flash_ex.c ****             address += FLASH_PAGE_SIZE)
 1591              		.loc 1 296 76 discriminator 1 view .LVU437
 1592 00ec A368     		ldr	r3, [r4, #8]
 296:Drivers/STM32F1xx_HAL_Driver/Src/stm32f1xx_hal_flash_ex.c ****             address += FLASH_PAGE_SIZE)
 1593              		.loc 1 296 64 discriminator 1 view .LVU438
 1594 00ee 03EB8223 		add	r3, r3, r2, lsl #10
 295:Drivers/STM32F1xx_HAL_Driver/Src/stm32f1xx_hal_flash_ex.c ****             address < ((pEraseInit->NbPages * FLASH_PAGE_SIZE) + pEraseInit->PageAddress);
 1595              		.loc 1 295 9 discriminator 1 view .LVU439
 1596 00f2 AB42     		cmp	r3, r5
 1597 00f4 2ED9     		bls	.L117
 299:Drivers/STM32F1xx_HAL_Driver/Src/stm32f1xx_hal_flash_ex.c ****           
 1598              		.loc 1 299 11 is_stmt 1 view .LVU440
 1599 00f6 2846     		mov	r0, r5
 1600 00f8 FFF7FEFF 		bl	FLASH_PageErase
 1601              	.LVL163:
 302:Drivers/STM32F1xx_HAL_Driver/Src/stm32f1xx_hal_flash_ex.c ****           
 1602              		.loc 1 302 11 view .LVU441
 302:Drivers/STM32F1xx_HAL_Driver/Src/stm32f1xx_hal_flash_ex.c ****           
 1603              		.loc 1 302 20 is_stmt 0 view .LVU442
 1604 00fc 4CF25030 		movw	r0, #50000
 1605 0100 FFF7FEFF 		bl	FLASH_WaitForLastOperation
 1606              	.LVL164:
 305:Drivers/STM32F1xx_HAL_Driver/Src/stm32f1xx_hal_flash_ex.c ****           
 1607              		.loc 1 305 11 is_stmt 1 view .LVU443
 1608 0104 1B4A     		ldr	r2, .L149+16
 1609 0106 1369     		ldr	r3, [r2, #16]
 1610 0108 23F00203 		bic	r3, r3, #2
 1611 010c 1361     		str	r3, [r2, #16]
 307:Drivers/STM32F1xx_HAL_Driver/Src/stm32f1xx_hal_flash_ex.c ****           {
 1612              		.loc 1 307 11 view .LVU444
ARM GAS  /tmp/cczNPJS6.s 			page 56


 307:Drivers/STM32F1xx_HAL_Driver/Src/stm32f1xx_hal_flash_ex.c ****           {
 1613              		.loc 1 307 14 is_stmt 0 view .LVU445
 1614 010e 0146     		mov	r1, r0
 1615 0110 E8B9     		cbnz	r0, .L148
 297:Drivers/STM32F1xx_HAL_Driver/Src/stm32f1xx_hal_flash_ex.c ****         {
 1616              		.loc 1 297 13 is_stmt 1 view .LVU446
 297:Drivers/STM32F1xx_HAL_Driver/Src/stm32f1xx_hal_flash_ex.c ****         {
 1617              		.loc 1 297 21 is_stmt 0 view .LVU447
 1618 0112 05F58065 		add	r5, r5, #1024
 1619              	.LVL165:
 297:Drivers/STM32F1xx_HAL_Driver/Src/stm32f1xx_hal_flash_ex.c ****         {
 1620              		.loc 1 297 21 view .LVU448
 1621 0116 E8E7     		b	.L128
 1622              	.LVL166:
 1623              	.L145:
 250:Drivers/STM32F1xx_HAL_Driver/Src/stm32f1xx_hal_flash_ex.c ****     
 1624              		.loc 1 250 5 discriminator 4 view .LVU449
 1625 0118 A368     		ldr	r3, [r4, #8]
 1626 011a E268     		ldr	r2, [r4, #12]
 1627 011c 03EB8223 		add	r3, r3, r2, lsl #10
 1628 0120 013B     		subs	r3, r3, #1
 1629 0122 164A     		ldr	r2, .L149+24
 1630 0124 9342     		cmp	r3, r2
 1631 0126 8CBF     		ite	hi
 1632 0128 0023     		movhi	r3, #0
 1633 012a 0123     		movls	r3, #1
 1634 012c D0E7     		b	.L124
 1635              	.L146:
 250:Drivers/STM32F1xx_HAL_Driver/Src/stm32f1xx_hal_flash_ex.c ****     
 1636              		.loc 1 250 5 discriminator 7 view .LVU450
 1637 012e A368     		ldr	r3, [r4, #8]
 1638 0130 E268     		ldr	r2, [r4, #12]
 1639 0132 03EB8223 		add	r3, r3, r2, lsl #10
 1640 0136 013B     		subs	r3, r3, #1
 1641 0138 114A     		ldr	r2, .L149+28
 1642 013a 9342     		cmp	r3, r2
 1643 013c 2CBF     		ite	cs
 1644 013e 0023     		movcs	r3, #0
 1645 0140 0123     		movcc	r3, #1
 1646 0142 C5E7     		b	.L124
 1647              	.L147:
 250:Drivers/STM32F1xx_HAL_Driver/Src/stm32f1xx_hal_flash_ex.c ****     
 1648              		.loc 1 250 5 discriminator 13 view .LVU451
 1649 0144 FA21     		movs	r1, #250
 1650 0146 0A48     		ldr	r0, .L149+12
 1651 0148 FFF7FEFF 		bl	assert_failed
 1652              	.LVL167:
 1653 014c C2E7     		b	.L127
 1654              	.LVL168:
 1655              	.L148:
 310:Drivers/STM32F1xx_HAL_Driver/Src/stm32f1xx_hal_flash_ex.c ****             break;
 1656              		.loc 1 310 13 is_stmt 1 view .LVU452
 310:Drivers/STM32F1xx_HAL_Driver/Src/stm32f1xx_hal_flash_ex.c ****             break;
 1657              		.loc 1 310 24 is_stmt 0 view .LVU453
 1658 014e 3560     		str	r5, [r6]
 311:Drivers/STM32F1xx_HAL_Driver/Src/stm32f1xx_hal_flash_ex.c ****           }
 1659              		.loc 1 311 13 is_stmt 1 view .LVU454
ARM GAS  /tmp/cczNPJS6.s 			page 57


 1660 0150 00E0     		b	.L117
 1661              	.LVL169:
 1662              	.L133:
 177:Drivers/STM32F1xx_HAL_Driver/Src/stm32f1xx_hal_flash_ex.c ****   uint32_t address = 0U;
 1663              		.loc 1 177 21 is_stmt 0 view .LVU455
 1664 0152 0121     		movs	r1, #1
 1665              	.LVL170:
 1666              	.L117:
 319:Drivers/STM32F1xx_HAL_Driver/Src/stm32f1xx_hal_flash_ex.c **** 
 1667              		.loc 1 319 3 is_stmt 1 view .LVU456
 319:Drivers/STM32F1xx_HAL_Driver/Src/stm32f1xx_hal_flash_ex.c **** 
 1668              		.loc 1 319 3 view .LVU457
 1669 0154 034B     		ldr	r3, .L149
 1670 0156 0022     		movs	r2, #0
 1671 0158 1A76     		strb	r2, [r3, #24]
 319:Drivers/STM32F1xx_HAL_Driver/Src/stm32f1xx_hal_flash_ex.c **** 
 1672              		.loc 1 319 3 view .LVU458
 321:Drivers/STM32F1xx_HAL_Driver/Src/stm32f1xx_hal_flash_ex.c **** }
 1673              		.loc 1 321 3 view .LVU459
 322:Drivers/STM32F1xx_HAL_Driver/Src/stm32f1xx_hal_flash_ex.c **** 
 1674              		.loc 1 322 1 is_stmt 0 view .LVU460
 1675 015a 0846     		mov	r0, r1
 1676 015c 70BD     		pop	{r4, r5, r6, pc}
 1677              	.LVL171:
 1678              	.L131:
 1679              	.LCFI11:
 1680              		.cfi_def_cfa_offset 0
 1681              		.cfi_restore 4
 1682              		.cfi_restore 5
 1683              		.cfi_restore 6
 1684              		.cfi_restore 14
 181:Drivers/STM32F1xx_HAL_Driver/Src/stm32f1xx_hal_flash_ex.c **** 
 1685              		.loc 1 181 3 view .LVU461
 1686 015e 0221     		movs	r1, #2
 1687              	.LVL172:
 322:Drivers/STM32F1xx_HAL_Driver/Src/stm32f1xx_hal_flash_ex.c **** 
 1688              		.loc 1 322 1 view .LVU462
 1689 0160 0846     		mov	r0, r1
 1690              	.LVL173:
 322:Drivers/STM32F1xx_HAL_Driver/Src/stm32f1xx_hal_flash_ex.c **** 
 1691              		.loc 1 322 1 view .LVU463
 1692 0162 7047     		bx	lr
 1693              	.L150:
 1694              		.align	2
 1695              	.L149:
 1696 0164 00000000 		.word	pFlash
 1697 0168 E0F7FF1F 		.word	536868832
 1698 016c 00400008 		.word	134234112
 1699 0170 00000000 		.word	.LC0
 1700 0174 00200240 		.word	1073881088
 1701 0178 FFFF0108 		.word	134348799
 1702 017c FFFF0008 		.word	134283263
 1703 0180 00800008 		.word	134250496
 1704              		.cfi_endproc
 1705              	.LFE66:
 1707              		.section	.text.HAL_FLASHEx_Erase_IT,"ax",%progbits
 1708              		.align	1
ARM GAS  /tmp/cczNPJS6.s 			page 58


 1709              		.global	HAL_FLASHEx_Erase_IT
 1710              		.syntax unified
 1711              		.thumb
 1712              		.thumb_func
 1713              		.fpu softvfp
 1715              	HAL_FLASHEx_Erase_IT:
 1716              	.LVL174:
 1717              	.LFB67:
 336:Drivers/STM32F1xx_HAL_Driver/Src/stm32f1xx_hal_flash_ex.c ****   HAL_StatusTypeDef status = HAL_OK;
 1718              		.loc 1 336 1 is_stmt 1 view -0
 1719              		.cfi_startproc
 1720              		@ args = 0, pretend = 0, frame = 0
 1721              		@ frame_needed = 0, uses_anonymous_args = 0
 336:Drivers/STM32F1xx_HAL_Driver/Src/stm32f1xx_hal_flash_ex.c ****   HAL_StatusTypeDef status = HAL_OK;
 1722              		.loc 1 336 1 is_stmt 0 view .LVU465
 1723 0000 38B5     		push	{r3, r4, r5, lr}
 1724              	.LCFI12:
 1725              		.cfi_def_cfa_offset 16
 1726              		.cfi_offset 3, -16
 1727              		.cfi_offset 4, -12
 1728              		.cfi_offset 5, -8
 1729              		.cfi_offset 14, -4
 337:Drivers/STM32F1xx_HAL_Driver/Src/stm32f1xx_hal_flash_ex.c **** 
 1730              		.loc 1 337 3 is_stmt 1 view .LVU466
 1731              	.LVL175:
 340:Drivers/STM32F1xx_HAL_Driver/Src/stm32f1xx_hal_flash_ex.c **** 
 1732              		.loc 1 340 3 view .LVU467
 340:Drivers/STM32F1xx_HAL_Driver/Src/stm32f1xx_hal_flash_ex.c **** 
 1733              		.loc 1 340 3 view .LVU468
 1734 0002 494B     		ldr	r3, .L177
 1735 0004 1B7E     		ldrb	r3, [r3, #24]	@ zero_extendqisi2
 1736 0006 012B     		cmp	r3, #1
 1737 0008 00F08980 		beq	.L165
 1738 000c 0446     		mov	r4, r0
 340:Drivers/STM32F1xx_HAL_Driver/Src/stm32f1xx_hal_flash_ex.c **** 
 1739              		.loc 1 340 3 discriminator 2 view .LVU469
 1740 000e 464B     		ldr	r3, .L177
 1741 0010 0122     		movs	r2, #1
 1742 0012 1A76     		strb	r2, [r3, #24]
 340:Drivers/STM32F1xx_HAL_Driver/Src/stm32f1xx_hal_flash_ex.c **** 
 1743              		.loc 1 340 3 discriminator 2 view .LVU470
 343:Drivers/STM32F1xx_HAL_Driver/Src/stm32f1xx_hal_flash_ex.c ****   {
 1744              		.loc 1 343 3 discriminator 2 view .LVU471
 343:Drivers/STM32F1xx_HAL_Driver/Src/stm32f1xx_hal_flash_ex.c ****   {
 1745              		.loc 1 343 13 is_stmt 0 discriminator 2 view .LVU472
 1746 0014 1B78     		ldrb	r3, [r3]	@ zero_extendqisi2
 343:Drivers/STM32F1xx_HAL_Driver/Src/stm32f1xx_hal_flash_ex.c ****   {
 1747              		.loc 1 343 6 discriminator 2 view .LVU473
 1748 0016 03F0FF05 		and	r5, r3, #255
 1749 001a 002B     		cmp	r3, #0
 1750 001c 40F08180 		bne	.L166
 349:Drivers/STM32F1xx_HAL_Driver/Src/stm32f1xx_hal_flash_ex.c **** 
 1751              		.loc 1 349 3 is_stmt 1 view .LVU474
 1752 0020 0368     		ldr	r3, [r0]
 1753 0022 0BB1     		cbz	r3, .L153
 349:Drivers/STM32F1xx_HAL_Driver/Src/stm32f1xx_hal_flash_ex.c **** 
 1754              		.loc 1 349 3 is_stmt 0 discriminator 1 view .LVU475
ARM GAS  /tmp/cczNPJS6.s 			page 59


 1755 0024 022B     		cmp	r3, #2
 1756 0026 17D1     		bne	.L168
 1757              	.LVL176:
 1758              	.L153:
 352:Drivers/STM32F1xx_HAL_Driver/Src/stm32f1xx_hal_flash_ex.c **** 
 1759              		.loc 1 352 3 is_stmt 1 view .LVU476
 1760 0028 404A     		ldr	r2, .L177+4
 1761 002a 1369     		ldr	r3, [r2, #16]
 1762 002c 43F4A053 		orr	r3, r3, #5120
 1763 0030 1361     		str	r3, [r2, #16]
 359:Drivers/STM32F1xx_HAL_Driver/Src/stm32f1xx_hal_flash_ex.c ****   {
 1764              		.loc 1 359 3 view .LVU477
 359:Drivers/STM32F1xx_HAL_Driver/Src/stm32f1xx_hal_flash_ex.c ****   {
 1765              		.loc 1 359 17 is_stmt 0 view .LVU478
 1766 0032 2368     		ldr	r3, [r4]
 359:Drivers/STM32F1xx_HAL_Driver/Src/stm32f1xx_hal_flash_ex.c ****   {
 1767              		.loc 1 359 6 view .LVU479
 1768 0034 022B     		cmp	r3, #2
 1769 0036 15D0     		beq	.L169
 370:Drivers/STM32F1xx_HAL_Driver/Src/stm32f1xx_hal_flash_ex.c ****     assert_param(IS_FLASH_NB_PAGES(pEraseInit->PageAddress, pEraseInit->NbPages));
 1770              		.loc 1 370 5 is_stmt 1 view .LVU480
 1771 0038 A368     		ldr	r3, [r4, #8]
 1772 003a B3F1006F 		cmp	r3, #134217728
 1773 003e 1BD3     		bcc	.L155
 370:Drivers/STM32F1xx_HAL_Driver/Src/stm32f1xx_hal_flash_ex.c ****     assert_param(IS_FLASH_NB_PAGES(pEraseInit->PageAddress, pEraseInit->NbPages));
 1774              		.loc 1 370 5 is_stmt 0 discriminator 2 view .LVU481
 1775 0040 3B4A     		ldr	r2, .L177+8
 1776 0042 1288     		ldrh	r2, [r2]
 1777 0044 802A     		cmp	r2, #128
 1778 0046 14D0     		beq	.L170
 370:Drivers/STM32F1xx_HAL_Driver/Src/stm32f1xx_hal_flash_ex.c ****     assert_param(IS_FLASH_NB_PAGES(pEraseInit->PageAddress, pEraseInit->NbPages));
 1779              		.loc 1 370 5 discriminator 4 view .LVU482
 1780 0048 402A     		cmp	r2, #64
 1781 004a 2DD0     		beq	.L171
 370:Drivers/STM32F1xx_HAL_Driver/Src/stm32f1xx_hal_flash_ex.c ****     assert_param(IS_FLASH_NB_PAGES(pEraseInit->PageAddress, pEraseInit->NbPages));
 1782              		.loc 1 370 5 discriminator 7 view .LVU483
 1783 004c 202A     		cmp	r2, #32
 1784 004e 2FD0     		beq	.L172
 370:Drivers/STM32F1xx_HAL_Driver/Src/stm32f1xx_hal_flash_ex.c ****     assert_param(IS_FLASH_NB_PAGES(pEraseInit->PageAddress, pEraseInit->NbPages));
 1785              		.loc 1 370 5 discriminator 10 view .LVU484
 1786 0050 384A     		ldr	r2, .L177+12
 1787 0052 9342     		cmp	r3, r2
 1788 0054 15D3     		bcc	.L157
 1789 0056 0FE0     		b	.L155
 1790              	.LVL177:
 1791              	.L168:
 349:Drivers/STM32F1xx_HAL_Driver/Src/stm32f1xx_hal_flash_ex.c **** 
 1792              		.loc 1 349 3 discriminator 2 view .LVU485
 1793 0058 40F25D11 		movw	r1, #349
 1794 005c 3648     		ldr	r0, .L177+16
 1795              	.LVL178:
 349:Drivers/STM32F1xx_HAL_Driver/Src/stm32f1xx_hal_flash_ex.c **** 
 1796              		.loc 1 349 3 discriminator 2 view .LVU486
 1797 005e FFF7FEFF 		bl	assert_failed
 1798              	.LVL179:
 1799 0062 E1E7     		b	.L153
 1800              	.L169:
ARM GAS  /tmp/cczNPJS6.s 			page 60


 362:Drivers/STM32F1xx_HAL_Driver/Src/stm32f1xx_hal_flash_ex.c ****         FLASH_MassErase(pEraseInit->Banks);
 1801              		.loc 1 362 5 is_stmt 1 view .LVU487
 362:Drivers/STM32F1xx_HAL_Driver/Src/stm32f1xx_hal_flash_ex.c ****         FLASH_MassErase(pEraseInit->Banks);
 1802              		.loc 1 362 29 is_stmt 0 view .LVU488
 1803 0064 304B     		ldr	r3, .L177
 1804 0066 0222     		movs	r2, #2
 1805 0068 1A70     		strb	r2, [r3]
 363:Drivers/STM32F1xx_HAL_Driver/Src/stm32f1xx_hal_flash_ex.c ****   }
 1806              		.loc 1 363 9 is_stmt 1 view .LVU489
 1807 006a 6068     		ldr	r0, [r4, #4]
 1808 006c FFF7FEFF 		bl	FLASH_MassErase
 1809              	.LVL180:
 1810 0070 37E0     		b	.L152
 1811              	.L170:
 370:Drivers/STM32F1xx_HAL_Driver/Src/stm32f1xx_hal_flash_ex.c ****     assert_param(IS_FLASH_NB_PAGES(pEraseInit->PageAddress, pEraseInit->NbPages));
 1812              		.loc 1 370 5 is_stmt 0 discriminator 3 view .LVU490
 1813 0072 324A     		ldr	r2, .L177+20
 1814 0074 9342     		cmp	r3, r2
 1815 0076 04D9     		bls	.L157
 1816              	.L155:
 370:Drivers/STM32F1xx_HAL_Driver/Src/stm32f1xx_hal_flash_ex.c ****     assert_param(IS_FLASH_NB_PAGES(pEraseInit->PageAddress, pEraseInit->NbPages));
 1817              		.loc 1 370 5 discriminator 12 view .LVU491
 1818 0078 4FF4B971 		mov	r1, #370
 1819 007c 2E48     		ldr	r0, .L177+16
 1820 007e FFF7FEFF 		bl	assert_failed
 1821              	.LVL181:
 1822              	.L157:
 371:Drivers/STM32F1xx_HAL_Driver/Src/stm32f1xx_hal_flash_ex.c **** 
 1823              		.loc 1 371 5 is_stmt 1 view .LVU492
 1824 0082 2B4B     		ldr	r3, .L177+8
 1825 0084 1B88     		ldrh	r3, [r3]
 1826 0086 802B     		cmp	r3, #128
 1827 0088 16D0     		beq	.L173
 371:Drivers/STM32F1xx_HAL_Driver/Src/stm32f1xx_hal_flash_ex.c **** 
 1828              		.loc 1 371 5 is_stmt 0 discriminator 2 view .LVU493
 1829 008a 402B     		cmp	r3, #64
 1830 008c 2BD0     		beq	.L174
 371:Drivers/STM32F1xx_HAL_Driver/Src/stm32f1xx_hal_flash_ex.c **** 
 1831              		.loc 1 371 5 discriminator 5 view .LVU494
 1832 008e 202B     		cmp	r3, #32
 1833 0090 34D0     		beq	.L175
 371:Drivers/STM32F1xx_HAL_Driver/Src/stm32f1xx_hal_flash_ex.c **** 
 1834              		.loc 1 371 5 discriminator 8 view .LVU495
 1835 0092 A368     		ldr	r3, [r4, #8]
 1836 0094 E268     		ldr	r2, [r4, #12]
 1837 0096 03EB8223 		add	r3, r3, r2, lsl #10
 1838 009a 013B     		subs	r3, r3, #1
 1839 009c 254A     		ldr	r2, .L177+12
 1840 009e 9342     		cmp	r3, r2
 1841 00a0 2CBF     		ite	cs
 1842 00a2 0023     		movcs	r3, #0
 1843 00a4 0123     		movcc	r3, #1
 1844 00a6 11E0     		b	.L161
 1845              	.L171:
 370:Drivers/STM32F1xx_HAL_Driver/Src/stm32f1xx_hal_flash_ex.c ****     assert_param(IS_FLASH_NB_PAGES(pEraseInit->PageAddress, pEraseInit->NbPages));
 1846              		.loc 1 370 5 discriminator 6 view .LVU496
 1847 00a8 254A     		ldr	r2, .L177+24
ARM GAS  /tmp/cczNPJS6.s 			page 61


 1848 00aa 9342     		cmp	r3, r2
 1849 00ac E4D8     		bhi	.L155
 1850 00ae E8E7     		b	.L157
 1851              	.L172:
 370:Drivers/STM32F1xx_HAL_Driver/Src/stm32f1xx_hal_flash_ex.c ****     assert_param(IS_FLASH_NB_PAGES(pEraseInit->PageAddress, pEraseInit->NbPages));
 1852              		.loc 1 370 5 discriminator 9 view .LVU497
 1853 00b0 244A     		ldr	r2, .L177+28
 1854 00b2 9342     		cmp	r3, r2
 1855 00b4 E0D2     		bcs	.L155
 1856 00b6 E4E7     		b	.L157
 1857              	.L173:
 371:Drivers/STM32F1xx_HAL_Driver/Src/stm32f1xx_hal_flash_ex.c **** 
 1858              		.loc 1 371 5 discriminator 1 view .LVU498
 1859 00b8 A368     		ldr	r3, [r4, #8]
 1860 00ba E268     		ldr	r2, [r4, #12]
 1861 00bc 03EB8223 		add	r3, r3, r2, lsl #10
 1862 00c0 013B     		subs	r3, r3, #1
 1863 00c2 1E4A     		ldr	r2, .L177+20
 1864 00c4 9342     		cmp	r3, r2
 1865 00c6 8CBF     		ite	hi
 1866 00c8 0023     		movhi	r3, #0
 1867 00ca 0123     		movls	r3, #1
 1868              	.L161:
 371:Drivers/STM32F1xx_HAL_Driver/Src/stm32f1xx_hal_flash_ex.c **** 
 1869              		.loc 1 371 5 discriminator 12 view .LVU499
 1870 00cc 0BB3     		cbz	r3, .L176
 1871              	.L164:
 373:Drivers/STM32F1xx_HAL_Driver/Src/stm32f1xx_hal_flash_ex.c ****     pFlash.DataRemaining = pEraseInit->NbPages;
 1872              		.loc 1 373 5 is_stmt 1 view .LVU500
 373:Drivers/STM32F1xx_HAL_Driver/Src/stm32f1xx_hal_flash_ex.c ****     pFlash.DataRemaining = pEraseInit->NbPages;
 1873              		.loc 1 373 29 is_stmt 0 view .LVU501
 1874 00ce 164B     		ldr	r3, .L177
 1875 00d0 0122     		movs	r2, #1
 1876 00d2 1A70     		strb	r2, [r3]
 374:Drivers/STM32F1xx_HAL_Driver/Src/stm32f1xx_hal_flash_ex.c ****     pFlash.Address = pEraseInit->PageAddress;
 1877              		.loc 1 374 5 is_stmt 1 view .LVU502
 374:Drivers/STM32F1xx_HAL_Driver/Src/stm32f1xx_hal_flash_ex.c ****     pFlash.Address = pEraseInit->PageAddress;
 1878              		.loc 1 374 38 is_stmt 0 view .LVU503
 1879 00d4 E268     		ldr	r2, [r4, #12]
 374:Drivers/STM32F1xx_HAL_Driver/Src/stm32f1xx_hal_flash_ex.c ****     pFlash.Address = pEraseInit->PageAddress;
 1880              		.loc 1 374 26 view .LVU504
 1881 00d6 5A60     		str	r2, [r3, #4]
 375:Drivers/STM32F1xx_HAL_Driver/Src/stm32f1xx_hal_flash_ex.c **** 
 1882              		.loc 1 375 5 is_stmt 1 view .LVU505
 375:Drivers/STM32F1xx_HAL_Driver/Src/stm32f1xx_hal_flash_ex.c **** 
 1883              		.loc 1 375 32 is_stmt 0 view .LVU506
 1884 00d8 A268     		ldr	r2, [r4, #8]
 375:Drivers/STM32F1xx_HAL_Driver/Src/stm32f1xx_hal_flash_ex.c **** 
 1885              		.loc 1 375 20 view .LVU507
 1886 00da 9A60     		str	r2, [r3, #8]
 378:Drivers/STM32F1xx_HAL_Driver/Src/stm32f1xx_hal_flash_ex.c ****   }
 1887              		.loc 1 378 5 is_stmt 1 view .LVU508
 1888 00dc A068     		ldr	r0, [r4, #8]
 1889 00de FFF7FEFF 		bl	FLASH_PageErase
 1890              	.LVL182:
 1891              	.L152:
 382:Drivers/STM32F1xx_HAL_Driver/Src/stm32f1xx_hal_flash_ex.c **** 
ARM GAS  /tmp/cczNPJS6.s 			page 62


 1892              		.loc 1 382 1 is_stmt 0 view .LVU509
 1893 00e2 2846     		mov	r0, r5
 1894 00e4 38BD     		pop	{r3, r4, r5, pc}
 1895              	.LVL183:
 1896              	.L174:
 371:Drivers/STM32F1xx_HAL_Driver/Src/stm32f1xx_hal_flash_ex.c **** 
 1897              		.loc 1 371 5 discriminator 4 view .LVU510
 1898 00e6 A368     		ldr	r3, [r4, #8]
 1899 00e8 E268     		ldr	r2, [r4, #12]
 1900 00ea 03EB8223 		add	r3, r3, r2, lsl #10
 1901 00ee 013B     		subs	r3, r3, #1
 1902 00f0 134A     		ldr	r2, .L177+24
 1903 00f2 9342     		cmp	r3, r2
 1904 00f4 8CBF     		ite	hi
 1905 00f6 0023     		movhi	r3, #0
 1906 00f8 0123     		movls	r3, #1
 1907 00fa E7E7     		b	.L161
 1908              	.L175:
 371:Drivers/STM32F1xx_HAL_Driver/Src/stm32f1xx_hal_flash_ex.c **** 
 1909              		.loc 1 371 5 discriminator 7 view .LVU511
 1910 00fc A368     		ldr	r3, [r4, #8]
 1911 00fe E268     		ldr	r2, [r4, #12]
 1912 0100 03EB8223 		add	r3, r3, r2, lsl #10
 1913 0104 013B     		subs	r3, r3, #1
 1914 0106 0F4A     		ldr	r2, .L177+28
 1915 0108 9342     		cmp	r3, r2
 1916 010a 2CBF     		ite	cs
 1917 010c 0023     		movcs	r3, #0
 1918 010e 0123     		movcc	r3, #1
 1919 0110 DCE7     		b	.L161
 1920              	.L176:
 371:Drivers/STM32F1xx_HAL_Driver/Src/stm32f1xx_hal_flash_ex.c **** 
 1921              		.loc 1 371 5 discriminator 13 view .LVU512
 1922 0112 40F27311 		movw	r1, #371
 1923 0116 0848     		ldr	r0, .L177+16
 1924 0118 FFF7FEFF 		bl	assert_failed
 1925              	.LVL184:
 1926 011c D7E7     		b	.L164
 1927              	.LVL185:
 1928              	.L165:
 340:Drivers/STM32F1xx_HAL_Driver/Src/stm32f1xx_hal_flash_ex.c **** 
 1929              		.loc 1 340 3 view .LVU513
 1930 011e 0225     		movs	r5, #2
 1931 0120 DFE7     		b	.L152
 1932              	.L166:
 345:Drivers/STM32F1xx_HAL_Driver/Src/stm32f1xx_hal_flash_ex.c ****   }
 1933              		.loc 1 345 12 view .LVU514
 1934 0122 0125     		movs	r5, #1
 1935 0124 DDE7     		b	.L152
 1936              	.L178:
 1937 0126 00BF     		.align	2
 1938              	.L177:
 1939 0128 00000000 		.word	pFlash
 1940 012c 00200240 		.word	1073881088
 1941 0130 E0F7FF1F 		.word	536868832
 1942 0134 00400008 		.word	134234112
 1943 0138 00000000 		.word	.LC0
ARM GAS  /tmp/cczNPJS6.s 			page 63


 1944 013c FFFF0108 		.word	134348799
 1945 0140 FFFF0008 		.word	134283263
 1946 0144 00800008 		.word	134250496
 1947              		.cfi_endproc
 1948              	.LFE67:
 1950              		.text
 1951              	.Letext0:
 1952              		.file 2 "/usr/lib/gcc/arm-none-eabi/9.2.1/include/stdint.h"
 1953              		.file 3 "Drivers/CMSIS/Include/core_cm3.h"
 1954              		.file 4 "Drivers/CMSIS/Device/ST/STM32F1xx/Include/system_stm32f1xx.h"
 1955              		.file 5 "Drivers/CMSIS/Device/ST/STM32F1xx/Include/stm32f103xb.h"
 1956              		.file 6 "/usr/lib/gcc/arm-none-eabi/9.2.1/include/stddef.h"
 1957              		.file 7 "/usr/include/newlib/sys/_types.h"
 1958              		.file 8 "/usr/include/newlib/sys/reent.h"
 1959              		.file 9 "/usr/include/newlib/sys/lock.h"
 1960              		.file 10 "Drivers/STM32F1xx_HAL_Driver/Inc/stm32f1xx_hal_def.h"
 1961              		.file 11 "Drivers/STM32F1xx_HAL_Driver/Inc/stm32f1xx_hal_flash.h"
 1962              		.file 12 "Drivers/STM32F1xx_HAL_Driver/Inc/stm32f1xx_hal_flash_ex.h"
 1963              		.file 13 "Inc/stm32f1xx_hal_conf.h"
ARM GAS  /tmp/cczNPJS6.s 			page 64


DEFINED SYMBOLS
                            *ABS*:0000000000000000 stm32f1xx_hal_flash_ex.c
     /tmp/cczNPJS6.s:16     .text.FLASH_OB_GetWRP:0000000000000000 $t
     /tmp/cczNPJS6.s:23     .text.FLASH_OB_GetWRP:0000000000000000 FLASH_OB_GetWRP
     /tmp/cczNPJS6.s:40     .text.FLASH_OB_GetWRP:0000000000000008 $d
     /tmp/cczNPJS6.s:45     .text.FLASH_OB_GetRDP:0000000000000000 $t
     /tmp/cczNPJS6.s:51     .text.FLASH_OB_GetRDP:0000000000000000 FLASH_OB_GetRDP
     /tmp/cczNPJS6.s:82     .text.FLASH_OB_GetRDP:0000000000000014 $d
     /tmp/cczNPJS6.s:87     .text.FLASH_OB_GetUser:0000000000000000 $t
     /tmp/cczNPJS6.s:93     .text.FLASH_OB_GetUser:0000000000000000 FLASH_OB_GetUser
     /tmp/cczNPJS6.s:110    .text.FLASH_OB_GetUser:000000000000000c $d
     /tmp/cczNPJS6.s:115    .rodata.FLASH_MassErase.str1.4:0000000000000000 $d
     /tmp/cczNPJS6.s:120    .text.FLASH_MassErase:0000000000000000 $t
     /tmp/cczNPJS6.s:126    .text.FLASH_MassErase:0000000000000000 FLASH_MassErase
     /tmp/cczNPJS6.s:174    .text.FLASH_MassErase:000000000000002c $d
     /tmp/cczNPJS6.s:181    .text.FLASH_OB_RDP_LevelConfig:0000000000000000 $t
     /tmp/cczNPJS6.s:187    .text.FLASH_OB_RDP_LevelConfig:0000000000000000 FLASH_OB_RDP_LevelConfig
     /tmp/cczNPJS6.s:288    .text.FLASH_OB_RDP_LevelConfig:0000000000000070 $d
     /tmp/cczNPJS6.s:296    .text.FLASH_OB_UserConfig:0000000000000000 $t
     /tmp/cczNPJS6.s:302    .text.FLASH_OB_UserConfig:0000000000000000 FLASH_OB_UserConfig
     /tmp/cczNPJS6.s:368    .text.FLASH_OB_UserConfig:000000000000003c $d
     /tmp/cczNPJS6.s:375    .text.FLASH_OB_ProgramData:0000000000000000 $t
     /tmp/cczNPJS6.s:381    .text.FLASH_OB_ProgramData:0000000000000000 FLASH_OB_ProgramData
     /tmp/cczNPJS6.s:465    .text.FLASH_OB_ProgramData:0000000000000050 $d
     /tmp/cczNPJS6.s:473    .text.HAL_FLASHEx_OBErase:0000000000000000 $t
     /tmp/cczNPJS6.s:480    .text.HAL_FLASHEx_OBErase:0000000000000000 HAL_FLASHEx_OBErase
     /tmp/cczNPJS6.s:557    .text.HAL_FLASHEx_OBErase:0000000000000048 $d
     /tmp/cczNPJS6.s:563    .text.FLASH_OB_EnableWRP:0000000000000000 $t
     /tmp/cczNPJS6.s:569    .text.FLASH_OB_EnableWRP:0000000000000000 FLASH_OB_EnableWRP
     /tmp/cczNPJS6.s:785    .text.FLASH_OB_EnableWRP:00000000000000c4 $d
     /tmp/cczNPJS6.s:793    .text.FLASH_OB_DisableWRP:0000000000000000 $t
     /tmp/cczNPJS6.s:799    .text.FLASH_OB_DisableWRP:0000000000000000 FLASH_OB_DisableWRP
     /tmp/cczNPJS6.s:1019   .text.FLASH_OB_DisableWRP:00000000000000c8 $d
     /tmp/cczNPJS6.s:1027   .text.HAL_FLASHEx_OBProgram:0000000000000000 $t
     /tmp/cczNPJS6.s:1034   .text.HAL_FLASHEx_OBProgram:0000000000000000 HAL_FLASHEx_OBProgram
     /tmp/cczNPJS6.s:1242   .text.HAL_FLASHEx_OBProgram:00000000000000bc $d
     /tmp/cczNPJS6.s:1248   .text.HAL_FLASHEx_OBGetConfig:0000000000000000 $t
     /tmp/cczNPJS6.s:1255   .text.HAL_FLASHEx_OBGetConfig:0000000000000000 HAL_FLASHEx_OBGetConfig
     /tmp/cczNPJS6.s:1298   .text.HAL_FLASHEx_OBGetUserData:0000000000000000 $t
     /tmp/cczNPJS6.s:1305   .text.HAL_FLASHEx_OBGetUserData:0000000000000000 HAL_FLASHEx_OBGetUserData
     /tmp/cczNPJS6.s:1345   .text.HAL_FLASHEx_OBGetUserData:000000000000001c $d
     /tmp/cczNPJS6.s:1351   .text.FLASH_PageErase:0000000000000000 $t
     /tmp/cczNPJS6.s:1358   .text.FLASH_PageErase:0000000000000000 FLASH_PageErase
     /tmp/cczNPJS6.s:1387   .text.FLASH_PageErase:000000000000001c $d
     /tmp/cczNPJS6.s:1393   .text.HAL_FLASHEx_Erase:0000000000000000 $t
     /tmp/cczNPJS6.s:1400   .text.HAL_FLASHEx_Erase:0000000000000000 HAL_FLASHEx_Erase
     /tmp/cczNPJS6.s:1696   .text.HAL_FLASHEx_Erase:0000000000000164 $d
     /tmp/cczNPJS6.s:1708   .text.HAL_FLASHEx_Erase_IT:0000000000000000 $t
     /tmp/cczNPJS6.s:1715   .text.HAL_FLASHEx_Erase_IT:0000000000000000 HAL_FLASHEx_Erase_IT
     /tmp/cczNPJS6.s:1939   .text.HAL_FLASHEx_Erase_IT:0000000000000128 $d

UNDEFINED SYMBOLS
assert_failed
pFlash
FLASH_WaitForLastOperation
