ARM GAS  /tmp/ccoto6PB.s 			page 1


   1              		.cpu cortex-m3
   2              		.eabi_attribute 20, 1
   3              		.eabi_attribute 21, 1
   4              		.eabi_attribute 23, 3
   5              		.eabi_attribute 24, 1
   6              		.eabi_attribute 25, 1
   7              		.eabi_attribute 26, 1
   8              		.eabi_attribute 30, 1
   9              		.eabi_attribute 34, 1
  10              		.eabi_attribute 18, 4
  11              		.file	"z80emu.c"
  12              		.text
  13              	.Ltext0:
  14              		.cfi_sections	.debug_frame
  15              		.section	.text.emulate,"ax",%progbits
  16              		.align	1
  17              		.arch armv7-m
  18              		.syntax unified
  19              		.thumb
  20              		.thumb_func
  21              		.fpu softvfp
  23              	emulate:
  24              	.LVL0:
  25              	.LFB4:
  26              		.file 1 "emulator/z80emu/z80emu.c"
   1:emulator/z80emu/z80emu.c **** /* z80emu.c
   2:emulator/z80emu/z80emu.c ****  * Z80 processor emulator. 
   3:emulator/z80emu/z80emu.c ****  *
   4:emulator/z80emu/z80emu.c ****  * Copyright (c) 2012-2017 Lin Ke-Fong
   5:emulator/z80emu/z80emu.c ****  *
   6:emulator/z80emu/z80emu.c ****  * This code is free, do whatever you want with it.
   7:emulator/z80emu/z80emu.c ****  */
   8:emulator/z80emu/z80emu.c **** 
   9:emulator/z80emu/z80emu.c **** #include "z80emu.h"
  10:emulator/z80emu/z80emu.c **** #include "z80api.h"
  11:emulator/z80emu/z80emu.c **** #include "instructions.h"
  12:emulator/z80emu/z80emu.c **** #include "macros.h"
  13:emulator/z80emu/z80emu.c **** #include "tables.h"
  14:emulator/z80emu/z80emu.c **** 
  15:emulator/z80emu/z80emu.c **** /* Indirect (HL) or prefixed indexed (IX + d) and (IY + d) memory operands are
  16:emulator/z80emu/z80emu.c ****  * encoded using the 3 bits "110" (0x06).
  17:emulator/z80emu/z80emu.c ****  */
  18:emulator/z80emu/z80emu.c **** 
  19:emulator/z80emu/z80emu.c **** #define INDIRECT_HL     0x06
  20:emulator/z80emu/z80emu.c **** 
  21:emulator/z80emu/z80emu.c **** /* Condition codes are encoded using 2 or 3 bits.  The xor table is needed for
  22:emulator/z80emu/z80emu.c ****  * negated conditions, it is used along with the and table.
  23:emulator/z80emu/z80emu.c ****  */
  24:emulator/z80emu/z80emu.c **** 
  25:emulator/z80emu/z80emu.c **** static const int XOR_CONDITION_TABLE[8] = {
  26:emulator/z80emu/z80emu.c **** 
  27:emulator/z80emu/z80emu.c ****         Z80_Z_FLAG,
  28:emulator/z80emu/z80emu.c ****         0,
  29:emulator/z80emu/z80emu.c ****         Z80_C_FLAG,
  30:emulator/z80emu/z80emu.c ****         0,
  31:emulator/z80emu/z80emu.c ****         Z80_P_FLAG,
  32:emulator/z80emu/z80emu.c ****         0,
ARM GAS  /tmp/ccoto6PB.s 			page 2


  33:emulator/z80emu/z80emu.c ****         Z80_S_FLAG,
  34:emulator/z80emu/z80emu.c ****         0,
  35:emulator/z80emu/z80emu.c **** 
  36:emulator/z80emu/z80emu.c **** };
  37:emulator/z80emu/z80emu.c **** 
  38:emulator/z80emu/z80emu.c **** static const int AND_CONDITION_TABLE[8] = {
  39:emulator/z80emu/z80emu.c **** 
  40:emulator/z80emu/z80emu.c ****         Z80_Z_FLAG,
  41:emulator/z80emu/z80emu.c ****         Z80_Z_FLAG,
  42:emulator/z80emu/z80emu.c ****         Z80_C_FLAG,
  43:emulator/z80emu/z80emu.c ****         Z80_C_FLAG,
  44:emulator/z80emu/z80emu.c ****         Z80_P_FLAG,
  45:emulator/z80emu/z80emu.c ****         Z80_P_FLAG,
  46:emulator/z80emu/z80emu.c ****         Z80_S_FLAG,
  47:emulator/z80emu/z80emu.c ****         Z80_S_FLAG,
  48:emulator/z80emu/z80emu.c **** 
  49:emulator/z80emu/z80emu.c **** };
  50:emulator/z80emu/z80emu.c **** 
  51:emulator/z80emu/z80emu.c **** /* RST instruction restart addresses, encoded by Y() bits of the opcode. */
  52:emulator/z80emu/z80emu.c **** 
  53:emulator/z80emu/z80emu.c **** static const int RST_TABLE[8] = {
  54:emulator/z80emu/z80emu.c **** 
  55:emulator/z80emu/z80emu.c ****         0x00,
  56:emulator/z80emu/z80emu.c ****         0x08,
  57:emulator/z80emu/z80emu.c ****         0x10,
  58:emulator/z80emu/z80emu.c ****         0x18,
  59:emulator/z80emu/z80emu.c ****         0x20,
  60:emulator/z80emu/z80emu.c ****         0x28,
  61:emulator/z80emu/z80emu.c ****         0x30,
  62:emulator/z80emu/z80emu.c ****         0x38,
  63:emulator/z80emu/z80emu.c **** 
  64:emulator/z80emu/z80emu.c **** };      
  65:emulator/z80emu/z80emu.c **** 
  66:emulator/z80emu/z80emu.c **** /* There is an overflow if the xor of the carry out and the carry of the most
  67:emulator/z80emu/z80emu.c ****  * significant bit is not zero.
  68:emulator/z80emu/z80emu.c ****  */
  69:emulator/z80emu/z80emu.c **** 
  70:emulator/z80emu/z80emu.c **** static const int OVERFLOW_TABLE[4] = {
  71:emulator/z80emu/z80emu.c ****                         
  72:emulator/z80emu/z80emu.c **** 	0,
  73:emulator/z80emu/z80emu.c ****        	Z80_V_FLAG,
  74:emulator/z80emu/z80emu.c ****        	Z80_V_FLAG,
  75:emulator/z80emu/z80emu.c ****        	0,
  76:emulator/z80emu/z80emu.c **** 
  77:emulator/z80emu/z80emu.c **** };
  78:emulator/z80emu/z80emu.c **** 
  79:emulator/z80emu/z80emu.c **** static int	emulate (Z80_STATE * state, 
  80:emulator/z80emu/z80emu.c **** 			int opcode,
  81:emulator/z80emu/z80emu.c **** 			int elapsed_cycles, int number_cycles,
  82:emulator/z80emu/z80emu.c **** 			void *context);
  83:emulator/z80emu/z80emu.c **** 
  84:emulator/z80emu/z80emu.c **** void Z80Reset (Z80_STATE *state)
  85:emulator/z80emu/z80emu.c **** {
  86:emulator/z80emu/z80emu.c ****         int     i;
  87:emulator/z80emu/z80emu.c ****         
  88:emulator/z80emu/z80emu.c ****         state->status = 0;
  89:emulator/z80emu/z80emu.c ****         AF = 0xffff;
ARM GAS  /tmp/ccoto6PB.s 			page 3


  90:emulator/z80emu/z80emu.c ****         SP = 0xffff;
  91:emulator/z80emu/z80emu.c ****         state->i = state->pc = state->iff1 = state->iff2 = 0;
  92:emulator/z80emu/z80emu.c ****         state->im = Z80_INTERRUPT_MODE_0;
  93:emulator/z80emu/z80emu.c ****         
  94:emulator/z80emu/z80emu.c ****         /* Build register decoding tables for both 3-bit encoded 8-bit
  95:emulator/z80emu/z80emu.c ****          * registers and 2-bit encoded 16-bit registers. When an opcode is 
  96:emulator/z80emu/z80emu.c ****          * prefixed by 0xdd, HL is replaced by IX. When 0xfd prefixed, HL is
  97:emulator/z80emu/z80emu.c ****          * replaced by IY.
  98:emulator/z80emu/z80emu.c ****          */
  99:emulator/z80emu/z80emu.c **** 
 100:emulator/z80emu/z80emu.c ****         /* 8-bit "R" registers. */
 101:emulator/z80emu/z80emu.c **** 
 102:emulator/z80emu/z80emu.c ****         state->register_table[0] = &state->registers.byte[Z80_B];
 103:emulator/z80emu/z80emu.c ****         state->register_table[1] = &state->registers.byte[Z80_C];
 104:emulator/z80emu/z80emu.c ****         state->register_table[2] = &state->registers.byte[Z80_D];
 105:emulator/z80emu/z80emu.c ****         state->register_table[3] = &state->registers.byte[Z80_E];
 106:emulator/z80emu/z80emu.c ****         state->register_table[4] = &state->registers.byte[Z80_H];
 107:emulator/z80emu/z80emu.c ****         state->register_table[5] = &state->registers.byte[Z80_L];
 108:emulator/z80emu/z80emu.c **** 
 109:emulator/z80emu/z80emu.c ****         /* Encoding 0x06 is used for indexed memory operands and direct HL or
 110:emulator/z80emu/z80emu.c ****          * IX/IY register access.
 111:emulator/z80emu/z80emu.c ****          */
 112:emulator/z80emu/z80emu.c **** 
 113:emulator/z80emu/z80emu.c ****         state->register_table[6] = &state->registers.word[Z80_HL];
 114:emulator/z80emu/z80emu.c ****         state->register_table[7] = &state->registers.byte[Z80_A];
 115:emulator/z80emu/z80emu.c ****                
 116:emulator/z80emu/z80emu.c ****         /* "Regular" 16-bit "RR" registers. */
 117:emulator/z80emu/z80emu.c **** 
 118:emulator/z80emu/z80emu.c ****         state->register_table[8] = &state->registers.word[Z80_BC];
 119:emulator/z80emu/z80emu.c ****         state->register_table[9] = &state->registers.word[Z80_DE];
 120:emulator/z80emu/z80emu.c ****         state->register_table[10] = &state->registers.word[Z80_HL];
 121:emulator/z80emu/z80emu.c ****         state->register_table[11] = &state->registers.word[Z80_SP];
 122:emulator/z80emu/z80emu.c ****         
 123:emulator/z80emu/z80emu.c ****         /* 16-bit "SS" registers for PUSH and POP instructions (note that SP is
 124:emulator/z80emu/z80emu.c ****          * replaced by AF). 
 125:emulator/z80emu/z80emu.c ****          */
 126:emulator/z80emu/z80emu.c **** 
 127:emulator/z80emu/z80emu.c ****         state->register_table[12] = &state->registers.word[Z80_BC];
 128:emulator/z80emu/z80emu.c ****         state->register_table[13] = &state->registers.word[Z80_DE];
 129:emulator/z80emu/z80emu.c ****         state->register_table[14] = &state->registers.word[Z80_HL];
 130:emulator/z80emu/z80emu.c ****         state->register_table[15] = &state->registers.word[Z80_AF];
 131:emulator/z80emu/z80emu.c **** 
 132:emulator/z80emu/z80emu.c ****         /* 0xdd and 0xfd prefixed register decoding tables. */
 133:emulator/z80emu/z80emu.c **** 
 134:emulator/z80emu/z80emu.c ****         for (i = 0; i < 16; i++)
 135:emulator/z80emu/z80emu.c **** 
 136:emulator/z80emu/z80emu.c ****                 state->dd_register_table[i] 
 137:emulator/z80emu/z80emu.c ****                         = state->fd_register_table[i] 
 138:emulator/z80emu/z80emu.c ****                         = state->register_table[i];
 139:emulator/z80emu/z80emu.c **** 
 140:emulator/z80emu/z80emu.c ****         state->dd_register_table[4] = &state->registers.byte[Z80_IXH];
 141:emulator/z80emu/z80emu.c ****         state->dd_register_table[5] = &state->registers.byte[Z80_IXL];
 142:emulator/z80emu/z80emu.c ****         state->dd_register_table[6] = &state->registers.word[Z80_IX];
 143:emulator/z80emu/z80emu.c ****         state->dd_register_table[10] = &state->registers.word[Z80_IX];
 144:emulator/z80emu/z80emu.c ****         state->dd_register_table[14] = &state->registers.word[Z80_IX];
 145:emulator/z80emu/z80emu.c **** 
 146:emulator/z80emu/z80emu.c ****         state->fd_register_table[4] = &state->registers.byte[Z80_IYH];
ARM GAS  /tmp/ccoto6PB.s 			page 4


 147:emulator/z80emu/z80emu.c ****         state->fd_register_table[5] = &state->registers.byte[Z80_IYL];
 148:emulator/z80emu/z80emu.c ****         state->fd_register_table[6] = &state->registers.word[Z80_IY];
 149:emulator/z80emu/z80emu.c ****         state->fd_register_table[10] = &state->registers.word[Z80_IY];
 150:emulator/z80emu/z80emu.c ****         state->fd_register_table[14] = &state->registers.word[Z80_IY];        
 151:emulator/z80emu/z80emu.c **** }
 152:emulator/z80emu/z80emu.c **** 
 153:emulator/z80emu/z80emu.c **** int Z80Interrupt (Z80_STATE *state, int data_on_bus, void *context)
 154:emulator/z80emu/z80emu.c **** {
 155:emulator/z80emu/z80emu.c ****         state->status = 0;
 156:emulator/z80emu/z80emu.c ****         if (state->iff1) {
 157:emulator/z80emu/z80emu.c **** 				
 158:emulator/z80emu/z80emu.c ****                 state->iff1 = state->iff2 = 0;
 159:emulator/z80emu/z80emu.c ****                 state->r = (state->r & 0x80) | ((state->r + 1) & 0x7f);
 160:emulator/z80emu/z80emu.c ****                 switch (state->im) {
 161:emulator/z80emu/z80emu.c **** 
 162:emulator/z80emu/z80emu.c ****                         case Z80_INTERRUPT_MODE_0: {
 163:emulator/z80emu/z80emu.c ****                                 
 164:emulator/z80emu/z80emu.c ****                                 /* Assuming the opcode in data_on_bus is an
 165:emulator/z80emu/z80emu.c ****                                  * RST instruction, accepting the interrupt
 166:emulator/z80emu/z80emu.c ****                                  * should take 2 + 11 = 13 cycles.
 167:emulator/z80emu/z80emu.c ****                                  */
 168:emulator/z80emu/z80emu.c **** 
 169:emulator/z80emu/z80emu.c ****                                 return emulate(state, 
 170:emulator/z80emu/z80emu.c **** 					data_on_bus, 
 171:emulator/z80emu/z80emu.c **** 					2, 4, 
 172:emulator/z80emu/z80emu.c **** 					context);
 173:emulator/z80emu/z80emu.c ****                                 
 174:emulator/z80emu/z80emu.c ****                         }
 175:emulator/z80emu/z80emu.c **** 
 176:emulator/z80emu/z80emu.c ****                         case Z80_INTERRUPT_MODE_1: {
 177:emulator/z80emu/z80emu.c **** 
 178:emulator/z80emu/z80emu.c **** 				int	elapsed_cycles;
 179:emulator/z80emu/z80emu.c **** 
 180:emulator/z80emu/z80emu.c **** 				elapsed_cycles = 0;
 181:emulator/z80emu/z80emu.c ****                                 SP -= 2;
 182:emulator/z80emu/z80emu.c ****                                 Z80_WRITE_WORD_INTERRUPT(SP, state->pc);
 183:emulator/z80emu/z80emu.c ****                                 state->pc = 0x0038;
 184:emulator/z80emu/z80emu.c ****                                 return elapsed_cycles + 13;
 185:emulator/z80emu/z80emu.c **** 
 186:emulator/z80emu/z80emu.c ****                         }
 187:emulator/z80emu/z80emu.c **** 
 188:emulator/z80emu/z80emu.c ****                         case Z80_INTERRUPT_MODE_2:
 189:emulator/z80emu/z80emu.c ****                         default: {
 190:emulator/z80emu/z80emu.c **** 
 191:emulator/z80emu/z80emu.c **** 				int	elapsed_cycles, vector;
 192:emulator/z80emu/z80emu.c **** 
 193:emulator/z80emu/z80emu.c **** 				elapsed_cycles = 0;
 194:emulator/z80emu/z80emu.c ****                                 SP -= 2;
 195:emulator/z80emu/z80emu.c ****                                 Z80_WRITE_WORD_INTERRUPT(SP, state->pc);
 196:emulator/z80emu/z80emu.c **** 				vector = state->i << 8 | data_on_bus;
 197:emulator/z80emu/z80emu.c **** 
 198:emulator/z80emu/z80emu.c **** #ifdef Z80_MASK_IM2_VECTOR_ADDRESS
 199:emulator/z80emu/z80emu.c **** 
 200:emulator/z80emu/z80emu.c ****                                 vector &= 0xfffe;
 201:emulator/z80emu/z80emu.c **** 
 202:emulator/z80emu/z80emu.c **** #endif
 203:emulator/z80emu/z80emu.c **** 
ARM GAS  /tmp/ccoto6PB.s 			page 5


 204:emulator/z80emu/z80emu.c **** 				Z80_READ_WORD_INTERRUPT(vector, state->pc);
 205:emulator/z80emu/z80emu.c ****                                 return elapsed_cycles + 19;
 206:emulator/z80emu/z80emu.c ****                                 
 207:emulator/z80emu/z80emu.c ****                         }
 208:emulator/z80emu/z80emu.c **** 
 209:emulator/z80emu/z80emu.c ****                 }
 210:emulator/z80emu/z80emu.c ****                 
 211:emulator/z80emu/z80emu.c ****         } else
 212:emulator/z80emu/z80emu.c ****                 
 213:emulator/z80emu/z80emu.c ****                 return 0;
 214:emulator/z80emu/z80emu.c **** }
 215:emulator/z80emu/z80emu.c **** 
 216:emulator/z80emu/z80emu.c **** int Z80NonMaskableInterrupt (Z80_STATE *state, void *context)
 217:emulator/z80emu/z80emu.c **** {
 218:emulator/z80emu/z80emu.c **** 	int	elapsed_cycles;
 219:emulator/z80emu/z80emu.c **** 
 220:emulator/z80emu/z80emu.c ****         state->status = 0;
 221:emulator/z80emu/z80emu.c **** 
 222:emulator/z80emu/z80emu.c ****         state->iff2 = state->iff1;
 223:emulator/z80emu/z80emu.c ****         state->iff1 = 0;
 224:emulator/z80emu/z80emu.c ****         state->r = (state->r & 0x80) | ((state->r + 1) & 0x7f);
 225:emulator/z80emu/z80emu.c **** 
 226:emulator/z80emu/z80emu.c **** 	elapsed_cycles = 0;
 227:emulator/z80emu/z80emu.c ****         SP -= 2;
 228:emulator/z80emu/z80emu.c ****         Z80_WRITE_WORD_INTERRUPT(SP, state->pc);
 229:emulator/z80emu/z80emu.c ****         state->pc = 0x0066;
 230:emulator/z80emu/z80emu.c ****         
 231:emulator/z80emu/z80emu.c ****         return elapsed_cycles + 11;
 232:emulator/z80emu/z80emu.c **** }
 233:emulator/z80emu/z80emu.c **** 
 234:emulator/z80emu/z80emu.c **** int Z80Emulate (Z80_STATE *state, int number_cycles, void *context)
 235:emulator/z80emu/z80emu.c **** {
 236:emulator/z80emu/z80emu.c ****         int     elapsed_cycles, pc, opcode;
 237:emulator/z80emu/z80emu.c **** 
 238:emulator/z80emu/z80emu.c ****         state->status = 0;
 239:emulator/z80emu/z80emu.c **** 	elapsed_cycles = 0;
 240:emulator/z80emu/z80emu.c **** 	pc = state->pc;
 241:emulator/z80emu/z80emu.c ****         Z80_FETCH_BYTE(pc, opcode);
 242:emulator/z80emu/z80emu.c ****         state->pc = pc + 1;
 243:emulator/z80emu/z80emu.c **** 
 244:emulator/z80emu/z80emu.c ****         return emulate(state, opcode, elapsed_cycles, number_cycles, context);
 245:emulator/z80emu/z80emu.c **** }
 246:emulator/z80emu/z80emu.c **** 
 247:emulator/z80emu/z80emu.c **** /* Actual emulation function. opcode is the first opcode to emulate, this is 
 248:emulator/z80emu/z80emu.c ****  * needed by Z80Interrupt() for interrupt mode 0.
 249:emulator/z80emu/z80emu.c ****  */
 250:emulator/z80emu/z80emu.c **** 
 251:emulator/z80emu/z80emu.c **** static int emulate (Z80_STATE * state, 
 252:emulator/z80emu/z80emu.c **** 	int opcode, 
 253:emulator/z80emu/z80emu.c **** 	int elapsed_cycles, int number_cycles, 
 254:emulator/z80emu/z80emu.c **** 	void *context)
 255:emulator/z80emu/z80emu.c **** {
  27              		.loc 1 255 1 view -0
  28              		.cfi_startproc
  29              		@ args = 4, pretend = 0, frame = 24
  30              		@ frame_needed = 0, uses_anonymous_args = 0
  31              		.loc 1 255 1 is_stmt 0 view .LVU1
ARM GAS  /tmp/ccoto6PB.s 			page 6


  32 0000 2DE9F04F 		push	{r4, r5, r6, r7, r8, r9, r10, fp, lr}
  33              	.LCFI0:
  34              		.cfi_def_cfa_offset 36
  35              		.cfi_offset 4, -36
  36              		.cfi_offset 5, -32
  37              		.cfi_offset 6, -28
  38              		.cfi_offset 7, -24
  39              		.cfi_offset 8, -20
  40              		.cfi_offset 9, -16
  41              		.cfi_offset 10, -12
  42              		.cfi_offset 11, -8
  43              		.cfi_offset 14, -4
  44 0004 87B0     		sub	sp, sp, #28
  45              	.LCFI1:
  46              		.cfi_def_cfa_offset 64
  47 0006 0546     		mov	r5, r0
  48 0008 0C46     		mov	r4, r1
  49 000a 1646     		mov	r6, r2
  50 000c 0293     		str	r3, [sp, #8]
  51 000e DDF84090 		ldr	r9, [sp, #64]
 256:emulator/z80emu/z80emu.c ****         int	pc, r;
  52              		.loc 1 256 9 is_stmt 1 view .LVU2
 257:emulator/z80emu/z80emu.c **** 
 258:emulator/z80emu/z80emu.c ****         pc = state->pc;
  53              		.loc 1 258 9 view .LVU3
  54              		.loc 1 258 12 is_stmt 0 view .LVU4
  55 0012 D0F824A0 		ldr	r10, [r0, #36]
  56              	.LVL1:
 259:emulator/z80emu/z80emu.c ****         r = state->r & 0x7f;
  57              		.loc 1 259 9 is_stmt 1 view .LVU5
  58              		.loc 1 259 18 is_stmt 0 view .LVU6
  59 0016 076A     		ldr	r7, [r0, #32]
  60              		.loc 1 259 11 view .LVU7
  61 0018 07F07F07 		and	r7, r7, #127
  62              	.LVL2:
 260:emulator/z80emu/z80emu.c ****         goto start_emulation;
  63              		.loc 1 260 9 is_stmt 1 view .LVU8
  64 001c D346     		mov	fp, r10
  65 001e 19E0     		b	.L2
  66              	.LVL3:
  67              	.L130:
  68              		.loc 1 260 9 is_stmt 0 view .LVU9
  69 0020 5646     		mov	r6, r10
  70 0022 A246     		mov	r10, r4
  71              	.LVL4:
  72              	.LBB2:
 261:emulator/z80emu/z80emu.c **** 
 262:emulator/z80emu/z80emu.c ****         for ( ; ; ) {   
 263:emulator/z80emu/z80emu.c **** 
 264:emulator/z80emu/z80emu.c ****                 void    **registers; 
 265:emulator/z80emu/z80emu.c ****                 int     instruction;
 266:emulator/z80emu/z80emu.c **** 
 267:emulator/z80emu/z80emu.c ****                 Z80_FETCH_BYTE(pc, opcode);
 268:emulator/z80emu/z80emu.c ****                 pc++;
 269:emulator/z80emu/z80emu.c **** 
 270:emulator/z80emu/z80emu.c **** start_emulation:                
 271:emulator/z80emu/z80emu.c **** 
ARM GAS  /tmp/ccoto6PB.s 			page 7


 272:emulator/z80emu/z80emu.c ****                 registers = state->register_table;
 273:emulator/z80emu/z80emu.c **** 
 274:emulator/z80emu/z80emu.c **** emulate_next_opcode:
 275:emulator/z80emu/z80emu.c **** 
 276:emulator/z80emu/z80emu.c ****                 instruction = INSTRUCTION_TABLE[opcode];
 277:emulator/z80emu/z80emu.c **** 
 278:emulator/z80emu/z80emu.c **** emulate_next_instruction:
 279:emulator/z80emu/z80emu.c **** 
 280:emulator/z80emu/z80emu.c ****                 elapsed_cycles += 4;
 281:emulator/z80emu/z80emu.c ****                 r++;
 282:emulator/z80emu/z80emu.c ****                 switch (instruction) {
 283:emulator/z80emu/z80emu.c **** 
 284:emulator/z80emu/z80emu.c ****                         /* 8-bit load group. */
 285:emulator/z80emu/z80emu.c **** 
 286:emulator/z80emu/z80emu.c ****                         case LD_R_R: {
 287:emulator/z80emu/z80emu.c **** 
 288:emulator/z80emu/z80emu.c ****                                 R(Y(opcode)) = R(Z(opcode));
  73              		.loc 1 288 33 is_stmt 1 view .LVU10
  74              		.loc 1 288 48 is_stmt 0 view .LVU11
  75 0024 00F00703 		and	r3, r0, #7
  76              	.LVL5:
  77              		.loc 1 288 48 view .LVU12
  78 0028 0199     		ldr	r1, [sp, #4]
  79 002a 51F82320 		ldr	r2, [r1, r3, lsl #2]
  80              		.loc 1 288 33 view .LVU13
  81 002e C0F3C204 		ubfx	r4, r0, #3, #3
  82              	.LVL6:
  83              		.loc 1 288 33 view .LVU14
  84 0032 51F82430 		ldr	r3, [r1, r4, lsl #2]
  85              		.loc 1 288 48 view .LVU15
  86 0036 1278     		ldrb	r2, [r2]	@ zero_extendqisi2
  87              		.loc 1 288 46 view .LVU16
  88 0038 1A70     		strb	r2, [r3]
 289:emulator/z80emu/z80emu.c ****                                 break;
  89              		.loc 1 289 33 is_stmt 1 view .LVU17
  90              	.LVL7:
  91              	.L7:
 290:emulator/z80emu/z80emu.c **** 
 291:emulator/z80emu/z80emu.c ****                         }
 292:emulator/z80emu/z80emu.c **** 
 293:emulator/z80emu/z80emu.c ****                         case LD_R_N: {
 294:emulator/z80emu/z80emu.c **** 
 295:emulator/z80emu/z80emu.c ****                                 READ_N(R(Y(opcode)));
 296:emulator/z80emu/z80emu.c ****                                 break;
 297:emulator/z80emu/z80emu.c **** 
 298:emulator/z80emu/z80emu.c ****                         }
 299:emulator/z80emu/z80emu.c **** 
 300:emulator/z80emu/z80emu.c ****                         case LD_R_INDIRECT_HL: {
 301:emulator/z80emu/z80emu.c **** 
 302:emulator/z80emu/z80emu.c ****                                 if (registers == state->register_table) {
 303:emulator/z80emu/z80emu.c **** 
 304:emulator/z80emu/z80emu.c ****                                         READ_BYTE(HL, R(Y(opcode)));
 305:emulator/z80emu/z80emu.c **** 
 306:emulator/z80emu/z80emu.c ****                                 } else {
 307:emulator/z80emu/z80emu.c **** 
 308:emulator/z80emu/z80emu.c ****                                         int     d;
 309:emulator/z80emu/z80emu.c **** 
ARM GAS  /tmp/ccoto6PB.s 			page 8


 310:emulator/z80emu/z80emu.c ****                                         READ_D(d);
 311:emulator/z80emu/z80emu.c ****                                         d += HL_IX_IY;
 312:emulator/z80emu/z80emu.c ****                                         READ_BYTE(d, S(Y(opcode)));
 313:emulator/z80emu/z80emu.c **** 
 314:emulator/z80emu/z80emu.c ****                                         elapsed_cycles += 5;
 315:emulator/z80emu/z80emu.c **** 
 316:emulator/z80emu/z80emu.c ****                                 }
 317:emulator/z80emu/z80emu.c ****                                 break;
 318:emulator/z80emu/z80emu.c **** 
 319:emulator/z80emu/z80emu.c ****                         }
 320:emulator/z80emu/z80emu.c **** 
 321:emulator/z80emu/z80emu.c ****                         case LD_INDIRECT_HL_R: {
 322:emulator/z80emu/z80emu.c **** 
 323:emulator/z80emu/z80emu.c ****                                 if (registers == state->register_table) {
 324:emulator/z80emu/z80emu.c **** 
 325:emulator/z80emu/z80emu.c ****                                         WRITE_BYTE(HL, R(Z(opcode)));
 326:emulator/z80emu/z80emu.c **** 
 327:emulator/z80emu/z80emu.c ****                                 } else {
 328:emulator/z80emu/z80emu.c **** 
 329:emulator/z80emu/z80emu.c ****                                         int     d;
 330:emulator/z80emu/z80emu.c **** 
 331:emulator/z80emu/z80emu.c ****                                         READ_D(d);
 332:emulator/z80emu/z80emu.c ****                                         d += HL_IX_IY;
 333:emulator/z80emu/z80emu.c ****                                         WRITE_BYTE(d, S(Z(opcode)));
 334:emulator/z80emu/z80emu.c **** 
 335:emulator/z80emu/z80emu.c ****                                         elapsed_cycles += 5;
 336:emulator/z80emu/z80emu.c **** 
 337:emulator/z80emu/z80emu.c ****                                 }
 338:emulator/z80emu/z80emu.c ****                                 break;
 339:emulator/z80emu/z80emu.c **** 
 340:emulator/z80emu/z80emu.c ****                         }
 341:emulator/z80emu/z80emu.c **** 
 342:emulator/z80emu/z80emu.c ****                         case LD_INDIRECT_HL_N: {
 343:emulator/z80emu/z80emu.c **** 
 344:emulator/z80emu/z80emu.c ****                                 int     n;
 345:emulator/z80emu/z80emu.c **** 
 346:emulator/z80emu/z80emu.c ****                                 if (registers == state->register_table) {
 347:emulator/z80emu/z80emu.c **** 
 348:emulator/z80emu/z80emu.c ****                                         READ_N(n);
 349:emulator/z80emu/z80emu.c ****                                         WRITE_BYTE(HL, n);
 350:emulator/z80emu/z80emu.c **** 
 351:emulator/z80emu/z80emu.c ****                                 } else {
 352:emulator/z80emu/z80emu.c **** 
 353:emulator/z80emu/z80emu.c ****                                         int     d;
 354:emulator/z80emu/z80emu.c **** 
 355:emulator/z80emu/z80emu.c ****                                         READ_D(d);
 356:emulator/z80emu/z80emu.c ****                                         d += HL_IX_IY;
 357:emulator/z80emu/z80emu.c ****                                         READ_N(n);
 358:emulator/z80emu/z80emu.c ****                                         WRITE_BYTE(d, n);
 359:emulator/z80emu/z80emu.c **** 
 360:emulator/z80emu/z80emu.c ****                                         elapsed_cycles += 2;
 361:emulator/z80emu/z80emu.c **** 
 362:emulator/z80emu/z80emu.c ****                                 }
 363:emulator/z80emu/z80emu.c **** 
 364:emulator/z80emu/z80emu.c ****                                 break;
 365:emulator/z80emu/z80emu.c **** 
 366:emulator/z80emu/z80emu.c ****                         }
ARM GAS  /tmp/ccoto6PB.s 			page 9


 367:emulator/z80emu/z80emu.c **** 
 368:emulator/z80emu/z80emu.c ****                         case LD_A_INDIRECT_BC: {
 369:emulator/z80emu/z80emu.c **** 
 370:emulator/z80emu/z80emu.c ****                                 READ_BYTE(BC, A);
 371:emulator/z80emu/z80emu.c ****                                 break;
 372:emulator/z80emu/z80emu.c **** 
 373:emulator/z80emu/z80emu.c ****                         }
 374:emulator/z80emu/z80emu.c **** 
 375:emulator/z80emu/z80emu.c ****                         case LD_A_INDIRECT_DE: {
 376:emulator/z80emu/z80emu.c **** 
 377:emulator/z80emu/z80emu.c ****                                 READ_BYTE(DE, A);
 378:emulator/z80emu/z80emu.c ****                                 break;
 379:emulator/z80emu/z80emu.c **** 
 380:emulator/z80emu/z80emu.c ****                         }
 381:emulator/z80emu/z80emu.c **** 
 382:emulator/z80emu/z80emu.c ****                         case LD_A_INDIRECT_NN: {
 383:emulator/z80emu/z80emu.c **** 
 384:emulator/z80emu/z80emu.c ****                                 int     nn;
 385:emulator/z80emu/z80emu.c **** 
 386:emulator/z80emu/z80emu.c ****                                 READ_NN(nn);
 387:emulator/z80emu/z80emu.c ****                                 READ_BYTE(nn, A);
 388:emulator/z80emu/z80emu.c ****                                 break;
 389:emulator/z80emu/z80emu.c **** 
 390:emulator/z80emu/z80emu.c ****                         }
 391:emulator/z80emu/z80emu.c **** 
 392:emulator/z80emu/z80emu.c ****                         case LD_INDIRECT_BC_A: {
 393:emulator/z80emu/z80emu.c **** 
 394:emulator/z80emu/z80emu.c ****                                 WRITE_BYTE(BC, A);
 395:emulator/z80emu/z80emu.c ****                                 break;
 396:emulator/z80emu/z80emu.c **** 
 397:emulator/z80emu/z80emu.c ****                         }
 398:emulator/z80emu/z80emu.c **** 
 399:emulator/z80emu/z80emu.c ****                         case LD_INDIRECT_DE_A: {
 400:emulator/z80emu/z80emu.c **** 
 401:emulator/z80emu/z80emu.c ****                                 WRITE_BYTE(DE, A);
 402:emulator/z80emu/z80emu.c ****                                 break;
 403:emulator/z80emu/z80emu.c **** 
 404:emulator/z80emu/z80emu.c ****                         }
 405:emulator/z80emu/z80emu.c **** 
 406:emulator/z80emu/z80emu.c ****                         case LD_INDIRECT_NN_A: {
 407:emulator/z80emu/z80emu.c **** 
 408:emulator/z80emu/z80emu.c ****                                 int     nn;
 409:emulator/z80emu/z80emu.c **** 
 410:emulator/z80emu/z80emu.c ****                                 READ_NN(nn);
 411:emulator/z80emu/z80emu.c ****                                 WRITE_BYTE(nn, A);
 412:emulator/z80emu/z80emu.c ****                                 break;
 413:emulator/z80emu/z80emu.c **** 
 414:emulator/z80emu/z80emu.c ****                         }
 415:emulator/z80emu/z80emu.c **** 
 416:emulator/z80emu/z80emu.c ****                         case LD_A_I_LD_A_R: {
 417:emulator/z80emu/z80emu.c **** 
 418:emulator/z80emu/z80emu.c ****                                 int     a, f;
 419:emulator/z80emu/z80emu.c **** 
 420:emulator/z80emu/z80emu.c ****                                 a = opcode == OPCODE_LD_A_I 
 421:emulator/z80emu/z80emu.c ****                                         ? state->i 
 422:emulator/z80emu/z80emu.c ****                                         : (state->r & 0x80) | (r & 0x7f);
 423:emulator/z80emu/z80emu.c ****                                 f = SZYX_FLAGS_TABLE[a];
ARM GAS  /tmp/ccoto6PB.s 			page 10


 424:emulator/z80emu/z80emu.c **** 
 425:emulator/z80emu/z80emu.c ****                                 /* Note: On a real processor, if an interrupt
 426:emulator/z80emu/z80emu.c ****                                  * occurs during the execution of either 
 427:emulator/z80emu/z80emu.c ****                                  * "LD A, I" or "LD A, R", the parity flag is
 428:emulator/z80emu/z80emu.c ****                                  * reset. That can never happen here.
 429:emulator/z80emu/z80emu.c ****                                  */ 
 430:emulator/z80emu/z80emu.c **** 
 431:emulator/z80emu/z80emu.c ****                                 f |= state->iff2 << Z80_P_FLAG_SHIFT;
 432:emulator/z80emu/z80emu.c ****                                 f |= F & Z80_C_FLAG;
 433:emulator/z80emu/z80emu.c **** 
 434:emulator/z80emu/z80emu.c ****                                 AF = (a << 8) | f;
 435:emulator/z80emu/z80emu.c **** 
 436:emulator/z80emu/z80emu.c ****                                 elapsed_cycles++;
 437:emulator/z80emu/z80emu.c **** 
 438:emulator/z80emu/z80emu.c ****                                 break;
 439:emulator/z80emu/z80emu.c **** 
 440:emulator/z80emu/z80emu.c ****                         }
 441:emulator/z80emu/z80emu.c **** 
 442:emulator/z80emu/z80emu.c ****                         case LD_I_A_LD_R_A: {
 443:emulator/z80emu/z80emu.c **** 
 444:emulator/z80emu/z80emu.c ****                                 if (opcode == OPCODE_LD_I_A)
 445:emulator/z80emu/z80emu.c **** 
 446:emulator/z80emu/z80emu.c ****                                         state->i = A;
 447:emulator/z80emu/z80emu.c **** 
 448:emulator/z80emu/z80emu.c ****                                 else {
 449:emulator/z80emu/z80emu.c **** 
 450:emulator/z80emu/z80emu.c ****                                         state->r = A;
 451:emulator/z80emu/z80emu.c ****                                         r = A & 0x7f;
 452:emulator/z80emu/z80emu.c **** 
 453:emulator/z80emu/z80emu.c ****                                 }
 454:emulator/z80emu/z80emu.c **** 
 455:emulator/z80emu/z80emu.c ****                                 elapsed_cycles++;
 456:emulator/z80emu/z80emu.c **** 
 457:emulator/z80emu/z80emu.c ****                                 break;
 458:emulator/z80emu/z80emu.c **** 
 459:emulator/z80emu/z80emu.c ****                         }
 460:emulator/z80emu/z80emu.c **** 
 461:emulator/z80emu/z80emu.c ****                         /* 16-bit load group. */
 462:emulator/z80emu/z80emu.c **** 
 463:emulator/z80emu/z80emu.c ****                         case LD_RR_NN: {
 464:emulator/z80emu/z80emu.c **** 
 465:emulator/z80emu/z80emu.c ****                                 READ_NN(RR(P(opcode)));
 466:emulator/z80emu/z80emu.c ****                                 break;
 467:emulator/z80emu/z80emu.c **** 
 468:emulator/z80emu/z80emu.c ****                         }
 469:emulator/z80emu/z80emu.c **** 
 470:emulator/z80emu/z80emu.c ****                         case LD_HL_INDIRECT_NN: {
 471:emulator/z80emu/z80emu.c **** 
 472:emulator/z80emu/z80emu.c ****                                 int     nn;
 473:emulator/z80emu/z80emu.c **** 
 474:emulator/z80emu/z80emu.c ****                                 READ_NN(nn);
 475:emulator/z80emu/z80emu.c ****                                 READ_WORD(nn, HL_IX_IY);
 476:emulator/z80emu/z80emu.c ****                                 break;
 477:emulator/z80emu/z80emu.c **** 
 478:emulator/z80emu/z80emu.c ****                         }
 479:emulator/z80emu/z80emu.c **** 
 480:emulator/z80emu/z80emu.c ****                         case LD_RR_INDIRECT_NN: {
ARM GAS  /tmp/ccoto6PB.s 			page 11


 481:emulator/z80emu/z80emu.c **** 
 482:emulator/z80emu/z80emu.c ****                                 int     nn;
 483:emulator/z80emu/z80emu.c **** 
 484:emulator/z80emu/z80emu.c ****                                 READ_NN(nn);
 485:emulator/z80emu/z80emu.c ****                                 READ_WORD(nn, RR(P(opcode)));
 486:emulator/z80emu/z80emu.c ****                                 break;
 487:emulator/z80emu/z80emu.c **** 
 488:emulator/z80emu/z80emu.c ****                         }
 489:emulator/z80emu/z80emu.c **** 
 490:emulator/z80emu/z80emu.c ****                         case LD_INDIRECT_NN_HL: {
 491:emulator/z80emu/z80emu.c **** 
 492:emulator/z80emu/z80emu.c ****                                 int     nn;
 493:emulator/z80emu/z80emu.c **** 
 494:emulator/z80emu/z80emu.c ****                                 READ_NN(nn);
 495:emulator/z80emu/z80emu.c ****                                 WRITE_WORD(nn, HL_IX_IY);
 496:emulator/z80emu/z80emu.c ****                                 break;
 497:emulator/z80emu/z80emu.c **** 
 498:emulator/z80emu/z80emu.c ****                         }
 499:emulator/z80emu/z80emu.c **** 
 500:emulator/z80emu/z80emu.c ****                         case LD_INDIRECT_NN_RR: {
 501:emulator/z80emu/z80emu.c **** 
 502:emulator/z80emu/z80emu.c ****                                 int     nn;
 503:emulator/z80emu/z80emu.c **** 
 504:emulator/z80emu/z80emu.c ****                                 READ_NN(nn);
 505:emulator/z80emu/z80emu.c ****                                 WRITE_WORD(nn, RR(P(opcode)));
 506:emulator/z80emu/z80emu.c ****                                 break;
 507:emulator/z80emu/z80emu.c **** 
 508:emulator/z80emu/z80emu.c ****                         }
 509:emulator/z80emu/z80emu.c **** 
 510:emulator/z80emu/z80emu.c ****                         case LD_SP_HL: {
 511:emulator/z80emu/z80emu.c **** 
 512:emulator/z80emu/z80emu.c ****                                 SP = HL_IX_IY;
 513:emulator/z80emu/z80emu.c ****                                 elapsed_cycles += 2;
 514:emulator/z80emu/z80emu.c ****                                 break;
 515:emulator/z80emu/z80emu.c **** 
 516:emulator/z80emu/z80emu.c ****                         }
 517:emulator/z80emu/z80emu.c **** 
 518:emulator/z80emu/z80emu.c ****                         case PUSH_SS: {
 519:emulator/z80emu/z80emu.c **** 
 520:emulator/z80emu/z80emu.c ****                                 PUSH(SS(P(opcode)));
 521:emulator/z80emu/z80emu.c ****                                 elapsed_cycles++;
 522:emulator/z80emu/z80emu.c ****                                 break;
 523:emulator/z80emu/z80emu.c **** 
 524:emulator/z80emu/z80emu.c ****                         }
 525:emulator/z80emu/z80emu.c **** 
 526:emulator/z80emu/z80emu.c ****                         case POP_SS: {
 527:emulator/z80emu/z80emu.c **** 
 528:emulator/z80emu/z80emu.c ****                                 POP(SS(P(opcode)));
 529:emulator/z80emu/z80emu.c ****                                 break;
 530:emulator/z80emu/z80emu.c **** 
 531:emulator/z80emu/z80emu.c ****                         }
 532:emulator/z80emu/z80emu.c **** 
 533:emulator/z80emu/z80emu.c ****                         /* Exchange, block transfer and search group. */
 534:emulator/z80emu/z80emu.c **** 
 535:emulator/z80emu/z80emu.c ****                         case EX_DE_HL: {
 536:emulator/z80emu/z80emu.c **** 
 537:emulator/z80emu/z80emu.c ****                                 EXCHANGE(DE, HL);
ARM GAS  /tmp/ccoto6PB.s 			page 12


 538:emulator/z80emu/z80emu.c ****                                 break;                          
 539:emulator/z80emu/z80emu.c **** 
 540:emulator/z80emu/z80emu.c ****                         }
 541:emulator/z80emu/z80emu.c **** 
 542:emulator/z80emu/z80emu.c ****                         case EX_AF_AF_PRIME: {
 543:emulator/z80emu/z80emu.c **** 
 544:emulator/z80emu/z80emu.c ****                                 EXCHANGE(AF, state->alternates[Z80_AF]);
 545:emulator/z80emu/z80emu.c ****                                 break;
 546:emulator/z80emu/z80emu.c **** 
 547:emulator/z80emu/z80emu.c ****                         }
 548:emulator/z80emu/z80emu.c **** 
 549:emulator/z80emu/z80emu.c ****                         case EXX: {
 550:emulator/z80emu/z80emu.c **** 
 551:emulator/z80emu/z80emu.c ****                                 EXCHANGE(BC, state->alternates[Z80_BC]);
 552:emulator/z80emu/z80emu.c ****                                 EXCHANGE(DE, state->alternates[Z80_DE]);
 553:emulator/z80emu/z80emu.c ****                                 EXCHANGE(HL, state->alternates[Z80_HL]);
 554:emulator/z80emu/z80emu.c ****                                 break;
 555:emulator/z80emu/z80emu.c **** 
 556:emulator/z80emu/z80emu.c ****                         }                                               
 557:emulator/z80emu/z80emu.c **** 
 558:emulator/z80emu/z80emu.c ****                         case EX_INDIRECT_SP_HL: {
 559:emulator/z80emu/z80emu.c **** 
 560:emulator/z80emu/z80emu.c ****                                 int     t;
 561:emulator/z80emu/z80emu.c **** 
 562:emulator/z80emu/z80emu.c ****                                 READ_WORD(SP, t);
 563:emulator/z80emu/z80emu.c ****                                 WRITE_WORD(SP, HL_IX_IY);
 564:emulator/z80emu/z80emu.c ****                                 HL_IX_IY = t;
 565:emulator/z80emu/z80emu.c **** 
 566:emulator/z80emu/z80emu.c ****                                 elapsed_cycles += 3;
 567:emulator/z80emu/z80emu.c **** 
 568:emulator/z80emu/z80emu.c ****                                 break;                                               
 569:emulator/z80emu/z80emu.c ****                         }
 570:emulator/z80emu/z80emu.c **** 
 571:emulator/z80emu/z80emu.c ****                         case LDI_LDD: {
 572:emulator/z80emu/z80emu.c **** 
 573:emulator/z80emu/z80emu.c ****                                 int     n, f, d;
 574:emulator/z80emu/z80emu.c **** 
 575:emulator/z80emu/z80emu.c ****                                 READ_BYTE(HL, n);
 576:emulator/z80emu/z80emu.c ****                                 WRITE_BYTE(DE, n);
 577:emulator/z80emu/z80emu.c **** 
 578:emulator/z80emu/z80emu.c ****                                 f = F & SZC_FLAGS;
 579:emulator/z80emu/z80emu.c ****                                 f |= --BC ? Z80_P_FLAG : 0;
 580:emulator/z80emu/z80emu.c **** 
 581:emulator/z80emu/z80emu.c **** #ifndef Z80_DOCUMENTED_FLAGS_ONLY
 582:emulator/z80emu/z80emu.c **** 
 583:emulator/z80emu/z80emu.c ****                                 n += A;
 584:emulator/z80emu/z80emu.c ****                                 f |= n & Z80_X_FLAG;
 585:emulator/z80emu/z80emu.c ****                                 f |= (n << (Z80_Y_FLAG_SHIFT - 1)) 
 586:emulator/z80emu/z80emu.c ****                                         & Z80_Y_FLAG;
 587:emulator/z80emu/z80emu.c **** 
 588:emulator/z80emu/z80emu.c **** #endif
 589:emulator/z80emu/z80emu.c **** 
 590:emulator/z80emu/z80emu.c ****                                 F = f;
 591:emulator/z80emu/z80emu.c **** 
 592:emulator/z80emu/z80emu.c ****                                 d = opcode == OPCODE_LDI ? +1 : -1;
 593:emulator/z80emu/z80emu.c ****                                 DE += d;
 594:emulator/z80emu/z80emu.c ****                                 HL += d;
ARM GAS  /tmp/ccoto6PB.s 			page 13


 595:emulator/z80emu/z80emu.c **** 
 596:emulator/z80emu/z80emu.c ****                                 elapsed_cycles += 2;
 597:emulator/z80emu/z80emu.c **** 
 598:emulator/z80emu/z80emu.c ****                                 break;
 599:emulator/z80emu/z80emu.c **** 
 600:emulator/z80emu/z80emu.c ****                         }
 601:emulator/z80emu/z80emu.c **** 
 602:emulator/z80emu/z80emu.c ****                         case LDIR_LDDR: {
 603:emulator/z80emu/z80emu.c **** 
 604:emulator/z80emu/z80emu.c ****                                 int     d, f, bc, de, hl, n;
 605:emulator/z80emu/z80emu.c ****                                 
 606:emulator/z80emu/z80emu.c **** #ifdef Z80_HANDLE_SELF_MODIFYING_CODE
 607:emulator/z80emu/z80emu.c **** 
 608:emulator/z80emu/z80emu.c ****                                 int     p, q;
 609:emulator/z80emu/z80emu.c **** 
 610:emulator/z80emu/z80emu.c ****                                 p = (pc - 2) & 0xffff;
 611:emulator/z80emu/z80emu.c ****                                 q = (pc - 1) & 0xffff;
 612:emulator/z80emu/z80emu.c **** 
 613:emulator/z80emu/z80emu.c **** #endif                          
 614:emulator/z80emu/z80emu.c **** 
 615:emulator/z80emu/z80emu.c ****                                 d = opcode == OPCODE_LDIR ? +1 : -1;
 616:emulator/z80emu/z80emu.c **** 
 617:emulator/z80emu/z80emu.c ****                                 f = F & SZC_FLAGS;
 618:emulator/z80emu/z80emu.c ****                                 bc = BC;
 619:emulator/z80emu/z80emu.c ****                                 de = DE;
 620:emulator/z80emu/z80emu.c ****                                 hl = HL;
 621:emulator/z80emu/z80emu.c **** 
 622:emulator/z80emu/z80emu.c ****                                 r -= 2;
 623:emulator/z80emu/z80emu.c ****                                 elapsed_cycles -= 8;
 624:emulator/z80emu/z80emu.c ****                                 for ( ; ; ) {
 625:emulator/z80emu/z80emu.c **** 
 626:emulator/z80emu/z80emu.c ****                                         r += 2;
 627:emulator/z80emu/z80emu.c **** 
 628:emulator/z80emu/z80emu.c ****                                         Z80_READ_BYTE(hl, n);
 629:emulator/z80emu/z80emu.c ****                                         Z80_WRITE_BYTE(de, n);
 630:emulator/z80emu/z80emu.c **** 
 631:emulator/z80emu/z80emu.c ****                                         hl += d;
 632:emulator/z80emu/z80emu.c ****                                         de += d;
 633:emulator/z80emu/z80emu.c **** 
 634:emulator/z80emu/z80emu.c ****                                         if (--bc) 
 635:emulator/z80emu/z80emu.c **** 
 636:emulator/z80emu/z80emu.c ****                                                 elapsed_cycles += 21;
 637:emulator/z80emu/z80emu.c **** 
 638:emulator/z80emu/z80emu.c ****                                         else {
 639:emulator/z80emu/z80emu.c **** 
 640:emulator/z80emu/z80emu.c ****                                                 elapsed_cycles += 16;
 641:emulator/z80emu/z80emu.c ****                                                 break;
 642:emulator/z80emu/z80emu.c **** 
 643:emulator/z80emu/z80emu.c ****                                         } 
 644:emulator/z80emu/z80emu.c **** 
 645:emulator/z80emu/z80emu.c **** #ifdef Z80_HANDLE_SELF_MODIFYING_CODE
 646:emulator/z80emu/z80emu.c **** 
 647:emulator/z80emu/z80emu.c ****                                         if (((de - d) & 0xffff) == p 
 648:emulator/z80emu/z80emu.c ****                                         || ((de - d) & 0xffff) == q) { 
 649:emulator/z80emu/z80emu.c **** 
 650:emulator/z80emu/z80emu.c ****                                                 f |= Z80_P_FLAG;
 651:emulator/z80emu/z80emu.c ****                                                 pc -= 2;
ARM GAS  /tmp/ccoto6PB.s 			page 14


 652:emulator/z80emu/z80emu.c ****                                                 break;
 653:emulator/z80emu/z80emu.c **** 
 654:emulator/z80emu/z80emu.c ****                                         }
 655:emulator/z80emu/z80emu.c **** 
 656:emulator/z80emu/z80emu.c **** #endif                                  
 657:emulator/z80emu/z80emu.c **** 
 658:emulator/z80emu/z80emu.c ****                                         if (elapsed_cycles < number_cycles) 
 659:emulator/z80emu/z80emu.c **** 
 660:emulator/z80emu/z80emu.c ****                                                 continue;
 661:emulator/z80emu/z80emu.c **** 
 662:emulator/z80emu/z80emu.c ****                                         else {
 663:emulator/z80emu/z80emu.c ****         
 664:emulator/z80emu/z80emu.c ****                                                 f |= Z80_P_FLAG;
 665:emulator/z80emu/z80emu.c ****                                                 pc -= 2;
 666:emulator/z80emu/z80emu.c ****                                                 break;
 667:emulator/z80emu/z80emu.c **** 
 668:emulator/z80emu/z80emu.c ****                                         }
 669:emulator/z80emu/z80emu.c **** 
 670:emulator/z80emu/z80emu.c ****                                 } 
 671:emulator/z80emu/z80emu.c **** 
 672:emulator/z80emu/z80emu.c ****                                 HL = hl;
 673:emulator/z80emu/z80emu.c ****                                 DE = de;
 674:emulator/z80emu/z80emu.c ****                                 BC = bc;
 675:emulator/z80emu/z80emu.c **** 
 676:emulator/z80emu/z80emu.c **** #ifndef Z80_DOCUMENTED_FLAGS_ONLY
 677:emulator/z80emu/z80emu.c **** 
 678:emulator/z80emu/z80emu.c ****                                 n += A;
 679:emulator/z80emu/z80emu.c ****                                 f |= n & Z80_X_FLAG;
 680:emulator/z80emu/z80emu.c ****                                 f |= (n << (Z80_Y_FLAG_SHIFT - 1)) 
 681:emulator/z80emu/z80emu.c ****                                         & Z80_Y_FLAG;
 682:emulator/z80emu/z80emu.c **** 
 683:emulator/z80emu/z80emu.c **** #endif
 684:emulator/z80emu/z80emu.c **** 
 685:emulator/z80emu/z80emu.c ****                                 F = f;
 686:emulator/z80emu/z80emu.c **** 
 687:emulator/z80emu/z80emu.c ****                                 break;
 688:emulator/z80emu/z80emu.c **** 
 689:emulator/z80emu/z80emu.c ****                         }
 690:emulator/z80emu/z80emu.c **** 
 691:emulator/z80emu/z80emu.c ****                         case CPI_CPD: {
 692:emulator/z80emu/z80emu.c **** 
 693:emulator/z80emu/z80emu.c ****                                 int     a, n, z, f;
 694:emulator/z80emu/z80emu.c **** 
 695:emulator/z80emu/z80emu.c ****                                 a = A;
 696:emulator/z80emu/z80emu.c ****                                 READ_BYTE(HL, n);
 697:emulator/z80emu/z80emu.c ****                                 z = a - n;
 698:emulator/z80emu/z80emu.c **** 
 699:emulator/z80emu/z80emu.c ****                                 HL += opcode == OPCODE_CPI ? +1 : -1;
 700:emulator/z80emu/z80emu.c **** 
 701:emulator/z80emu/z80emu.c ****                                 f = (a ^ n ^ z) & Z80_H_FLAG;
 702:emulator/z80emu/z80emu.c **** 
 703:emulator/z80emu/z80emu.c **** #ifndef Z80_DOCUMENTED_FLAGS_ONLY
 704:emulator/z80emu/z80emu.c **** 
 705:emulator/z80emu/z80emu.c ****                                 n = z - (f >> Z80_H_FLAG_SHIFT);
 706:emulator/z80emu/z80emu.c ****                                 f |= (n << (Z80_Y_FLAG_SHIFT - 1)) 
 707:emulator/z80emu/z80emu.c ****                                         & Z80_Y_FLAG;
 708:emulator/z80emu/z80emu.c ****                                 f |= n & Z80_X_FLAG;
ARM GAS  /tmp/ccoto6PB.s 			page 15


 709:emulator/z80emu/z80emu.c **** 
 710:emulator/z80emu/z80emu.c **** #endif
 711:emulator/z80emu/z80emu.c **** 
 712:emulator/z80emu/z80emu.c ****                                 f |= SZYX_FLAGS_TABLE[z & 0xff] & SZ_FLAGS;
 713:emulator/z80emu/z80emu.c ****                                 f |= --BC ? Z80_P_FLAG : 0;
 714:emulator/z80emu/z80emu.c ****                                 F = f | Z80_N_FLAG | (F & Z80_C_FLAG);
 715:emulator/z80emu/z80emu.c **** 
 716:emulator/z80emu/z80emu.c ****                                 elapsed_cycles += 5;
 717:emulator/z80emu/z80emu.c **** 
 718:emulator/z80emu/z80emu.c ****                                 break;
 719:emulator/z80emu/z80emu.c **** 
 720:emulator/z80emu/z80emu.c ****                         }
 721:emulator/z80emu/z80emu.c **** 
 722:emulator/z80emu/z80emu.c ****                         case CPIR_CPDR: {
 723:emulator/z80emu/z80emu.c ****                                         
 724:emulator/z80emu/z80emu.c ****                                 int     d, a, bc, hl, n, z, f;
 725:emulator/z80emu/z80emu.c **** 
 726:emulator/z80emu/z80emu.c ****                                 d = opcode == OPCODE_CPIR ? +1 : -1;
 727:emulator/z80emu/z80emu.c **** 
 728:emulator/z80emu/z80emu.c ****                                 a = A;
 729:emulator/z80emu/z80emu.c ****                                 bc = BC;
 730:emulator/z80emu/z80emu.c ****                                 hl = HL;
 731:emulator/z80emu/z80emu.c **** 
 732:emulator/z80emu/z80emu.c ****                                 r -= 2;
 733:emulator/z80emu/z80emu.c ****                                 elapsed_cycles -= 8;
 734:emulator/z80emu/z80emu.c ****                                 for ( ; ; ) {
 735:emulator/z80emu/z80emu.c **** 
 736:emulator/z80emu/z80emu.c ****                                         r += 2;
 737:emulator/z80emu/z80emu.c **** 
 738:emulator/z80emu/z80emu.c ****                                         Z80_READ_BYTE(hl, n);
 739:emulator/z80emu/z80emu.c ****                                         z = a - n;
 740:emulator/z80emu/z80emu.c **** 
 741:emulator/z80emu/z80emu.c ****                                         hl += d;
 742:emulator/z80emu/z80emu.c ****                                         if (--bc && z) 
 743:emulator/z80emu/z80emu.c **** 
 744:emulator/z80emu/z80emu.c ****                                                 elapsed_cycles += 21;
 745:emulator/z80emu/z80emu.c **** 
 746:emulator/z80emu/z80emu.c ****                                         else {
 747:emulator/z80emu/z80emu.c **** 
 748:emulator/z80emu/z80emu.c ****                                                 elapsed_cycles += 16;
 749:emulator/z80emu/z80emu.c ****                                                 break;
 750:emulator/z80emu/z80emu.c **** 
 751:emulator/z80emu/z80emu.c ****                                         } 
 752:emulator/z80emu/z80emu.c **** 
 753:emulator/z80emu/z80emu.c ****                                         if (elapsed_cycles < number_cycles) 
 754:emulator/z80emu/z80emu.c **** 
 755:emulator/z80emu/z80emu.c ****                                                 continue;
 756:emulator/z80emu/z80emu.c **** 
 757:emulator/z80emu/z80emu.c ****                                         else {
 758:emulator/z80emu/z80emu.c ****         
 759:emulator/z80emu/z80emu.c ****                                                 pc -= 2;
 760:emulator/z80emu/z80emu.c ****                                                 break;
 761:emulator/z80emu/z80emu.c **** 
 762:emulator/z80emu/z80emu.c ****                                         }
 763:emulator/z80emu/z80emu.c **** 
 764:emulator/z80emu/z80emu.c ****                                 } 
 765:emulator/z80emu/z80emu.c **** 
ARM GAS  /tmp/ccoto6PB.s 			page 16


 766:emulator/z80emu/z80emu.c ****                                 HL = hl;
 767:emulator/z80emu/z80emu.c ****                                 BC = bc;
 768:emulator/z80emu/z80emu.c **** 
 769:emulator/z80emu/z80emu.c ****                                 f = (a ^ n ^ z) & Z80_H_FLAG;
 770:emulator/z80emu/z80emu.c **** 
 771:emulator/z80emu/z80emu.c **** #ifndef Z80_DOCUMENTED_FLAGS_ONLY
 772:emulator/z80emu/z80emu.c **** 
 773:emulator/z80emu/z80emu.c ****                                 n = z - (f >> Z80_H_FLAG_SHIFT);
 774:emulator/z80emu/z80emu.c ****                                 f |= (n << (Z80_Y_FLAG_SHIFT - 1)) 
 775:emulator/z80emu/z80emu.c ****                                         & Z80_Y_FLAG;
 776:emulator/z80emu/z80emu.c ****                                 f |= n & Z80_X_FLAG;
 777:emulator/z80emu/z80emu.c **** 
 778:emulator/z80emu/z80emu.c **** #endif
 779:emulator/z80emu/z80emu.c **** 
 780:emulator/z80emu/z80emu.c ****                                 f |= SZYX_FLAGS_TABLE[z & 0xff] & SZ_FLAGS;
 781:emulator/z80emu/z80emu.c ****                                 f |= bc ? Z80_P_FLAG : 0;
 782:emulator/z80emu/z80emu.c ****                                 F = f | Z80_N_FLAG | (F & Z80_C_FLAG);
 783:emulator/z80emu/z80emu.c **** 
 784:emulator/z80emu/z80emu.c ****                                 break;
 785:emulator/z80emu/z80emu.c **** 
 786:emulator/z80emu/z80emu.c ****                         }                               
 787:emulator/z80emu/z80emu.c **** 
 788:emulator/z80emu/z80emu.c ****                         /* 8-bit arithmetic and logical group. */
 789:emulator/z80emu/z80emu.c **** 
 790:emulator/z80emu/z80emu.c ****                         case ADD_R: {
 791:emulator/z80emu/z80emu.c **** 
 792:emulator/z80emu/z80emu.c ****                                 ADD(R(Z(opcode)));
 793:emulator/z80emu/z80emu.c ****                                 break;
 794:emulator/z80emu/z80emu.c **** 
 795:emulator/z80emu/z80emu.c ****                         }
 796:emulator/z80emu/z80emu.c **** 
 797:emulator/z80emu/z80emu.c ****                         case ADD_N: {
 798:emulator/z80emu/z80emu.c **** 
 799:emulator/z80emu/z80emu.c ****                                 int     n;
 800:emulator/z80emu/z80emu.c **** 
 801:emulator/z80emu/z80emu.c ****                                 READ_N(n);
 802:emulator/z80emu/z80emu.c ****                                 ADD(n);
 803:emulator/z80emu/z80emu.c ****                                 break;
 804:emulator/z80emu/z80emu.c **** 
 805:emulator/z80emu/z80emu.c ****                         }
 806:emulator/z80emu/z80emu.c **** 
 807:emulator/z80emu/z80emu.c ****                         case ADD_INDIRECT_HL: {
 808:emulator/z80emu/z80emu.c **** 
 809:emulator/z80emu/z80emu.c ****                                 int     x;
 810:emulator/z80emu/z80emu.c **** 
 811:emulator/z80emu/z80emu.c ****                                 READ_INDIRECT_HL(x);
 812:emulator/z80emu/z80emu.c ****                                 ADD(x);
 813:emulator/z80emu/z80emu.c ****                                 break;
 814:emulator/z80emu/z80emu.c **** 
 815:emulator/z80emu/z80emu.c ****                         }
 816:emulator/z80emu/z80emu.c **** 
 817:emulator/z80emu/z80emu.c ****                         case ADC_R: {
 818:emulator/z80emu/z80emu.c **** 
 819:emulator/z80emu/z80emu.c ****                                 ADC(R(Z(opcode)));
 820:emulator/z80emu/z80emu.c ****                                 break;
 821:emulator/z80emu/z80emu.c **** 
 822:emulator/z80emu/z80emu.c ****                         }
ARM GAS  /tmp/ccoto6PB.s 			page 17


 823:emulator/z80emu/z80emu.c **** 
 824:emulator/z80emu/z80emu.c ****                         case ADC_N: {
 825:emulator/z80emu/z80emu.c **** 
 826:emulator/z80emu/z80emu.c ****                                 int     n;
 827:emulator/z80emu/z80emu.c **** 
 828:emulator/z80emu/z80emu.c ****                                 READ_N(n);
 829:emulator/z80emu/z80emu.c ****                                 ADC(n);
 830:emulator/z80emu/z80emu.c ****                                 break;
 831:emulator/z80emu/z80emu.c **** 
 832:emulator/z80emu/z80emu.c ****                         }
 833:emulator/z80emu/z80emu.c **** 
 834:emulator/z80emu/z80emu.c ****                         case ADC_INDIRECT_HL: {
 835:emulator/z80emu/z80emu.c **** 
 836:emulator/z80emu/z80emu.c ****                                 int     x;
 837:emulator/z80emu/z80emu.c **** 
 838:emulator/z80emu/z80emu.c ****                                 READ_INDIRECT_HL(x);
 839:emulator/z80emu/z80emu.c ****                                 ADC(x);
 840:emulator/z80emu/z80emu.c ****                                 break;
 841:emulator/z80emu/z80emu.c **** 
 842:emulator/z80emu/z80emu.c ****                         }
 843:emulator/z80emu/z80emu.c **** 
 844:emulator/z80emu/z80emu.c ****                         case SUB_R: {
 845:emulator/z80emu/z80emu.c **** 
 846:emulator/z80emu/z80emu.c ****                                 SUB(R(Z(opcode)));
 847:emulator/z80emu/z80emu.c ****                                 break;
 848:emulator/z80emu/z80emu.c **** 
 849:emulator/z80emu/z80emu.c ****                         }
 850:emulator/z80emu/z80emu.c **** 
 851:emulator/z80emu/z80emu.c ****                         case SUB_N: {
 852:emulator/z80emu/z80emu.c **** 
 853:emulator/z80emu/z80emu.c ****                                 int     n;
 854:emulator/z80emu/z80emu.c **** 
 855:emulator/z80emu/z80emu.c ****                                 READ_N(n);
 856:emulator/z80emu/z80emu.c ****                                 SUB(n);
 857:emulator/z80emu/z80emu.c ****                                 break;
 858:emulator/z80emu/z80emu.c **** 
 859:emulator/z80emu/z80emu.c ****                         }
 860:emulator/z80emu/z80emu.c **** 
 861:emulator/z80emu/z80emu.c ****                         case SUB_INDIRECT_HL: {
 862:emulator/z80emu/z80emu.c **** 
 863:emulator/z80emu/z80emu.c ****                                 int     x;
 864:emulator/z80emu/z80emu.c **** 
 865:emulator/z80emu/z80emu.c ****                                 READ_INDIRECT_HL(x);
 866:emulator/z80emu/z80emu.c ****                                 SUB(x);
 867:emulator/z80emu/z80emu.c ****                                 break;
 868:emulator/z80emu/z80emu.c **** 
 869:emulator/z80emu/z80emu.c ****                         }
 870:emulator/z80emu/z80emu.c **** 
 871:emulator/z80emu/z80emu.c ****                         case SBC_R: {
 872:emulator/z80emu/z80emu.c **** 
 873:emulator/z80emu/z80emu.c ****                                 SBC(R(Z(opcode)));
 874:emulator/z80emu/z80emu.c ****                                 break;
 875:emulator/z80emu/z80emu.c **** 
 876:emulator/z80emu/z80emu.c ****                         }
 877:emulator/z80emu/z80emu.c **** 
 878:emulator/z80emu/z80emu.c ****                         case SBC_N: {
 879:emulator/z80emu/z80emu.c **** 
ARM GAS  /tmp/ccoto6PB.s 			page 18


 880:emulator/z80emu/z80emu.c ****                                 int     n;
 881:emulator/z80emu/z80emu.c **** 
 882:emulator/z80emu/z80emu.c ****                                 READ_N(n);
 883:emulator/z80emu/z80emu.c ****                                 SBC(n);
 884:emulator/z80emu/z80emu.c ****                                 break;
 885:emulator/z80emu/z80emu.c **** 
 886:emulator/z80emu/z80emu.c ****                         }
 887:emulator/z80emu/z80emu.c **** 
 888:emulator/z80emu/z80emu.c ****                         case SBC_INDIRECT_HL: {
 889:emulator/z80emu/z80emu.c **** 
 890:emulator/z80emu/z80emu.c ****                                 int     x;
 891:emulator/z80emu/z80emu.c **** 
 892:emulator/z80emu/z80emu.c ****                                 READ_INDIRECT_HL(x);
 893:emulator/z80emu/z80emu.c ****                                 SBC(x);
 894:emulator/z80emu/z80emu.c ****                                 break;
 895:emulator/z80emu/z80emu.c **** 
 896:emulator/z80emu/z80emu.c ****                         }
 897:emulator/z80emu/z80emu.c **** 
 898:emulator/z80emu/z80emu.c ****                         case AND_R: {
 899:emulator/z80emu/z80emu.c **** 
 900:emulator/z80emu/z80emu.c ****                                 AND(R(Z(opcode)));
 901:emulator/z80emu/z80emu.c ****                                 break;
 902:emulator/z80emu/z80emu.c **** 
 903:emulator/z80emu/z80emu.c ****                         }
 904:emulator/z80emu/z80emu.c **** 
 905:emulator/z80emu/z80emu.c ****                         case AND_N: {
 906:emulator/z80emu/z80emu.c **** 
 907:emulator/z80emu/z80emu.c ****                                 int     n;
 908:emulator/z80emu/z80emu.c **** 
 909:emulator/z80emu/z80emu.c ****                                 READ_N(n);
 910:emulator/z80emu/z80emu.c ****                                 AND(n);
 911:emulator/z80emu/z80emu.c ****                                 break;
 912:emulator/z80emu/z80emu.c **** 
 913:emulator/z80emu/z80emu.c ****                         }
 914:emulator/z80emu/z80emu.c **** 
 915:emulator/z80emu/z80emu.c ****                         case AND_INDIRECT_HL: {
 916:emulator/z80emu/z80emu.c **** 
 917:emulator/z80emu/z80emu.c ****                                 int     x;
 918:emulator/z80emu/z80emu.c **** 
 919:emulator/z80emu/z80emu.c ****                                 READ_INDIRECT_HL(x);
 920:emulator/z80emu/z80emu.c ****                                 AND(x);
 921:emulator/z80emu/z80emu.c ****                                 break;
 922:emulator/z80emu/z80emu.c **** 
 923:emulator/z80emu/z80emu.c ****                         }
 924:emulator/z80emu/z80emu.c **** 
 925:emulator/z80emu/z80emu.c ****                         case OR_R: {
 926:emulator/z80emu/z80emu.c **** 
 927:emulator/z80emu/z80emu.c ****                                 OR(R(Z(opcode)));
 928:emulator/z80emu/z80emu.c ****                                 break;
 929:emulator/z80emu/z80emu.c **** 
 930:emulator/z80emu/z80emu.c ****                         }
 931:emulator/z80emu/z80emu.c **** 
 932:emulator/z80emu/z80emu.c ****                         case OR_N: {
 933:emulator/z80emu/z80emu.c **** 
 934:emulator/z80emu/z80emu.c ****                                 int     n;
 935:emulator/z80emu/z80emu.c **** 
 936:emulator/z80emu/z80emu.c ****                                 READ_N(n);
ARM GAS  /tmp/ccoto6PB.s 			page 19


 937:emulator/z80emu/z80emu.c ****                                 OR(n);
 938:emulator/z80emu/z80emu.c ****                                 break;
 939:emulator/z80emu/z80emu.c **** 
 940:emulator/z80emu/z80emu.c ****                         }
 941:emulator/z80emu/z80emu.c **** 
 942:emulator/z80emu/z80emu.c ****                         case OR_INDIRECT_HL: {
 943:emulator/z80emu/z80emu.c **** 
 944:emulator/z80emu/z80emu.c ****                                 int     x;
 945:emulator/z80emu/z80emu.c **** 
 946:emulator/z80emu/z80emu.c ****                                 READ_INDIRECT_HL(x);
 947:emulator/z80emu/z80emu.c ****                                 OR(x);
 948:emulator/z80emu/z80emu.c ****                                 break;
 949:emulator/z80emu/z80emu.c **** 
 950:emulator/z80emu/z80emu.c ****                         }
 951:emulator/z80emu/z80emu.c **** 
 952:emulator/z80emu/z80emu.c ****                         case XOR_R: {
 953:emulator/z80emu/z80emu.c **** 
 954:emulator/z80emu/z80emu.c ****                                 XOR(R(Z(opcode)));
 955:emulator/z80emu/z80emu.c ****                                 break;
 956:emulator/z80emu/z80emu.c **** 
 957:emulator/z80emu/z80emu.c ****                         }
 958:emulator/z80emu/z80emu.c **** 
 959:emulator/z80emu/z80emu.c ****                         case XOR_N: {
 960:emulator/z80emu/z80emu.c **** 
 961:emulator/z80emu/z80emu.c ****                                 int     n;
 962:emulator/z80emu/z80emu.c **** 
 963:emulator/z80emu/z80emu.c ****                                 READ_N(n);
 964:emulator/z80emu/z80emu.c ****                                 XOR(n);
 965:emulator/z80emu/z80emu.c ****                                 break;
 966:emulator/z80emu/z80emu.c **** 
 967:emulator/z80emu/z80emu.c ****                         }
 968:emulator/z80emu/z80emu.c **** 
 969:emulator/z80emu/z80emu.c ****                         case XOR_INDIRECT_HL: {
 970:emulator/z80emu/z80emu.c **** 
 971:emulator/z80emu/z80emu.c ****                                 int     x;
 972:emulator/z80emu/z80emu.c **** 
 973:emulator/z80emu/z80emu.c ****                                 READ_INDIRECT_HL(x);
 974:emulator/z80emu/z80emu.c ****                                 XOR(x);
 975:emulator/z80emu/z80emu.c ****                                 break;
 976:emulator/z80emu/z80emu.c **** 
 977:emulator/z80emu/z80emu.c ****                         }
 978:emulator/z80emu/z80emu.c **** 
 979:emulator/z80emu/z80emu.c ****                         case CP_R: {
 980:emulator/z80emu/z80emu.c **** 
 981:emulator/z80emu/z80emu.c ****                                 CP(R(Z(opcode)));
 982:emulator/z80emu/z80emu.c ****                                 break;
 983:emulator/z80emu/z80emu.c **** 
 984:emulator/z80emu/z80emu.c ****                         }
 985:emulator/z80emu/z80emu.c **** 
 986:emulator/z80emu/z80emu.c ****                         case CP_N: {
 987:emulator/z80emu/z80emu.c **** 
 988:emulator/z80emu/z80emu.c ****                                 int     n;
 989:emulator/z80emu/z80emu.c **** 
 990:emulator/z80emu/z80emu.c ****                                 READ_N(n);
 991:emulator/z80emu/z80emu.c ****                                 CP(n);
 992:emulator/z80emu/z80emu.c ****                                 break;
 993:emulator/z80emu/z80emu.c **** 
ARM GAS  /tmp/ccoto6PB.s 			page 20


 994:emulator/z80emu/z80emu.c ****                         }
 995:emulator/z80emu/z80emu.c **** 
 996:emulator/z80emu/z80emu.c ****                         case CP_INDIRECT_HL: {
 997:emulator/z80emu/z80emu.c **** 
 998:emulator/z80emu/z80emu.c ****                                 int     x;
 999:emulator/z80emu/z80emu.c **** 
1000:emulator/z80emu/z80emu.c ****                                 READ_INDIRECT_HL(x);
1001:emulator/z80emu/z80emu.c ****                                 CP(x);
1002:emulator/z80emu/z80emu.c ****                                 break;
1003:emulator/z80emu/z80emu.c **** 
1004:emulator/z80emu/z80emu.c ****                         }
1005:emulator/z80emu/z80emu.c **** 
1006:emulator/z80emu/z80emu.c ****                         case INC_R: {
1007:emulator/z80emu/z80emu.c **** 
1008:emulator/z80emu/z80emu.c ****                                 INC(R(Y(opcode)));
1009:emulator/z80emu/z80emu.c ****                                 break;
1010:emulator/z80emu/z80emu.c **** 
1011:emulator/z80emu/z80emu.c ****                         }
1012:emulator/z80emu/z80emu.c **** 
1013:emulator/z80emu/z80emu.c ****                         case INC_INDIRECT_HL: {
1014:emulator/z80emu/z80emu.c **** 
1015:emulator/z80emu/z80emu.c ****                                 int     x;
1016:emulator/z80emu/z80emu.c **** 
1017:emulator/z80emu/z80emu.c ****                                 if (registers == state->register_table) {
1018:emulator/z80emu/z80emu.c **** 
1019:emulator/z80emu/z80emu.c ****                                         READ_BYTE(HL, x);
1020:emulator/z80emu/z80emu.c ****                                         INC(x);
1021:emulator/z80emu/z80emu.c ****                                         WRITE_BYTE(HL, x);
1022:emulator/z80emu/z80emu.c **** 
1023:emulator/z80emu/z80emu.c ****                                         elapsed_cycles++;
1024:emulator/z80emu/z80emu.c **** 
1025:emulator/z80emu/z80emu.c ****                                 } else {
1026:emulator/z80emu/z80emu.c **** 
1027:emulator/z80emu/z80emu.c ****                                         int     d;
1028:emulator/z80emu/z80emu.c **** 
1029:emulator/z80emu/z80emu.c ****                                         READ_D(d);
1030:emulator/z80emu/z80emu.c ****                                         d += HL_IX_IY;
1031:emulator/z80emu/z80emu.c ****                                         READ_BYTE(d, x);
1032:emulator/z80emu/z80emu.c ****                                         INC(x);
1033:emulator/z80emu/z80emu.c ****                                         WRITE_BYTE(d, x);
1034:emulator/z80emu/z80emu.c **** 
1035:emulator/z80emu/z80emu.c ****                                         elapsed_cycles += 6;
1036:emulator/z80emu/z80emu.c **** 
1037:emulator/z80emu/z80emu.c ****                                 }
1038:emulator/z80emu/z80emu.c ****                                 break;
1039:emulator/z80emu/z80emu.c **** 
1040:emulator/z80emu/z80emu.c ****                         }
1041:emulator/z80emu/z80emu.c **** 
1042:emulator/z80emu/z80emu.c ****                         case DEC_R: {
1043:emulator/z80emu/z80emu.c **** 
1044:emulator/z80emu/z80emu.c ****                                 DEC(R(Y(opcode)));
1045:emulator/z80emu/z80emu.c ****                                 break;
1046:emulator/z80emu/z80emu.c **** 
1047:emulator/z80emu/z80emu.c ****                         }
1048:emulator/z80emu/z80emu.c **** 
1049:emulator/z80emu/z80emu.c ****                         case DEC_INDIRECT_HL: {
1050:emulator/z80emu/z80emu.c **** 
ARM GAS  /tmp/ccoto6PB.s 			page 21


1051:emulator/z80emu/z80emu.c ****                                 int     x;
1052:emulator/z80emu/z80emu.c **** 
1053:emulator/z80emu/z80emu.c ****                                 if (registers == state->register_table) {
1054:emulator/z80emu/z80emu.c **** 
1055:emulator/z80emu/z80emu.c ****                                         READ_BYTE(HL, x);
1056:emulator/z80emu/z80emu.c ****                                         DEC(x);
1057:emulator/z80emu/z80emu.c ****                                         WRITE_BYTE(HL, x);
1058:emulator/z80emu/z80emu.c **** 
1059:emulator/z80emu/z80emu.c ****                                         elapsed_cycles++;
1060:emulator/z80emu/z80emu.c **** 
1061:emulator/z80emu/z80emu.c ****                                 } else {
1062:emulator/z80emu/z80emu.c **** 
1063:emulator/z80emu/z80emu.c ****                                         int     d;
1064:emulator/z80emu/z80emu.c **** 
1065:emulator/z80emu/z80emu.c ****                                         READ_D(d);
1066:emulator/z80emu/z80emu.c ****                                         d += HL_IX_IY;
1067:emulator/z80emu/z80emu.c ****                                         READ_BYTE(d, x);
1068:emulator/z80emu/z80emu.c ****                                         DEC(x);
1069:emulator/z80emu/z80emu.c ****                                         WRITE_BYTE(d, x);
1070:emulator/z80emu/z80emu.c **** 
1071:emulator/z80emu/z80emu.c ****                                         elapsed_cycles += 6;
1072:emulator/z80emu/z80emu.c **** 
1073:emulator/z80emu/z80emu.c ****                                 }
1074:emulator/z80emu/z80emu.c ****                                 break;
1075:emulator/z80emu/z80emu.c **** 
1076:emulator/z80emu/z80emu.c ****                         }
1077:emulator/z80emu/z80emu.c **** 
1078:emulator/z80emu/z80emu.c ****                         /* General-purpose arithmetic and CPU control group. */
1079:emulator/z80emu/z80emu.c **** 
1080:emulator/z80emu/z80emu.c ****                         case DAA: {
1081:emulator/z80emu/z80emu.c ****                         
1082:emulator/z80emu/z80emu.c ****                                 int     a, c, d;
1083:emulator/z80emu/z80emu.c **** 
1084:emulator/z80emu/z80emu.c ****                                 /* The following algorithm is from
1085:emulator/z80emu/z80emu.c ****                                  * comp.sys.sinclair's FAQ. 
1086:emulator/z80emu/z80emu.c ****                                  */
1087:emulator/z80emu/z80emu.c **** 
1088:emulator/z80emu/z80emu.c ****                                 a = A;
1089:emulator/z80emu/z80emu.c ****                                 if (a > 0x99 || (F & Z80_C_FLAG)) {
1090:emulator/z80emu/z80emu.c **** 
1091:emulator/z80emu/z80emu.c ****                                         c = Z80_C_FLAG;
1092:emulator/z80emu/z80emu.c ****                                         d = 0x60;
1093:emulator/z80emu/z80emu.c **** 
1094:emulator/z80emu/z80emu.c ****                                 } else 
1095:emulator/z80emu/z80emu.c **** 
1096:emulator/z80emu/z80emu.c ****                                         c = d = 0;
1097:emulator/z80emu/z80emu.c **** 
1098:emulator/z80emu/z80emu.c ****                                 if ((a & 0x0f) > 0x09 || (F & Z80_H_FLAG))
1099:emulator/z80emu/z80emu.c **** 
1100:emulator/z80emu/z80emu.c ****                                         d += 0x06;
1101:emulator/z80emu/z80emu.c **** 
1102:emulator/z80emu/z80emu.c ****                                 A += F & Z80_N_FLAG ? -d : +d;
1103:emulator/z80emu/z80emu.c ****                                 F = SZYXP_FLAGS_TABLE[A]
1104:emulator/z80emu/z80emu.c ****                                         | ((A ^ a) & Z80_H_FLAG)
1105:emulator/z80emu/z80emu.c ****                                         | (F & Z80_N_FLAG)
1106:emulator/z80emu/z80emu.c ****                                         | c;
1107:emulator/z80emu/z80emu.c **** 
ARM GAS  /tmp/ccoto6PB.s 			page 22


1108:emulator/z80emu/z80emu.c ****                                 break;
1109:emulator/z80emu/z80emu.c **** 
1110:emulator/z80emu/z80emu.c ****                         }
1111:emulator/z80emu/z80emu.c **** 
1112:emulator/z80emu/z80emu.c ****                         case CPL: {
1113:emulator/z80emu/z80emu.c **** 
1114:emulator/z80emu/z80emu.c ****                                 A = ~A;
1115:emulator/z80emu/z80emu.c ****                                 F = (F & (SZPV_FLAGS | Z80_C_FLAG))
1116:emulator/z80emu/z80emu.c ****                                         
1117:emulator/z80emu/z80emu.c **** #ifndef Z80_DOCUMENTED_FLAGS_ONLY
1118:emulator/z80emu/z80emu.c **** 
1119:emulator/z80emu/z80emu.c ****                                         | (A & YX_FLAGS)
1120:emulator/z80emu/z80emu.c **** 
1121:emulator/z80emu/z80emu.c **** #endif
1122:emulator/z80emu/z80emu.c **** 
1123:emulator/z80emu/z80emu.c ****                                         | Z80_H_FLAG | Z80_N_FLAG;
1124:emulator/z80emu/z80emu.c **** 
1125:emulator/z80emu/z80emu.c ****                                 break;
1126:emulator/z80emu/z80emu.c **** 
1127:emulator/z80emu/z80emu.c ****                         }
1128:emulator/z80emu/z80emu.c **** 
1129:emulator/z80emu/z80emu.c ****                         case NEG: {
1130:emulator/z80emu/z80emu.c **** 
1131:emulator/z80emu/z80emu.c ****                                 int     a, f, z, c;
1132:emulator/z80emu/z80emu.c **** 
1133:emulator/z80emu/z80emu.c ****                                 a = A;
1134:emulator/z80emu/z80emu.c ****                                 z = -a;
1135:emulator/z80emu/z80emu.c **** 
1136:emulator/z80emu/z80emu.c ****                                 c = a ^ z;
1137:emulator/z80emu/z80emu.c ****                                 f = Z80_N_FLAG | (c & Z80_H_FLAG);
1138:emulator/z80emu/z80emu.c ****                                 f |= SZYX_FLAGS_TABLE[z &= 0xff];
1139:emulator/z80emu/z80emu.c ****                                 c &= 0x0180;
1140:emulator/z80emu/z80emu.c ****                                 f |= OVERFLOW_TABLE[c >> 7];
1141:emulator/z80emu/z80emu.c ****                                 f |= c >> (8 - Z80_C_FLAG_SHIFT);
1142:emulator/z80emu/z80emu.c **** 
1143:emulator/z80emu/z80emu.c ****                                 A = z;
1144:emulator/z80emu/z80emu.c ****                                 F = f;
1145:emulator/z80emu/z80emu.c **** 
1146:emulator/z80emu/z80emu.c ****                                 break;
1147:emulator/z80emu/z80emu.c **** 
1148:emulator/z80emu/z80emu.c ****                         }
1149:emulator/z80emu/z80emu.c **** 
1150:emulator/z80emu/z80emu.c ****                         case CCF: {
1151:emulator/z80emu/z80emu.c **** 
1152:emulator/z80emu/z80emu.c ****                                 int     c;
1153:emulator/z80emu/z80emu.c **** 
1154:emulator/z80emu/z80emu.c ****                                 c = F & Z80_C_FLAG;
1155:emulator/z80emu/z80emu.c ****                                 F = (F & SZPV_FLAGS)
1156:emulator/z80emu/z80emu.c ****                                         | (c << Z80_H_FLAG_SHIFT)
1157:emulator/z80emu/z80emu.c **** 
1158:emulator/z80emu/z80emu.c **** #ifndef Z80_DOCUMENTED_FLAGS_ONLY
1159:emulator/z80emu/z80emu.c **** 
1160:emulator/z80emu/z80emu.c ****                                         | (A & YX_FLAGS)
1161:emulator/z80emu/z80emu.c **** 
1162:emulator/z80emu/z80emu.c **** #endif
1163:emulator/z80emu/z80emu.c **** 
1164:emulator/z80emu/z80emu.c ****                                         | (c ^ Z80_C_FLAG);
ARM GAS  /tmp/ccoto6PB.s 			page 23


1165:emulator/z80emu/z80emu.c **** 
1166:emulator/z80emu/z80emu.c ****                                 break;
1167:emulator/z80emu/z80emu.c **** 
1168:emulator/z80emu/z80emu.c ****                         }
1169:emulator/z80emu/z80emu.c **** 
1170:emulator/z80emu/z80emu.c ****                         case SCF: {
1171:emulator/z80emu/z80emu.c **** 
1172:emulator/z80emu/z80emu.c ****                                 F = (F & SZPV_FLAGS) 
1173:emulator/z80emu/z80emu.c **** 
1174:emulator/z80emu/z80emu.c **** #ifndef Z80_DOCUMENTED_FLAGS_ONLY
1175:emulator/z80emu/z80emu.c **** 
1176:emulator/z80emu/z80emu.c ****                                         | (A & YX_FLAGS)
1177:emulator/z80emu/z80emu.c **** 
1178:emulator/z80emu/z80emu.c **** #endif
1179:emulator/z80emu/z80emu.c **** 
1180:emulator/z80emu/z80emu.c ****                                         | Z80_C_FLAG;
1181:emulator/z80emu/z80emu.c **** 
1182:emulator/z80emu/z80emu.c ****                                 break;
1183:emulator/z80emu/z80emu.c **** 
1184:emulator/z80emu/z80emu.c ****                         }
1185:emulator/z80emu/z80emu.c **** 
1186:emulator/z80emu/z80emu.c ****                         case NOP: {
1187:emulator/z80emu/z80emu.c **** 
1188:emulator/z80emu/z80emu.c ****                                 break;
1189:emulator/z80emu/z80emu.c **** 
1190:emulator/z80emu/z80emu.c ****                         }
1191:emulator/z80emu/z80emu.c **** 
1192:emulator/z80emu/z80emu.c ****                         case HALT: {
1193:emulator/z80emu/z80emu.c **** 
1194:emulator/z80emu/z80emu.c **** #ifdef Z80_CATCH_HALT
1195:emulator/z80emu/z80emu.c **** 
1196:emulator/z80emu/z80emu.c ****                                 state->status = Z80_STATUS_FLAG_HALT;
1197:emulator/z80emu/z80emu.c **** 
1198:emulator/z80emu/z80emu.c **** #else
1199:emulator/z80emu/z80emu.c **** 
1200:emulator/z80emu/z80emu.c **** 				/* If an HALT instruction is executed, the Z80
1201:emulator/z80emu/z80emu.c **** 				 * keeps executing NOPs until an interrupt is
1202:emulator/z80emu/z80emu.c **** 				 * generated. Basically nothing happens for the
1203:emulator/z80emu/z80emu.c **** 				 * remaining number of cycles.
1204:emulator/z80emu/z80emu.c **** 				 */
1205:emulator/z80emu/z80emu.c **** 
1206:emulator/z80emu/z80emu.c **** 				if (elapsed_cycles < number_cycles)
1207:emulator/z80emu/z80emu.c **** 	
1208:emulator/z80emu/z80emu.c **** 					elapsed_cycles = number_cycles;
1209:emulator/z80emu/z80emu.c **** 
1210:emulator/z80emu/z80emu.c **** #endif
1211:emulator/z80emu/z80emu.c **** 
1212:emulator/z80emu/z80emu.c **** 				goto stop_emulation;
1213:emulator/z80emu/z80emu.c **** 
1214:emulator/z80emu/z80emu.c ****                         }
1215:emulator/z80emu/z80emu.c **** 
1216:emulator/z80emu/z80emu.c ****                         case DI: {
1217:emulator/z80emu/z80emu.c **** 
1218:emulator/z80emu/z80emu.c **** 				state->iff1 = state->iff2 = 0;
1219:emulator/z80emu/z80emu.c **** 
1220:emulator/z80emu/z80emu.c **** #ifdef Z80_CATCH_DI
1221:emulator/z80emu/z80emu.c **** 
ARM GAS  /tmp/ccoto6PB.s 			page 24


1222:emulator/z80emu/z80emu.c ****                                 state->status = Z80_STATUS_FLAG_DI;
1223:emulator/z80emu/z80emu.c ****                                 goto stop_emulation;
1224:emulator/z80emu/z80emu.c **** 
1225:emulator/z80emu/z80emu.c **** #else
1226:emulator/z80emu/z80emu.c **** 
1227:emulator/z80emu/z80emu.c ****                                 /* No interrupt can be accepted right after
1228:emulator/z80emu/z80emu.c ****                                  * a DI or EI instruction on an actual Z80 
1229:emulator/z80emu/z80emu.c ****                                  * processor. By adding 4 cycles to 
1230:emulator/z80emu/z80emu.c ****                                  * number_cycles, at least one more 
1231:emulator/z80emu/z80emu.c ****                                  * instruction will be executed. However, this
1232:emulator/z80emu/z80emu.c ****                                  * will fail if the next instruction has
1233:emulator/z80emu/z80emu.c ****                                  * multiple 0xdd or 0xfd prefixes and
1234:emulator/z80emu/z80emu.c ****                                  * Z80_PREFIX_FAILSAFE is defined, but that
1235:emulator/z80emu/z80emu.c ****                                  * is an unlikely pathological case.
1236:emulator/z80emu/z80emu.c ****                                  */
1237:emulator/z80emu/z80emu.c **** 
1238:emulator/z80emu/z80emu.c ****                                 number_cycles += 4;
1239:emulator/z80emu/z80emu.c ****                                 break;
1240:emulator/z80emu/z80emu.c **** 
1241:emulator/z80emu/z80emu.c **** #endif                  
1242:emulator/z80emu/z80emu.c **** 
1243:emulator/z80emu/z80emu.c ****                         }
1244:emulator/z80emu/z80emu.c **** 
1245:emulator/z80emu/z80emu.c ****                         case EI: {
1246:emulator/z80emu/z80emu.c **** 
1247:emulator/z80emu/z80emu.c ****                                 state->iff1 = state->iff2 = 1;
1248:emulator/z80emu/z80emu.c **** 
1249:emulator/z80emu/z80emu.c **** #ifdef Z80_CATCH_EI
1250:emulator/z80emu/z80emu.c **** 
1251:emulator/z80emu/z80emu.c ****                                 state->status = Z80_STATUS_FLAG_EI;
1252:emulator/z80emu/z80emu.c ****                                 goto stop_emulation;
1253:emulator/z80emu/z80emu.c **** 
1254:emulator/z80emu/z80emu.c **** #else
1255:emulator/z80emu/z80emu.c **** 
1256:emulator/z80emu/z80emu.c ****                                 /* See comment for DI. */
1257:emulator/z80emu/z80emu.c **** 
1258:emulator/z80emu/z80emu.c ****                                 number_cycles += 4;
1259:emulator/z80emu/z80emu.c ****                                 break;
1260:emulator/z80emu/z80emu.c **** 
1261:emulator/z80emu/z80emu.c **** #endif
1262:emulator/z80emu/z80emu.c **** 
1263:emulator/z80emu/z80emu.c ****                         }
1264:emulator/z80emu/z80emu.c **** 
1265:emulator/z80emu/z80emu.c ****                         case IM_N: {
1266:emulator/z80emu/z80emu.c **** 
1267:emulator/z80emu/z80emu.c ****                                 /* "IM 0/1" (0xed prefixed opcodes 0x4e and
1268:emulator/z80emu/z80emu.c ****                                  * 0x6e) is treated like a "IM 0".
1269:emulator/z80emu/z80emu.c ****                                  */
1270:emulator/z80emu/z80emu.c **** 		
1271:emulator/z80emu/z80emu.c **** 				if ((Y(opcode) & 0x03) <= 0x01)
1272:emulator/z80emu/z80emu.c **** 
1273:emulator/z80emu/z80emu.c ****                                         state->im = Z80_INTERRUPT_MODE_0;
1274:emulator/z80emu/z80emu.c **** 
1275:emulator/z80emu/z80emu.c ****                                 else if (!(Y(opcode) & 1))
1276:emulator/z80emu/z80emu.c **** 
1277:emulator/z80emu/z80emu.c ****                                         state->im = Z80_INTERRUPT_MODE_1;
1278:emulator/z80emu/z80emu.c **** 
ARM GAS  /tmp/ccoto6PB.s 			page 25


1279:emulator/z80emu/z80emu.c ****                                 else
1280:emulator/z80emu/z80emu.c **** 
1281:emulator/z80emu/z80emu.c ****                                         state->im = Z80_INTERRUPT_MODE_2;
1282:emulator/z80emu/z80emu.c **** 
1283:emulator/z80emu/z80emu.c ****                                 break;
1284:emulator/z80emu/z80emu.c **** 
1285:emulator/z80emu/z80emu.c ****                         }
1286:emulator/z80emu/z80emu.c **** 
1287:emulator/z80emu/z80emu.c ****                         /* 16-bit arithmetic group. */
1288:emulator/z80emu/z80emu.c **** 
1289:emulator/z80emu/z80emu.c ****                         case ADD_HL_RR: {
1290:emulator/z80emu/z80emu.c **** 
1291:emulator/z80emu/z80emu.c ****                                 int     x, y, z, f, c;
1292:emulator/z80emu/z80emu.c **** 
1293:emulator/z80emu/z80emu.c ****                                 x = HL_IX_IY;
1294:emulator/z80emu/z80emu.c ****                                 y = RR(P(opcode));
1295:emulator/z80emu/z80emu.c ****                                 z = x + y;
1296:emulator/z80emu/z80emu.c **** 
1297:emulator/z80emu/z80emu.c ****                                 c = x ^ y ^ z;
1298:emulator/z80emu/z80emu.c ****                                 f = F & SZPV_FLAGS;
1299:emulator/z80emu/z80emu.c **** 
1300:emulator/z80emu/z80emu.c **** #ifndef Z80_DOCUMENTED_FLAGS_ONLY
1301:emulator/z80emu/z80emu.c **** 
1302:emulator/z80emu/z80emu.c ****                                 f |= (z >> 8) & YX_FLAGS;
1303:emulator/z80emu/z80emu.c ****                                 f |= (c >> 8) & Z80_H_FLAG;
1304:emulator/z80emu/z80emu.c **** 
1305:emulator/z80emu/z80emu.c **** #endif
1306:emulator/z80emu/z80emu.c **** 
1307:emulator/z80emu/z80emu.c ****                                 f |= c >> (16 - Z80_C_FLAG_SHIFT);
1308:emulator/z80emu/z80emu.c **** 
1309:emulator/z80emu/z80emu.c ****                                 HL_IX_IY = z;
1310:emulator/z80emu/z80emu.c ****                                 F = f;
1311:emulator/z80emu/z80emu.c **** 
1312:emulator/z80emu/z80emu.c ****                                 elapsed_cycles += 7;
1313:emulator/z80emu/z80emu.c **** 
1314:emulator/z80emu/z80emu.c ****                                 break;
1315:emulator/z80emu/z80emu.c **** 
1316:emulator/z80emu/z80emu.c ****                         }
1317:emulator/z80emu/z80emu.c **** 
1318:emulator/z80emu/z80emu.c ****                         case ADC_HL_RR: {
1319:emulator/z80emu/z80emu.c **** 
1320:emulator/z80emu/z80emu.c ****                                 int     x, y, z, f, c;
1321:emulator/z80emu/z80emu.c ****                         
1322:emulator/z80emu/z80emu.c ****                                 x = HL;
1323:emulator/z80emu/z80emu.c ****                                 y = RR(P(opcode));
1324:emulator/z80emu/z80emu.c ****                                 z = x + y + (F & Z80_C_FLAG);
1325:emulator/z80emu/z80emu.c **** 
1326:emulator/z80emu/z80emu.c ****                                 c = x ^ y ^ z;
1327:emulator/z80emu/z80emu.c ****                                 f = z & 0xffff
1328:emulator/z80emu/z80emu.c ****                                         ? (z >> 8) & SYX_FLAGS 
1329:emulator/z80emu/z80emu.c ****                                         : Z80_Z_FLAG;
1330:emulator/z80emu/z80emu.c **** 
1331:emulator/z80emu/z80emu.c **** #ifndef Z80_DOCUMENTED_FLAGS_ONLY
1332:emulator/z80emu/z80emu.c **** 
1333:emulator/z80emu/z80emu.c ****                                 f |= (c >> 8) & Z80_H_FLAG;
1334:emulator/z80emu/z80emu.c **** 
1335:emulator/z80emu/z80emu.c **** #endif
ARM GAS  /tmp/ccoto6PB.s 			page 26


1336:emulator/z80emu/z80emu.c **** 
1337:emulator/z80emu/z80emu.c ****                                 f |= OVERFLOW_TABLE[c >> 15];
1338:emulator/z80emu/z80emu.c ****                                 f |= z >> (16 - Z80_C_FLAG_SHIFT);
1339:emulator/z80emu/z80emu.c **** 
1340:emulator/z80emu/z80emu.c ****                                 HL = z;
1341:emulator/z80emu/z80emu.c ****                                 F = f;  
1342:emulator/z80emu/z80emu.c **** 
1343:emulator/z80emu/z80emu.c ****                                 elapsed_cycles += 7;
1344:emulator/z80emu/z80emu.c **** 
1345:emulator/z80emu/z80emu.c ****                                 break;
1346:emulator/z80emu/z80emu.c **** 
1347:emulator/z80emu/z80emu.c ****                         }
1348:emulator/z80emu/z80emu.c **** 
1349:emulator/z80emu/z80emu.c ****                         case SBC_HL_RR: {
1350:emulator/z80emu/z80emu.c **** 
1351:emulator/z80emu/z80emu.c ****                                 int     x, y, z, f, c;
1352:emulator/z80emu/z80emu.c ****                         
1353:emulator/z80emu/z80emu.c ****                                 x = HL;
1354:emulator/z80emu/z80emu.c ****                                 y = RR(P(opcode));
1355:emulator/z80emu/z80emu.c ****                                 z = x - y - (F & Z80_C_FLAG);
1356:emulator/z80emu/z80emu.c **** 
1357:emulator/z80emu/z80emu.c ****                                 c = x ^ y ^ z;
1358:emulator/z80emu/z80emu.c ****                                 f = Z80_N_FLAG;
1359:emulator/z80emu/z80emu.c ****                                 f |= z & 0xffff
1360:emulator/z80emu/z80emu.c ****                                         ? (z >> 8) & SYX_FLAGS 
1361:emulator/z80emu/z80emu.c ****                                         : Z80_Z_FLAG;
1362:emulator/z80emu/z80emu.c **** 
1363:emulator/z80emu/z80emu.c **** #ifndef Z80_DOCUMENTED_FLAGS_ONLY
1364:emulator/z80emu/z80emu.c **** 
1365:emulator/z80emu/z80emu.c ****                                 f |= (c >> 8) & Z80_H_FLAG;
1366:emulator/z80emu/z80emu.c **** 
1367:emulator/z80emu/z80emu.c **** #endif
1368:emulator/z80emu/z80emu.c **** 
1369:emulator/z80emu/z80emu.c ****                                 c &= 0x018000;
1370:emulator/z80emu/z80emu.c ****                                 f |= OVERFLOW_TABLE[c >> 15];
1371:emulator/z80emu/z80emu.c ****                                 f |= c >> (16 - Z80_C_FLAG_SHIFT);
1372:emulator/z80emu/z80emu.c **** 
1373:emulator/z80emu/z80emu.c ****                                 HL = z;
1374:emulator/z80emu/z80emu.c ****                                 F = f;  
1375:emulator/z80emu/z80emu.c **** 
1376:emulator/z80emu/z80emu.c ****                                 elapsed_cycles += 7;
1377:emulator/z80emu/z80emu.c **** 
1378:emulator/z80emu/z80emu.c ****                                 break;
1379:emulator/z80emu/z80emu.c **** 
1380:emulator/z80emu/z80emu.c ****                         }
1381:emulator/z80emu/z80emu.c **** 
1382:emulator/z80emu/z80emu.c ****                         case INC_RR: {
1383:emulator/z80emu/z80emu.c **** 
1384:emulator/z80emu/z80emu.c ****                                 int     x;
1385:emulator/z80emu/z80emu.c **** 
1386:emulator/z80emu/z80emu.c ****                                 x = RR(P(opcode));
1387:emulator/z80emu/z80emu.c ****                                 x++;
1388:emulator/z80emu/z80emu.c ****                                 RR(P(opcode)) = x;
1389:emulator/z80emu/z80emu.c **** 
1390:emulator/z80emu/z80emu.c ****                                 elapsed_cycles += 2;
1391:emulator/z80emu/z80emu.c **** 
1392:emulator/z80emu/z80emu.c ****                                 break;
ARM GAS  /tmp/ccoto6PB.s 			page 27


1393:emulator/z80emu/z80emu.c **** 
1394:emulator/z80emu/z80emu.c ****                         }
1395:emulator/z80emu/z80emu.c **** 
1396:emulator/z80emu/z80emu.c ****                         case DEC_RR: {
1397:emulator/z80emu/z80emu.c **** 
1398:emulator/z80emu/z80emu.c ****                                 int     x;
1399:emulator/z80emu/z80emu.c **** 
1400:emulator/z80emu/z80emu.c ****                                 x = RR(P(opcode));
1401:emulator/z80emu/z80emu.c ****                                 x--;
1402:emulator/z80emu/z80emu.c ****                                 RR(P(opcode)) = x;
1403:emulator/z80emu/z80emu.c **** 
1404:emulator/z80emu/z80emu.c ****                                 elapsed_cycles += 2;
1405:emulator/z80emu/z80emu.c **** 
1406:emulator/z80emu/z80emu.c ****                                 break;
1407:emulator/z80emu/z80emu.c **** 
1408:emulator/z80emu/z80emu.c ****                         }
1409:emulator/z80emu/z80emu.c **** 
1410:emulator/z80emu/z80emu.c ****                         /* Rotate and shift group. */
1411:emulator/z80emu/z80emu.c **** 
1412:emulator/z80emu/z80emu.c ****                         case RLCA: {
1413:emulator/z80emu/z80emu.c ****                         
1414:emulator/z80emu/z80emu.c ****                                 A = (A << 1) | (A >> 7);
1415:emulator/z80emu/z80emu.c ****                                 F = (F & SZPV_FLAGS)
1416:emulator/z80emu/z80emu.c ****                                         | (A & (YX_FLAGS | Z80_C_FLAG));
1417:emulator/z80emu/z80emu.c ****                                 break;
1418:emulator/z80emu/z80emu.c **** 
1419:emulator/z80emu/z80emu.c ****                         }
1420:emulator/z80emu/z80emu.c **** 
1421:emulator/z80emu/z80emu.c ****                         case RLA: {
1422:emulator/z80emu/z80emu.c **** 
1423:emulator/z80emu/z80emu.c ****                                 int     a, f;
1424:emulator/z80emu/z80emu.c **** 
1425:emulator/z80emu/z80emu.c ****                                 a = A << 1;
1426:emulator/z80emu/z80emu.c ****                                 f = (F & SZPV_FLAGS)
1427:emulator/z80emu/z80emu.c **** 
1428:emulator/z80emu/z80emu.c **** #ifndef Z80_DOCUMENTED_FLAGS_ONLY
1429:emulator/z80emu/z80emu.c **** 
1430:emulator/z80emu/z80emu.c ****                                         | (a & YX_FLAGS)
1431:emulator/z80emu/z80emu.c **** 
1432:emulator/z80emu/z80emu.c **** #endif
1433:emulator/z80emu/z80emu.c **** 
1434:emulator/z80emu/z80emu.c ****                                         | (A >> 7);
1435:emulator/z80emu/z80emu.c ****                                 A = a | (F & Z80_C_FLAG); 
1436:emulator/z80emu/z80emu.c ****                                 F = f;
1437:emulator/z80emu/z80emu.c **** 
1438:emulator/z80emu/z80emu.c ****                                 break;
1439:emulator/z80emu/z80emu.c **** 
1440:emulator/z80emu/z80emu.c ****                         }
1441:emulator/z80emu/z80emu.c **** 
1442:emulator/z80emu/z80emu.c ****                         case RRCA: {
1443:emulator/z80emu/z80emu.c **** 
1444:emulator/z80emu/z80emu.c ****                                 int     c;
1445:emulator/z80emu/z80emu.c **** 
1446:emulator/z80emu/z80emu.c ****                                 c = A & 0x01;
1447:emulator/z80emu/z80emu.c ****                                 A = (A >> 1) | (A << 7);
1448:emulator/z80emu/z80emu.c ****                                 F = (F & SZPV_FLAGS)
1449:emulator/z80emu/z80emu.c **** 
ARM GAS  /tmp/ccoto6PB.s 			page 28


1450:emulator/z80emu/z80emu.c **** #ifndef Z80_DOCUMENTED_FLAGS_ONLY
1451:emulator/z80emu/z80emu.c **** 
1452:emulator/z80emu/z80emu.c ****                                         | (A & YX_FLAGS)
1453:emulator/z80emu/z80emu.c **** 
1454:emulator/z80emu/z80emu.c **** #endif
1455:emulator/z80emu/z80emu.c **** 
1456:emulator/z80emu/z80emu.c ****                                         | c;
1457:emulator/z80emu/z80emu.c **** 
1458:emulator/z80emu/z80emu.c ****                                 break;
1459:emulator/z80emu/z80emu.c **** 
1460:emulator/z80emu/z80emu.c ****                         }
1461:emulator/z80emu/z80emu.c **** 
1462:emulator/z80emu/z80emu.c ****                         case RRA: {
1463:emulator/z80emu/z80emu.c **** 
1464:emulator/z80emu/z80emu.c ****                                 int     c;
1465:emulator/z80emu/z80emu.c **** 
1466:emulator/z80emu/z80emu.c ****                                 c = A & 0x01;
1467:emulator/z80emu/z80emu.c ****                                 A = (A >> 1) | ((F & Z80_C_FLAG) << 7);
1468:emulator/z80emu/z80emu.c ****                                 F = (F & SZPV_FLAGS)
1469:emulator/z80emu/z80emu.c **** 
1470:emulator/z80emu/z80emu.c **** #ifndef Z80_DOCUMENTED_FLAGS_ONLY
1471:emulator/z80emu/z80emu.c **** 
1472:emulator/z80emu/z80emu.c ****                                         | (A & YX_FLAGS)
1473:emulator/z80emu/z80emu.c **** 
1474:emulator/z80emu/z80emu.c **** #endif
1475:emulator/z80emu/z80emu.c **** 
1476:emulator/z80emu/z80emu.c ****                                         | c;
1477:emulator/z80emu/z80emu.c **** 
1478:emulator/z80emu/z80emu.c ****                                 break;
1479:emulator/z80emu/z80emu.c **** 
1480:emulator/z80emu/z80emu.c ****                         }
1481:emulator/z80emu/z80emu.c **** 
1482:emulator/z80emu/z80emu.c ****                         case RLC_R: {
1483:emulator/z80emu/z80emu.c **** 
1484:emulator/z80emu/z80emu.c ****                                 RLC(R(Z(opcode)));
1485:emulator/z80emu/z80emu.c ****                                 break;
1486:emulator/z80emu/z80emu.c **** 
1487:emulator/z80emu/z80emu.c ****                         }
1488:emulator/z80emu/z80emu.c **** 
1489:emulator/z80emu/z80emu.c ****                         case RLC_INDIRECT_HL: {
1490:emulator/z80emu/z80emu.c **** 
1491:emulator/z80emu/z80emu.c ****                                 int     x;
1492:emulator/z80emu/z80emu.c **** 
1493:emulator/z80emu/z80emu.c ****                                 if (registers == state->register_table) {
1494:emulator/z80emu/z80emu.c **** 
1495:emulator/z80emu/z80emu.c ****                                         READ_BYTE(HL, x);
1496:emulator/z80emu/z80emu.c ****                                         RLC(x);
1497:emulator/z80emu/z80emu.c ****                                         WRITE_BYTE(HL, x);
1498:emulator/z80emu/z80emu.c **** 
1499:emulator/z80emu/z80emu.c ****                                         elapsed_cycles++;
1500:emulator/z80emu/z80emu.c **** 
1501:emulator/z80emu/z80emu.c ****                                 } else {
1502:emulator/z80emu/z80emu.c **** 
1503:emulator/z80emu/z80emu.c ****                                         int     d;
1504:emulator/z80emu/z80emu.c **** 
1505:emulator/z80emu/z80emu.c ****                                         Z80_FETCH_BYTE(pc, d);
1506:emulator/z80emu/z80emu.c ****                                         d = ((signed char) d) + HL_IX_IY;
ARM GAS  /tmp/ccoto6PB.s 			page 29


1507:emulator/z80emu/z80emu.c **** 
1508:emulator/z80emu/z80emu.c ****                                         READ_BYTE(d, x);
1509:emulator/z80emu/z80emu.c ****                                         RLC(x);
1510:emulator/z80emu/z80emu.c ****                                         WRITE_BYTE(d, x);
1511:emulator/z80emu/z80emu.c **** 
1512:emulator/z80emu/z80emu.c ****                                         if (Z(opcode) != INDIRECT_HL)
1513:emulator/z80emu/z80emu.c **** 
1514:emulator/z80emu/z80emu.c ****                                                 R(Z(opcode)) = x;
1515:emulator/z80emu/z80emu.c **** 
1516:emulator/z80emu/z80emu.c ****                                         pc += 2;
1517:emulator/z80emu/z80emu.c **** 
1518:emulator/z80emu/z80emu.c ****                                         elapsed_cycles += 5;
1519:emulator/z80emu/z80emu.c **** 
1520:emulator/z80emu/z80emu.c ****                                 }
1521:emulator/z80emu/z80emu.c **** 
1522:emulator/z80emu/z80emu.c ****                                 break;
1523:emulator/z80emu/z80emu.c **** 
1524:emulator/z80emu/z80emu.c ****                         }
1525:emulator/z80emu/z80emu.c **** 
1526:emulator/z80emu/z80emu.c ****                         case RL_R: {
1527:emulator/z80emu/z80emu.c **** 
1528:emulator/z80emu/z80emu.c ****                                 RL(R(Z(opcode)));
1529:emulator/z80emu/z80emu.c ****                                 break;
1530:emulator/z80emu/z80emu.c **** 
1531:emulator/z80emu/z80emu.c ****                         }
1532:emulator/z80emu/z80emu.c **** 
1533:emulator/z80emu/z80emu.c ****                         case RL_INDIRECT_HL: {
1534:emulator/z80emu/z80emu.c **** 
1535:emulator/z80emu/z80emu.c ****                                 int     x;
1536:emulator/z80emu/z80emu.c **** 
1537:emulator/z80emu/z80emu.c ****                                 if (registers == state->register_table) {
1538:emulator/z80emu/z80emu.c **** 
1539:emulator/z80emu/z80emu.c ****                                         READ_BYTE(HL, x);
1540:emulator/z80emu/z80emu.c ****                                         RL(x);
1541:emulator/z80emu/z80emu.c ****                                         WRITE_BYTE(HL, x);
1542:emulator/z80emu/z80emu.c **** 
1543:emulator/z80emu/z80emu.c ****                                         elapsed_cycles++;
1544:emulator/z80emu/z80emu.c **** 
1545:emulator/z80emu/z80emu.c ****                                 } else {
1546:emulator/z80emu/z80emu.c **** 
1547:emulator/z80emu/z80emu.c ****                                         int     d;
1548:emulator/z80emu/z80emu.c **** 
1549:emulator/z80emu/z80emu.c ****                                         Z80_FETCH_BYTE(pc, d);
1550:emulator/z80emu/z80emu.c ****                                         d = ((signed char) d) + HL_IX_IY;
1551:emulator/z80emu/z80emu.c **** 
1552:emulator/z80emu/z80emu.c ****                                         READ_BYTE(d, x);
1553:emulator/z80emu/z80emu.c ****                                         RL(x);
1554:emulator/z80emu/z80emu.c ****                                         WRITE_BYTE(d, x);
1555:emulator/z80emu/z80emu.c **** 
1556:emulator/z80emu/z80emu.c ****                                         if (Z(opcode) != INDIRECT_HL)
1557:emulator/z80emu/z80emu.c **** 
1558:emulator/z80emu/z80emu.c ****                                                 R(Z(opcode)) = x;
1559:emulator/z80emu/z80emu.c **** 
1560:emulator/z80emu/z80emu.c ****                                         pc += 2;
1561:emulator/z80emu/z80emu.c **** 
1562:emulator/z80emu/z80emu.c ****                                         elapsed_cycles += 5;
1563:emulator/z80emu/z80emu.c **** 
ARM GAS  /tmp/ccoto6PB.s 			page 30


1564:emulator/z80emu/z80emu.c ****                                 }
1565:emulator/z80emu/z80emu.c ****                                 break;
1566:emulator/z80emu/z80emu.c **** 
1567:emulator/z80emu/z80emu.c ****                         }
1568:emulator/z80emu/z80emu.c **** 
1569:emulator/z80emu/z80emu.c ****                         case RRC_R: {
1570:emulator/z80emu/z80emu.c **** 
1571:emulator/z80emu/z80emu.c ****                                 RRC(R(Z(opcode)));
1572:emulator/z80emu/z80emu.c ****                                 break;
1573:emulator/z80emu/z80emu.c **** 
1574:emulator/z80emu/z80emu.c ****                         }
1575:emulator/z80emu/z80emu.c **** 
1576:emulator/z80emu/z80emu.c ****                         case RRC_INDIRECT_HL: {
1577:emulator/z80emu/z80emu.c **** 
1578:emulator/z80emu/z80emu.c ****                                 int     x;
1579:emulator/z80emu/z80emu.c **** 
1580:emulator/z80emu/z80emu.c ****                                 if (registers == state->register_table) {
1581:emulator/z80emu/z80emu.c **** 
1582:emulator/z80emu/z80emu.c ****                                         READ_BYTE(HL, x);
1583:emulator/z80emu/z80emu.c ****                                         RRC(x);
1584:emulator/z80emu/z80emu.c ****                                         WRITE_BYTE(HL, x);
1585:emulator/z80emu/z80emu.c **** 
1586:emulator/z80emu/z80emu.c ****                                         elapsed_cycles++;
1587:emulator/z80emu/z80emu.c **** 
1588:emulator/z80emu/z80emu.c ****                                 } else {
1589:emulator/z80emu/z80emu.c **** 
1590:emulator/z80emu/z80emu.c ****                                         int     d;
1591:emulator/z80emu/z80emu.c **** 
1592:emulator/z80emu/z80emu.c ****                                         Z80_FETCH_BYTE(pc, d);
1593:emulator/z80emu/z80emu.c ****                                         d = ((signed char) d) + HL_IX_IY;
1594:emulator/z80emu/z80emu.c **** 
1595:emulator/z80emu/z80emu.c ****                                         READ_BYTE(d, x);
1596:emulator/z80emu/z80emu.c ****                                         RRC(x);
1597:emulator/z80emu/z80emu.c ****                                         WRITE_BYTE(d, x);
1598:emulator/z80emu/z80emu.c **** 
1599:emulator/z80emu/z80emu.c ****                                         if (Z(opcode) != INDIRECT_HL)
1600:emulator/z80emu/z80emu.c **** 
1601:emulator/z80emu/z80emu.c ****                                                 R(Z(opcode)) = x;
1602:emulator/z80emu/z80emu.c **** 
1603:emulator/z80emu/z80emu.c ****                                         pc += 2;
1604:emulator/z80emu/z80emu.c **** 
1605:emulator/z80emu/z80emu.c ****                                         elapsed_cycles += 5;
1606:emulator/z80emu/z80emu.c **** 
1607:emulator/z80emu/z80emu.c ****                                 }
1608:emulator/z80emu/z80emu.c ****                                 break;
1609:emulator/z80emu/z80emu.c **** 
1610:emulator/z80emu/z80emu.c ****                         }
1611:emulator/z80emu/z80emu.c **** 
1612:emulator/z80emu/z80emu.c ****                         case RR_R: {
1613:emulator/z80emu/z80emu.c **** 
1614:emulator/z80emu/z80emu.c ****                                 RR_INSTRUCTION(R(Z(opcode)));
1615:emulator/z80emu/z80emu.c ****                                 break;
1616:emulator/z80emu/z80emu.c **** 
1617:emulator/z80emu/z80emu.c ****                         }
1618:emulator/z80emu/z80emu.c **** 
1619:emulator/z80emu/z80emu.c ****                         case RR_INDIRECT_HL: {
1620:emulator/z80emu/z80emu.c **** 
ARM GAS  /tmp/ccoto6PB.s 			page 31


1621:emulator/z80emu/z80emu.c ****                                 int     x;
1622:emulator/z80emu/z80emu.c **** 
1623:emulator/z80emu/z80emu.c ****                                 if (registers == state->register_table) {
1624:emulator/z80emu/z80emu.c **** 
1625:emulator/z80emu/z80emu.c ****                                         READ_BYTE(HL, x);
1626:emulator/z80emu/z80emu.c ****                                         RR_INSTRUCTION(x);
1627:emulator/z80emu/z80emu.c ****                                         WRITE_BYTE(HL, x);
1628:emulator/z80emu/z80emu.c **** 
1629:emulator/z80emu/z80emu.c ****                                         elapsed_cycles++;
1630:emulator/z80emu/z80emu.c **** 
1631:emulator/z80emu/z80emu.c ****                                 } else {
1632:emulator/z80emu/z80emu.c **** 
1633:emulator/z80emu/z80emu.c ****                                         int     d;
1634:emulator/z80emu/z80emu.c **** 
1635:emulator/z80emu/z80emu.c ****                                         Z80_FETCH_BYTE(pc, d);
1636:emulator/z80emu/z80emu.c ****                                         d = ((signed char) d) + HL_IX_IY;
1637:emulator/z80emu/z80emu.c **** 
1638:emulator/z80emu/z80emu.c ****                                         READ_BYTE(d, x);
1639:emulator/z80emu/z80emu.c ****                                         RR_INSTRUCTION(x);
1640:emulator/z80emu/z80emu.c ****                                         WRITE_BYTE(d, x);
1641:emulator/z80emu/z80emu.c **** 
1642:emulator/z80emu/z80emu.c ****                                         if (Z(opcode) != INDIRECT_HL)
1643:emulator/z80emu/z80emu.c **** 
1644:emulator/z80emu/z80emu.c ****                                                 R(Z(opcode)) = x;
1645:emulator/z80emu/z80emu.c **** 
1646:emulator/z80emu/z80emu.c ****                                         pc += 2;
1647:emulator/z80emu/z80emu.c **** 
1648:emulator/z80emu/z80emu.c ****                                         elapsed_cycles += 5;
1649:emulator/z80emu/z80emu.c **** 
1650:emulator/z80emu/z80emu.c ****                                 }
1651:emulator/z80emu/z80emu.c ****                                 break;
1652:emulator/z80emu/z80emu.c **** 
1653:emulator/z80emu/z80emu.c ****                         }
1654:emulator/z80emu/z80emu.c **** 
1655:emulator/z80emu/z80emu.c ****                         case SLA_R: {
1656:emulator/z80emu/z80emu.c **** 
1657:emulator/z80emu/z80emu.c ****                                 SLA(R(Z(opcode)));
1658:emulator/z80emu/z80emu.c ****                                 break;
1659:emulator/z80emu/z80emu.c **** 
1660:emulator/z80emu/z80emu.c ****                         }
1661:emulator/z80emu/z80emu.c **** 
1662:emulator/z80emu/z80emu.c ****                         case SLA_INDIRECT_HL: {
1663:emulator/z80emu/z80emu.c **** 
1664:emulator/z80emu/z80emu.c ****                                 int     x;      
1665:emulator/z80emu/z80emu.c **** 
1666:emulator/z80emu/z80emu.c ****                                 if (registers == state->register_table) {
1667:emulator/z80emu/z80emu.c **** 
1668:emulator/z80emu/z80emu.c ****                                         READ_BYTE(HL, x);
1669:emulator/z80emu/z80emu.c ****                                         SLA(x);
1670:emulator/z80emu/z80emu.c ****                                         WRITE_BYTE(HL, x);
1671:emulator/z80emu/z80emu.c **** 
1672:emulator/z80emu/z80emu.c ****                                         elapsed_cycles++;
1673:emulator/z80emu/z80emu.c **** 
1674:emulator/z80emu/z80emu.c ****                                 } else {
1675:emulator/z80emu/z80emu.c **** 
1676:emulator/z80emu/z80emu.c ****                                         int     d;
1677:emulator/z80emu/z80emu.c **** 
ARM GAS  /tmp/ccoto6PB.s 			page 32


1678:emulator/z80emu/z80emu.c ****                                         Z80_FETCH_BYTE(pc, d);
1679:emulator/z80emu/z80emu.c ****                                         d = ((signed char) d) + HL_IX_IY;
1680:emulator/z80emu/z80emu.c **** 
1681:emulator/z80emu/z80emu.c ****                                         READ_BYTE(d, x);
1682:emulator/z80emu/z80emu.c ****                                         SLA(x);
1683:emulator/z80emu/z80emu.c ****                                         WRITE_BYTE(d, x);
1684:emulator/z80emu/z80emu.c **** 
1685:emulator/z80emu/z80emu.c ****                                         if (Z(opcode) != INDIRECT_HL)
1686:emulator/z80emu/z80emu.c **** 
1687:emulator/z80emu/z80emu.c ****                                                 R(Z(opcode)) = x;
1688:emulator/z80emu/z80emu.c **** 
1689:emulator/z80emu/z80emu.c ****                                         pc += 2;
1690:emulator/z80emu/z80emu.c **** 
1691:emulator/z80emu/z80emu.c ****                                         elapsed_cycles += 5;
1692:emulator/z80emu/z80emu.c **** 
1693:emulator/z80emu/z80emu.c ****                                 }
1694:emulator/z80emu/z80emu.c ****                                 break;
1695:emulator/z80emu/z80emu.c **** 
1696:emulator/z80emu/z80emu.c ****                         }
1697:emulator/z80emu/z80emu.c **** 
1698:emulator/z80emu/z80emu.c ****                         case SLL_R: {
1699:emulator/z80emu/z80emu.c **** 
1700:emulator/z80emu/z80emu.c ****                                 SLL(R(Z(opcode)));
1701:emulator/z80emu/z80emu.c ****                                 break;
1702:emulator/z80emu/z80emu.c **** 
1703:emulator/z80emu/z80emu.c ****                         }
1704:emulator/z80emu/z80emu.c **** 
1705:emulator/z80emu/z80emu.c ****                         case SLL_INDIRECT_HL: {
1706:emulator/z80emu/z80emu.c **** 
1707:emulator/z80emu/z80emu.c ****                                 int     x;
1708:emulator/z80emu/z80emu.c **** 
1709:emulator/z80emu/z80emu.c ****                                 if (registers == state->register_table) {
1710:emulator/z80emu/z80emu.c **** 
1711:emulator/z80emu/z80emu.c ****                                         READ_BYTE(HL, x);
1712:emulator/z80emu/z80emu.c ****                                         SLL(x);
1713:emulator/z80emu/z80emu.c ****                                         WRITE_BYTE(HL, x);
1714:emulator/z80emu/z80emu.c **** 
1715:emulator/z80emu/z80emu.c ****                                         elapsed_cycles++;
1716:emulator/z80emu/z80emu.c **** 
1717:emulator/z80emu/z80emu.c ****                                 } else {
1718:emulator/z80emu/z80emu.c **** 
1719:emulator/z80emu/z80emu.c ****                                         int     d;
1720:emulator/z80emu/z80emu.c **** 
1721:emulator/z80emu/z80emu.c ****                                         Z80_FETCH_BYTE(pc, d);
1722:emulator/z80emu/z80emu.c ****                                         d = ((signed char) d) + HL_IX_IY;
1723:emulator/z80emu/z80emu.c **** 
1724:emulator/z80emu/z80emu.c ****                                         READ_BYTE(d, x);
1725:emulator/z80emu/z80emu.c ****                                         SLL(x);
1726:emulator/z80emu/z80emu.c ****                                         WRITE_BYTE(d, x);
1727:emulator/z80emu/z80emu.c **** 
1728:emulator/z80emu/z80emu.c ****                                         if (Z(opcode) != INDIRECT_HL)
1729:emulator/z80emu/z80emu.c **** 
1730:emulator/z80emu/z80emu.c ****                                                 R(Z(opcode)) = x;
1731:emulator/z80emu/z80emu.c **** 
1732:emulator/z80emu/z80emu.c ****                                         pc += 2;
1733:emulator/z80emu/z80emu.c **** 
1734:emulator/z80emu/z80emu.c ****                                         elapsed_cycles += 5;
ARM GAS  /tmp/ccoto6PB.s 			page 33


1735:emulator/z80emu/z80emu.c **** 
1736:emulator/z80emu/z80emu.c ****                                 }
1737:emulator/z80emu/z80emu.c ****                                 break;
1738:emulator/z80emu/z80emu.c **** 
1739:emulator/z80emu/z80emu.c ****                         }
1740:emulator/z80emu/z80emu.c **** 
1741:emulator/z80emu/z80emu.c ****                         case SRA_R: {
1742:emulator/z80emu/z80emu.c **** 
1743:emulator/z80emu/z80emu.c ****                                 SRA(R(Z(opcode)));
1744:emulator/z80emu/z80emu.c ****                                 break;
1745:emulator/z80emu/z80emu.c **** 
1746:emulator/z80emu/z80emu.c ****                         }
1747:emulator/z80emu/z80emu.c **** 
1748:emulator/z80emu/z80emu.c ****                         case SRA_INDIRECT_HL: {
1749:emulator/z80emu/z80emu.c **** 
1750:emulator/z80emu/z80emu.c ****                                 int     x;
1751:emulator/z80emu/z80emu.c **** 
1752:emulator/z80emu/z80emu.c ****                                 if (registers == state->register_table) {
1753:emulator/z80emu/z80emu.c **** 
1754:emulator/z80emu/z80emu.c ****                                         READ_BYTE(HL, x);
1755:emulator/z80emu/z80emu.c ****                                         SRA(x);
1756:emulator/z80emu/z80emu.c ****                                         WRITE_BYTE(HL, x);
1757:emulator/z80emu/z80emu.c **** 
1758:emulator/z80emu/z80emu.c ****                                         elapsed_cycles++;
1759:emulator/z80emu/z80emu.c **** 
1760:emulator/z80emu/z80emu.c ****                                 } else {
1761:emulator/z80emu/z80emu.c **** 
1762:emulator/z80emu/z80emu.c ****                                         int     d;
1763:emulator/z80emu/z80emu.c **** 
1764:emulator/z80emu/z80emu.c ****                                         Z80_FETCH_BYTE(pc, d);
1765:emulator/z80emu/z80emu.c ****                                         d = ((signed char) d) + HL_IX_IY;
1766:emulator/z80emu/z80emu.c **** 
1767:emulator/z80emu/z80emu.c ****                                         READ_BYTE(d, x);
1768:emulator/z80emu/z80emu.c ****                                         SRA(x);
1769:emulator/z80emu/z80emu.c ****                                         WRITE_BYTE(d, x);
1770:emulator/z80emu/z80emu.c **** 
1771:emulator/z80emu/z80emu.c ****                                         if (Z(opcode) != INDIRECT_HL)
1772:emulator/z80emu/z80emu.c **** 
1773:emulator/z80emu/z80emu.c ****                                                 R(Z(opcode)) = x;
1774:emulator/z80emu/z80emu.c **** 
1775:emulator/z80emu/z80emu.c ****                                         pc += 2;
1776:emulator/z80emu/z80emu.c **** 
1777:emulator/z80emu/z80emu.c ****                                         elapsed_cycles += 5;
1778:emulator/z80emu/z80emu.c **** 
1779:emulator/z80emu/z80emu.c ****                                 }
1780:emulator/z80emu/z80emu.c ****                                 break;
1781:emulator/z80emu/z80emu.c **** 
1782:emulator/z80emu/z80emu.c ****                         }
1783:emulator/z80emu/z80emu.c **** 
1784:emulator/z80emu/z80emu.c ****                         case SRL_R: {
1785:emulator/z80emu/z80emu.c **** 
1786:emulator/z80emu/z80emu.c ****                                 SRL(R(Z(opcode)));
1787:emulator/z80emu/z80emu.c ****                                 break;
1788:emulator/z80emu/z80emu.c **** 
1789:emulator/z80emu/z80emu.c ****                         }
1790:emulator/z80emu/z80emu.c **** 
1791:emulator/z80emu/z80emu.c ****                         case SRL_INDIRECT_HL: {
ARM GAS  /tmp/ccoto6PB.s 			page 34


1792:emulator/z80emu/z80emu.c **** 
1793:emulator/z80emu/z80emu.c ****                                 int     x;
1794:emulator/z80emu/z80emu.c **** 
1795:emulator/z80emu/z80emu.c ****                                 if (registers == state->register_table) {
1796:emulator/z80emu/z80emu.c **** 
1797:emulator/z80emu/z80emu.c ****                                         READ_BYTE(HL, x);
1798:emulator/z80emu/z80emu.c ****                                         SRL(x);
1799:emulator/z80emu/z80emu.c ****                                         WRITE_BYTE(HL, x);
1800:emulator/z80emu/z80emu.c **** 
1801:emulator/z80emu/z80emu.c ****                                         elapsed_cycles++;
1802:emulator/z80emu/z80emu.c **** 
1803:emulator/z80emu/z80emu.c ****                                 } else {
1804:emulator/z80emu/z80emu.c **** 
1805:emulator/z80emu/z80emu.c ****                                         int     d;
1806:emulator/z80emu/z80emu.c **** 
1807:emulator/z80emu/z80emu.c ****                                         Z80_FETCH_BYTE(pc, d);
1808:emulator/z80emu/z80emu.c ****                                         d = ((signed char) d) + HL_IX_IY;
1809:emulator/z80emu/z80emu.c **** 
1810:emulator/z80emu/z80emu.c ****                                         READ_BYTE(d, x);
1811:emulator/z80emu/z80emu.c ****                                         SRL(x);
1812:emulator/z80emu/z80emu.c ****                                         WRITE_BYTE(d, x);
1813:emulator/z80emu/z80emu.c **** 
1814:emulator/z80emu/z80emu.c ****                                         if (Z(opcode) != INDIRECT_HL)
1815:emulator/z80emu/z80emu.c **** 
1816:emulator/z80emu/z80emu.c ****                                                 R(Z(opcode)) = x;
1817:emulator/z80emu/z80emu.c **** 
1818:emulator/z80emu/z80emu.c ****                                         pc += 2;
1819:emulator/z80emu/z80emu.c **** 
1820:emulator/z80emu/z80emu.c ****                                         elapsed_cycles += 5;
1821:emulator/z80emu/z80emu.c **** 
1822:emulator/z80emu/z80emu.c ****                                 }
1823:emulator/z80emu/z80emu.c ****                                 break;
1824:emulator/z80emu/z80emu.c **** 
1825:emulator/z80emu/z80emu.c ****                         }
1826:emulator/z80emu/z80emu.c **** 
1827:emulator/z80emu/z80emu.c ****                         case RLD_RRD: {
1828:emulator/z80emu/z80emu.c **** 
1829:emulator/z80emu/z80emu.c ****                                 int     x, y;
1830:emulator/z80emu/z80emu.c **** 
1831:emulator/z80emu/z80emu.c ****                                 READ_BYTE(HL, x);
1832:emulator/z80emu/z80emu.c ****                                 y = (A & 0xf0) << 8;
1833:emulator/z80emu/z80emu.c ****                                 y |= opcode == OPCODE_RLD
1834:emulator/z80emu/z80emu.c ****                                         ? (x << 4) | (A & 0x0f)
1835:emulator/z80emu/z80emu.c ****                                         : ((x & 0x0f) << 8)
1836:emulator/z80emu/z80emu.c ****                                                 | ((A & 0x0f) << 4) 
1837:emulator/z80emu/z80emu.c ****                                                 | (x >> 4);
1838:emulator/z80emu/z80emu.c ****                                 WRITE_BYTE(HL, y);
1839:emulator/z80emu/z80emu.c ****                                 y >>= 8;
1840:emulator/z80emu/z80emu.c **** 
1841:emulator/z80emu/z80emu.c ****                                 A = y; 
1842:emulator/z80emu/z80emu.c ****                                 F = SZYXP_FLAGS_TABLE[y] | (F & Z80_C_FLAG);
1843:emulator/z80emu/z80emu.c **** 
1844:emulator/z80emu/z80emu.c ****                                 elapsed_cycles += 4;
1845:emulator/z80emu/z80emu.c **** 
1846:emulator/z80emu/z80emu.c ****                                 break;
1847:emulator/z80emu/z80emu.c **** 
1848:emulator/z80emu/z80emu.c ****                         }
ARM GAS  /tmp/ccoto6PB.s 			page 35


1849:emulator/z80emu/z80emu.c **** 
1850:emulator/z80emu/z80emu.c ****                         /* Bit set, reset, and test group. */
1851:emulator/z80emu/z80emu.c **** 
1852:emulator/z80emu/z80emu.c ****                         case BIT_B_R: {
1853:emulator/z80emu/z80emu.c **** 
1854:emulator/z80emu/z80emu.c ****                                 int     x;
1855:emulator/z80emu/z80emu.c **** 
1856:emulator/z80emu/z80emu.c ****                                 x = R(Z(opcode)) & (1 << Y(opcode));
1857:emulator/z80emu/z80emu.c ****                                 F = (x ? 0 : Z80_Z_FLAG | Z80_P_FLAG)
1858:emulator/z80emu/z80emu.c **** 
1859:emulator/z80emu/z80emu.c **** #ifndef Z80_DOCUMENTED_FLAGS_ONLY
1860:emulator/z80emu/z80emu.c **** 
1861:emulator/z80emu/z80emu.c ****                                         | (x & Z80_S_FLAG)
1862:emulator/z80emu/z80emu.c ****                                         | (R(Z(opcode)) & YX_FLAGS)
1863:emulator/z80emu/z80emu.c **** 
1864:emulator/z80emu/z80emu.c **** #endif
1865:emulator/z80emu/z80emu.c **** 
1866:emulator/z80emu/z80emu.c ****                                         | Z80_H_FLAG
1867:emulator/z80emu/z80emu.c ****                                         | (F & Z80_C_FLAG);
1868:emulator/z80emu/z80emu.c **** 
1869:emulator/z80emu/z80emu.c ****                                 break;
1870:emulator/z80emu/z80emu.c **** 
1871:emulator/z80emu/z80emu.c ****                         }                               
1872:emulator/z80emu/z80emu.c **** 
1873:emulator/z80emu/z80emu.c ****                         case BIT_B_INDIRECT_HL: {
1874:emulator/z80emu/z80emu.c **** 
1875:emulator/z80emu/z80emu.c ****                                 int     d, x;
1876:emulator/z80emu/z80emu.c ****                                         
1877:emulator/z80emu/z80emu.c ****                                 if (registers == state->register_table) {
1878:emulator/z80emu/z80emu.c **** 
1879:emulator/z80emu/z80emu.c ****                                         d = HL;
1880:emulator/z80emu/z80emu.c **** 
1881:emulator/z80emu/z80emu.c ****                                         elapsed_cycles++;
1882:emulator/z80emu/z80emu.c **** 
1883:emulator/z80emu/z80emu.c ****                                 } else {
1884:emulator/z80emu/z80emu.c **** 
1885:emulator/z80emu/z80emu.c ****                                         Z80_FETCH_BYTE(pc, d);
1886:emulator/z80emu/z80emu.c ****                                         d = ((signed char) d) + HL_IX_IY;
1887:emulator/z80emu/z80emu.c **** 
1888:emulator/z80emu/z80emu.c ****                                         pc += 2;
1889:emulator/z80emu/z80emu.c **** 
1890:emulator/z80emu/z80emu.c ****                                         elapsed_cycles += 5;
1891:emulator/z80emu/z80emu.c **** 
1892:emulator/z80emu/z80emu.c ****                                 }
1893:emulator/z80emu/z80emu.c **** 
1894:emulator/z80emu/z80emu.c ****                                 READ_BYTE(d, x);
1895:emulator/z80emu/z80emu.c ****                                 x &= 1 << Y(opcode);
1896:emulator/z80emu/z80emu.c ****                                 F = (x ? 0 : Z80_Z_FLAG | Z80_P_FLAG)
1897:emulator/z80emu/z80emu.c **** 
1898:emulator/z80emu/z80emu.c **** #ifndef Z80_DOCUMENTED_FLAGS_ONLY
1899:emulator/z80emu/z80emu.c **** 
1900:emulator/z80emu/z80emu.c ****                                         | (x & Z80_S_FLAG)
1901:emulator/z80emu/z80emu.c ****                                         | (d & YX_FLAGS)
1902:emulator/z80emu/z80emu.c **** 
1903:emulator/z80emu/z80emu.c **** #endif
1904:emulator/z80emu/z80emu.c **** 
1905:emulator/z80emu/z80emu.c ****                                         | Z80_H_FLAG
ARM GAS  /tmp/ccoto6PB.s 			page 36


1906:emulator/z80emu/z80emu.c ****                                         | (F & Z80_C_FLAG);
1907:emulator/z80emu/z80emu.c **** 
1908:emulator/z80emu/z80emu.c ****                                 break;
1909:emulator/z80emu/z80emu.c **** 
1910:emulator/z80emu/z80emu.c ****                         }
1911:emulator/z80emu/z80emu.c **** 
1912:emulator/z80emu/z80emu.c ****                         case SET_B_R: {
1913:emulator/z80emu/z80emu.c **** 
1914:emulator/z80emu/z80emu.c ****                                 R(Z(opcode)) |= 1 << Y(opcode);
1915:emulator/z80emu/z80emu.c ****                                 break;
1916:emulator/z80emu/z80emu.c **** 
1917:emulator/z80emu/z80emu.c ****                         }
1918:emulator/z80emu/z80emu.c **** 
1919:emulator/z80emu/z80emu.c ****                         case SET_B_INDIRECT_HL: {
1920:emulator/z80emu/z80emu.c **** 
1921:emulator/z80emu/z80emu.c ****                                 int     x;
1922:emulator/z80emu/z80emu.c **** 
1923:emulator/z80emu/z80emu.c ****                                 if (registers == state->register_table) {
1924:emulator/z80emu/z80emu.c **** 
1925:emulator/z80emu/z80emu.c ****                                         READ_BYTE(HL, x);
1926:emulator/z80emu/z80emu.c ****                                         x |= 1 << Y(opcode);
1927:emulator/z80emu/z80emu.c ****                                         WRITE_BYTE(HL, x);
1928:emulator/z80emu/z80emu.c **** 
1929:emulator/z80emu/z80emu.c ****                                         elapsed_cycles++;
1930:emulator/z80emu/z80emu.c **** 
1931:emulator/z80emu/z80emu.c ****                                 } else {
1932:emulator/z80emu/z80emu.c **** 
1933:emulator/z80emu/z80emu.c ****                                         int     d;
1934:emulator/z80emu/z80emu.c **** 
1935:emulator/z80emu/z80emu.c ****                                         Z80_FETCH_BYTE(pc, d);
1936:emulator/z80emu/z80emu.c ****                                         d = ((signed char) d) + HL_IX_IY;
1937:emulator/z80emu/z80emu.c **** 
1938:emulator/z80emu/z80emu.c ****                                         READ_BYTE(d, x);
1939:emulator/z80emu/z80emu.c ****                                         x |= 1 << Y(opcode);
1940:emulator/z80emu/z80emu.c ****                                         WRITE_BYTE(d, x);
1941:emulator/z80emu/z80emu.c **** 
1942:emulator/z80emu/z80emu.c ****                                         if (Z(opcode) != INDIRECT_HL)
1943:emulator/z80emu/z80emu.c **** 
1944:emulator/z80emu/z80emu.c ****                                                 R(Z(opcode)) = x;
1945:emulator/z80emu/z80emu.c **** 
1946:emulator/z80emu/z80emu.c ****                                         pc += 2;
1947:emulator/z80emu/z80emu.c **** 
1948:emulator/z80emu/z80emu.c ****                                         elapsed_cycles += 5;
1949:emulator/z80emu/z80emu.c **** 
1950:emulator/z80emu/z80emu.c ****                                 }
1951:emulator/z80emu/z80emu.c ****                                 break;
1952:emulator/z80emu/z80emu.c **** 
1953:emulator/z80emu/z80emu.c ****                         }
1954:emulator/z80emu/z80emu.c **** 
1955:emulator/z80emu/z80emu.c ****                         case RES_B_R: {
1956:emulator/z80emu/z80emu.c **** 
1957:emulator/z80emu/z80emu.c ****                                 R(Z(opcode)) &= ~(1 << Y(opcode));
1958:emulator/z80emu/z80emu.c ****                                 break;
1959:emulator/z80emu/z80emu.c **** 
1960:emulator/z80emu/z80emu.c ****                         }       
1961:emulator/z80emu/z80emu.c **** 
1962:emulator/z80emu/z80emu.c ****                         case RES_B_INDIRECT_HL: {
ARM GAS  /tmp/ccoto6PB.s 			page 37


1963:emulator/z80emu/z80emu.c **** 
1964:emulator/z80emu/z80emu.c ****                                 int     x;
1965:emulator/z80emu/z80emu.c **** 
1966:emulator/z80emu/z80emu.c ****                                 if (registers == state->register_table) {
1967:emulator/z80emu/z80emu.c **** 
1968:emulator/z80emu/z80emu.c ****                                         READ_BYTE(HL, x);
1969:emulator/z80emu/z80emu.c ****                                         x &= ~(1 << Y(opcode));
1970:emulator/z80emu/z80emu.c ****                                         WRITE_BYTE(HL, x);
1971:emulator/z80emu/z80emu.c **** 
1972:emulator/z80emu/z80emu.c ****                                         elapsed_cycles++;
1973:emulator/z80emu/z80emu.c **** 
1974:emulator/z80emu/z80emu.c ****                                 } else {
1975:emulator/z80emu/z80emu.c **** 
1976:emulator/z80emu/z80emu.c ****                                         int     d;
1977:emulator/z80emu/z80emu.c **** 
1978:emulator/z80emu/z80emu.c ****                                         Z80_FETCH_BYTE(pc, d);
1979:emulator/z80emu/z80emu.c ****                                         d = ((signed char) d) + HL_IX_IY;
1980:emulator/z80emu/z80emu.c **** 
1981:emulator/z80emu/z80emu.c ****                                         READ_BYTE(d, x);
1982:emulator/z80emu/z80emu.c ****                                         x &= ~(1 << Y(opcode));
1983:emulator/z80emu/z80emu.c ****                                         WRITE_BYTE(d, x);
1984:emulator/z80emu/z80emu.c **** 
1985:emulator/z80emu/z80emu.c ****                                         if (Z(opcode) != INDIRECT_HL)
1986:emulator/z80emu/z80emu.c **** 
1987:emulator/z80emu/z80emu.c ****                                                 R(Z(opcode)) = x;
1988:emulator/z80emu/z80emu.c **** 
1989:emulator/z80emu/z80emu.c ****                                         pc += 2;
1990:emulator/z80emu/z80emu.c **** 
1991:emulator/z80emu/z80emu.c ****                                         elapsed_cycles += 5;
1992:emulator/z80emu/z80emu.c **** 
1993:emulator/z80emu/z80emu.c ****                                 }
1994:emulator/z80emu/z80emu.c ****                                 break;
1995:emulator/z80emu/z80emu.c **** 
1996:emulator/z80emu/z80emu.c ****                         }
1997:emulator/z80emu/z80emu.c **** 
1998:emulator/z80emu/z80emu.c ****                         /* Jump group. */
1999:emulator/z80emu/z80emu.c **** 
2000:emulator/z80emu/z80emu.c ****                         case JP_NN: {
2001:emulator/z80emu/z80emu.c **** 
2002:emulator/z80emu/z80emu.c ****                                 int     nn;
2003:emulator/z80emu/z80emu.c **** 
2004:emulator/z80emu/z80emu.c ****                                 Z80_FETCH_WORD(pc, nn);
2005:emulator/z80emu/z80emu.c ****                                 pc = nn;
2006:emulator/z80emu/z80emu.c **** 
2007:emulator/z80emu/z80emu.c ****                                 elapsed_cycles += 6;
2008:emulator/z80emu/z80emu.c **** 
2009:emulator/z80emu/z80emu.c ****                                 break;
2010:emulator/z80emu/z80emu.c **** 
2011:emulator/z80emu/z80emu.c ****                         }
2012:emulator/z80emu/z80emu.c **** 
2013:emulator/z80emu/z80emu.c ****                         case JP_CC_NN: {
2014:emulator/z80emu/z80emu.c **** 
2015:emulator/z80emu/z80emu.c ****                                 int     nn;
2016:emulator/z80emu/z80emu.c **** 
2017:emulator/z80emu/z80emu.c ****                                 if (CC(Y(opcode))) {
2018:emulator/z80emu/z80emu.c **** 
2019:emulator/z80emu/z80emu.c ****                                         Z80_FETCH_WORD(pc, nn);
ARM GAS  /tmp/ccoto6PB.s 			page 38


2020:emulator/z80emu/z80emu.c ****                                         pc = nn;
2021:emulator/z80emu/z80emu.c **** 
2022:emulator/z80emu/z80emu.c ****                                 } else {
2023:emulator/z80emu/z80emu.c **** 
2024:emulator/z80emu/z80emu.c **** #ifdef Z80_FALSE_CONDITION_FETCH
2025:emulator/z80emu/z80emu.c **** 
2026:emulator/z80emu/z80emu.c ****                                         Z80_FETCH_WORD(pc, nn);
2027:emulator/z80emu/z80emu.c **** 
2028:emulator/z80emu/z80emu.c **** #endif          
2029:emulator/z80emu/z80emu.c **** 
2030:emulator/z80emu/z80emu.c ****                                         pc += 2;
2031:emulator/z80emu/z80emu.c **** 
2032:emulator/z80emu/z80emu.c ****                                 }
2033:emulator/z80emu/z80emu.c **** 
2034:emulator/z80emu/z80emu.c ****                                 elapsed_cycles += 6;
2035:emulator/z80emu/z80emu.c **** 
2036:emulator/z80emu/z80emu.c ****                                 break;
2037:emulator/z80emu/z80emu.c **** 
2038:emulator/z80emu/z80emu.c ****                         }                               
2039:emulator/z80emu/z80emu.c **** 
2040:emulator/z80emu/z80emu.c ****                         case JR_E: {
2041:emulator/z80emu/z80emu.c **** 
2042:emulator/z80emu/z80emu.c ****                                 int     e;
2043:emulator/z80emu/z80emu.c ****                                 
2044:emulator/z80emu/z80emu.c ****                                 Z80_FETCH_BYTE(pc, e);
2045:emulator/z80emu/z80emu.c ****                                 pc += ((signed char) e) + 1;
2046:emulator/z80emu/z80emu.c **** 
2047:emulator/z80emu/z80emu.c ****                                 elapsed_cycles += 8;
2048:emulator/z80emu/z80emu.c **** 
2049:emulator/z80emu/z80emu.c ****                                 break;
2050:emulator/z80emu/z80emu.c **** 
2051:emulator/z80emu/z80emu.c ****                         }
2052:emulator/z80emu/z80emu.c **** 
2053:emulator/z80emu/z80emu.c ****                         case JR_DD_E: {
2054:emulator/z80emu/z80emu.c **** 
2055:emulator/z80emu/z80emu.c ****                                 int     e;
2056:emulator/z80emu/z80emu.c **** 
2057:emulator/z80emu/z80emu.c ****                                 if (DD(Q(opcode))) {
2058:emulator/z80emu/z80emu.c ****                                 
2059:emulator/z80emu/z80emu.c ****                                         Z80_FETCH_BYTE(pc, e);
2060:emulator/z80emu/z80emu.c ****                                         pc += ((signed char) e) + 1;
2061:emulator/z80emu/z80emu.c **** 
2062:emulator/z80emu/z80emu.c ****                                         elapsed_cycles += 8;
2063:emulator/z80emu/z80emu.c **** 
2064:emulator/z80emu/z80emu.c ****                                 } else {
2065:emulator/z80emu/z80emu.c **** 
2066:emulator/z80emu/z80emu.c **** #ifdef Z80_FALSE_CONDITION_FETCH
2067:emulator/z80emu/z80emu.c **** 
2068:emulator/z80emu/z80emu.c ****                                         Z80_FETCH_BYTE(pc, e);
2069:emulator/z80emu/z80emu.c **** 
2070:emulator/z80emu/z80emu.c **** #endif
2071:emulator/z80emu/z80emu.c **** 
2072:emulator/z80emu/z80emu.c ****                                         pc++;
2073:emulator/z80emu/z80emu.c **** 
2074:emulator/z80emu/z80emu.c ****                                         elapsed_cycles += 3;
2075:emulator/z80emu/z80emu.c **** 
2076:emulator/z80emu/z80emu.c ****                                 }
ARM GAS  /tmp/ccoto6PB.s 			page 39


2077:emulator/z80emu/z80emu.c ****                                 break;  
2078:emulator/z80emu/z80emu.c **** 
2079:emulator/z80emu/z80emu.c ****                         }                                            
2080:emulator/z80emu/z80emu.c **** 
2081:emulator/z80emu/z80emu.c ****                         case JP_HL: {
2082:emulator/z80emu/z80emu.c **** 
2083:emulator/z80emu/z80emu.c ****                                 pc = HL_IX_IY;
2084:emulator/z80emu/z80emu.c ****                                 break;
2085:emulator/z80emu/z80emu.c **** 
2086:emulator/z80emu/z80emu.c ****                         }                       
2087:emulator/z80emu/z80emu.c **** 
2088:emulator/z80emu/z80emu.c ****                         case DJNZ_E: {
2089:emulator/z80emu/z80emu.c **** 
2090:emulator/z80emu/z80emu.c ****                                 int     e;
2091:emulator/z80emu/z80emu.c ****                                 
2092:emulator/z80emu/z80emu.c ****                                 if (--B) {
2093:emulator/z80emu/z80emu.c ****                                 
2094:emulator/z80emu/z80emu.c ****                                         Z80_FETCH_BYTE(pc, e);
2095:emulator/z80emu/z80emu.c ****                                         pc += ((signed char) e) + 1;
2096:emulator/z80emu/z80emu.c **** 
2097:emulator/z80emu/z80emu.c ****                                         elapsed_cycles += 9;
2098:emulator/z80emu/z80emu.c **** 
2099:emulator/z80emu/z80emu.c ****                                 } else {
2100:emulator/z80emu/z80emu.c **** 
2101:emulator/z80emu/z80emu.c **** #ifdef Z80_FALSE_CONDITION_FETCH
2102:emulator/z80emu/z80emu.c **** 
2103:emulator/z80emu/z80emu.c ****                                         Z80_FETCH_BYTE(pc, e);
2104:emulator/z80emu/z80emu.c **** 
2105:emulator/z80emu/z80emu.c **** #endif
2106:emulator/z80emu/z80emu.c **** 
2107:emulator/z80emu/z80emu.c ****                                         pc++;
2108:emulator/z80emu/z80emu.c **** 
2109:emulator/z80emu/z80emu.c ****                                         elapsed_cycles += 4;
2110:emulator/z80emu/z80emu.c **** 
2111:emulator/z80emu/z80emu.c ****                                 }
2112:emulator/z80emu/z80emu.c ****                                 break;
2113:emulator/z80emu/z80emu.c **** 
2114:emulator/z80emu/z80emu.c ****                         }
2115:emulator/z80emu/z80emu.c **** 
2116:emulator/z80emu/z80emu.c ****                         /* Call and return group. */
2117:emulator/z80emu/z80emu.c **** 
2118:emulator/z80emu/z80emu.c ****                         case CALL_NN: {
2119:emulator/z80emu/z80emu.c **** 
2120:emulator/z80emu/z80emu.c ****                                 int     nn;
2121:emulator/z80emu/z80emu.c **** 
2122:emulator/z80emu/z80emu.c ****                                 READ_NN(nn);
2123:emulator/z80emu/z80emu.c ****                                 PUSH(pc);
2124:emulator/z80emu/z80emu.c ****                                 pc = nn;
2125:emulator/z80emu/z80emu.c **** 
2126:emulator/z80emu/z80emu.c ****                                 elapsed_cycles++;
2127:emulator/z80emu/z80emu.c **** 
2128:emulator/z80emu/z80emu.c ****                                 break;
2129:emulator/z80emu/z80emu.c **** 
2130:emulator/z80emu/z80emu.c ****                         }
2131:emulator/z80emu/z80emu.c **** 
2132:emulator/z80emu/z80emu.c ****                         case CALL_CC_NN: {
2133:emulator/z80emu/z80emu.c **** 
ARM GAS  /tmp/ccoto6PB.s 			page 40


2134:emulator/z80emu/z80emu.c ****                                 int     nn;
2135:emulator/z80emu/z80emu.c **** 
2136:emulator/z80emu/z80emu.c ****                                 if (CC(Y(opcode))) {
2137:emulator/z80emu/z80emu.c **** 
2138:emulator/z80emu/z80emu.c ****                                         READ_NN(nn);
2139:emulator/z80emu/z80emu.c ****                                         PUSH(pc);
2140:emulator/z80emu/z80emu.c ****                                         pc = nn;
2141:emulator/z80emu/z80emu.c **** 
2142:emulator/z80emu/z80emu.c ****                                         elapsed_cycles++;
2143:emulator/z80emu/z80emu.c **** 
2144:emulator/z80emu/z80emu.c ****                                 } else {
2145:emulator/z80emu/z80emu.c **** 
2146:emulator/z80emu/z80emu.c **** #ifdef Z80_FALSE_CONDITION_FETCH
2147:emulator/z80emu/z80emu.c **** 
2148:emulator/z80emu/z80emu.c ****                                         Z80_FETCH_WORD(pc, nn);
2149:emulator/z80emu/z80emu.c **** 
2150:emulator/z80emu/z80emu.c **** #endif
2151:emulator/z80emu/z80emu.c **** 
2152:emulator/z80emu/z80emu.c ****                                         pc += 2;
2153:emulator/z80emu/z80emu.c **** 
2154:emulator/z80emu/z80emu.c ****                                         elapsed_cycles += 6;
2155:emulator/z80emu/z80emu.c **** 
2156:emulator/z80emu/z80emu.c ****                                 }
2157:emulator/z80emu/z80emu.c ****                                 break;
2158:emulator/z80emu/z80emu.c **** 
2159:emulator/z80emu/z80emu.c ****                         }
2160:emulator/z80emu/z80emu.c **** 
2161:emulator/z80emu/z80emu.c ****                         case RET: {
2162:emulator/z80emu/z80emu.c **** 
2163:emulator/z80emu/z80emu.c ****                                 POP(pc);
2164:emulator/z80emu/z80emu.c ****                                 break;
2165:emulator/z80emu/z80emu.c **** 
2166:emulator/z80emu/z80emu.c ****                         }
2167:emulator/z80emu/z80emu.c ****                                                   
2168:emulator/z80emu/z80emu.c ****                         case RET_CC: {
2169:emulator/z80emu/z80emu.c **** 
2170:emulator/z80emu/z80emu.c ****                                 if (CC(Y(opcode))) {
2171:emulator/z80emu/z80emu.c **** 
2172:emulator/z80emu/z80emu.c ****                                         POP(pc);
2173:emulator/z80emu/z80emu.c **** 
2174:emulator/z80emu/z80emu.c ****                                 }
2175:emulator/z80emu/z80emu.c ****                                 elapsed_cycles++;
2176:emulator/z80emu/z80emu.c ****                                 break;
2177:emulator/z80emu/z80emu.c **** 
2178:emulator/z80emu/z80emu.c ****                         }
2179:emulator/z80emu/z80emu.c **** 
2180:emulator/z80emu/z80emu.c ****                         case RETI_RETN: {
2181:emulator/z80emu/z80emu.c **** 
2182:emulator/z80emu/z80emu.c ****                                 state->iff1 = state->iff2;
2183:emulator/z80emu/z80emu.c ****                                 POP(pc);        
2184:emulator/z80emu/z80emu.c **** 
2185:emulator/z80emu/z80emu.c **** #if defined(Z80_CATCH_RETI) && defined(Z80_CATCH_RETN)
2186:emulator/z80emu/z80emu.c **** 
2187:emulator/z80emu/z80emu.c ****                                 state->status = opcode == OPCODE_RETI
2188:emulator/z80emu/z80emu.c ****                                         ? Z80_STATUS_FLAG_RETI
2189:emulator/z80emu/z80emu.c ****                                         : Z80_STATUS_FLAG_RETN;
2190:emulator/z80emu/z80emu.c ****                                 goto stop_emulation;
ARM GAS  /tmp/ccoto6PB.s 			page 41


2191:emulator/z80emu/z80emu.c **** 
2192:emulator/z80emu/z80emu.c **** #elif defined(Z80_CATCH_RETI)
2193:emulator/z80emu/z80emu.c **** 
2194:emulator/z80emu/z80emu.c ****                                 state->status = Z80_STATUS_FLAG_RETI;
2195:emulator/z80emu/z80emu.c ****                                 goto stop_emulation;
2196:emulator/z80emu/z80emu.c **** 
2197:emulator/z80emu/z80emu.c **** #elif defined(Z80_CATCH_RETN)
2198:emulator/z80emu/z80emu.c **** 
2199:emulator/z80emu/z80emu.c ****                                 state->status = Z80_STATUS_FLAG_RETN;
2200:emulator/z80emu/z80emu.c ****                                 goto stop_emulation;
2201:emulator/z80emu/z80emu.c **** 
2202:emulator/z80emu/z80emu.c **** #else
2203:emulator/z80emu/z80emu.c **** 
2204:emulator/z80emu/z80emu.c ****                                 break;
2205:emulator/z80emu/z80emu.c **** 
2206:emulator/z80emu/z80emu.c **** #endif
2207:emulator/z80emu/z80emu.c **** 
2208:emulator/z80emu/z80emu.c ****                         }
2209:emulator/z80emu/z80emu.c **** 
2210:emulator/z80emu/z80emu.c ****                         case RST_P: {
2211:emulator/z80emu/z80emu.c **** 
2212:emulator/z80emu/z80emu.c ****                                 PUSH(pc);
2213:emulator/z80emu/z80emu.c ****                                 pc = RST_TABLE[Y(opcode)];
2214:emulator/z80emu/z80emu.c ****                                 elapsed_cycles++;
2215:emulator/z80emu/z80emu.c ****                                 break;
2216:emulator/z80emu/z80emu.c **** 
2217:emulator/z80emu/z80emu.c ****                         }
2218:emulator/z80emu/z80emu.c **** 
2219:emulator/z80emu/z80emu.c ****                         /* Input and output group. */
2220:emulator/z80emu/z80emu.c **** 
2221:emulator/z80emu/z80emu.c ****                         case IN_A_N: {
2222:emulator/z80emu/z80emu.c **** 
2223:emulator/z80emu/z80emu.c ****                                 int n, inputResult;
2224:emulator/z80emu/z80emu.c **** 
2225:emulator/z80emu/z80emu.c ****                                 READ_N(n);
2226:emulator/z80emu/z80emu.c ****                                 Z80_INPUT_BYTE(n, A, inputResult);
2227:emulator/z80emu/z80emu.c ****                                 A = inputResult;
2228:emulator/z80emu/z80emu.c **** 
2229:emulator/z80emu/z80emu.c ****                                 elapsed_cycles += 4;
2230:emulator/z80emu/z80emu.c **** 
2231:emulator/z80emu/z80emu.c ****                                 break;
2232:emulator/z80emu/z80emu.c **** 
2233:emulator/z80emu/z80emu.c ****                         }       
2234:emulator/z80emu/z80emu.c **** 
2235:emulator/z80emu/z80emu.c ****                         case IN_R_C: {
2236:emulator/z80emu/z80emu.c **** 
2237:emulator/z80emu/z80emu.c ****                                 int     x;                                           
2238:emulator/z80emu/z80emu.c ****                                 Z80_INPUT_BYTE(C, B, x);
2239:emulator/z80emu/z80emu.c ****                                 if (Y(opcode) != INDIRECT_HL) 
2240:emulator/z80emu/z80emu.c **** 
2241:emulator/z80emu/z80emu.c ****                                         R(Y(opcode)) = x;
2242:emulator/z80emu/z80emu.c **** 
2243:emulator/z80emu/z80emu.c ****                                 F = SZYXP_FLAGS_TABLE[x] | (F & Z80_C_FLAG);
2244:emulator/z80emu/z80emu.c **** 
2245:emulator/z80emu/z80emu.c ****                                 elapsed_cycles += 4;
2246:emulator/z80emu/z80emu.c **** 
2247:emulator/z80emu/z80emu.c ****                                 break;
ARM GAS  /tmp/ccoto6PB.s 			page 42


2248:emulator/z80emu/z80emu.c **** 
2249:emulator/z80emu/z80emu.c ****                         }
2250:emulator/z80emu/z80emu.c **** 
2251:emulator/z80emu/z80emu.c ****                         /* Some of the undocumented flags for "INI", "IND", 
2252:emulator/z80emu/z80emu.c ****                          * "INIR", "INDR",  "OUTI", "OUTD", "OTIR", and 
2253:emulator/z80emu/z80emu.c ****                          * "OTDR" are really really strange. The emulator 
2254:emulator/z80emu/z80emu.c ****                          * implements the specifications described in "The
2255:emulator/z80emu/z80emu.c ****                          * Undocumented Z80 Documented Version 0.91". 
2256:emulator/z80emu/z80emu.c ****                          */
2257:emulator/z80emu/z80emu.c **** 
2258:emulator/z80emu/z80emu.c ****                         case INI_IND: {
2259:emulator/z80emu/z80emu.c **** 
2260:emulator/z80emu/z80emu.c ****                                 int     x, f;
2261:emulator/z80emu/z80emu.c **** 
2262:emulator/z80emu/z80emu.c ****                                 Z80_INPUT_BYTE(C, B, x);
2263:emulator/z80emu/z80emu.c ****                                 WRITE_BYTE(HL, x);
2264:emulator/z80emu/z80emu.c **** 
2265:emulator/z80emu/z80emu.c ****                                 f = SZYX_FLAGS_TABLE[--B & 0xff]
2266:emulator/z80emu/z80emu.c ****                                         | (x >> (7 - Z80_N_FLAG_SHIFT));
2267:emulator/z80emu/z80emu.c ****                                 if (opcode == OPCODE_INI) {
2268:emulator/z80emu/z80emu.c **** 
2269:emulator/z80emu/z80emu.c ****                                         HL++;
2270:emulator/z80emu/z80emu.c ****                                         x += (C + 1) & 0xff;
2271:emulator/z80emu/z80emu.c **** 
2272:emulator/z80emu/z80emu.c ****                                 } else {
2273:emulator/z80emu/z80emu.c **** 
2274:emulator/z80emu/z80emu.c ****                                         HL--;
2275:emulator/z80emu/z80emu.c ****                                         x += (C - 1) & 0xff;
2276:emulator/z80emu/z80emu.c **** 
2277:emulator/z80emu/z80emu.c ****                                 }       
2278:emulator/z80emu/z80emu.c ****                                 f |= x & 0x0100 ? HC_FLAGS : 0;
2279:emulator/z80emu/z80emu.c ****                                 f |= SZYXP_FLAGS_TABLE[(x & 0x07) ^ B]
2280:emulator/z80emu/z80emu.c ****                                         & Z80_P_FLAG;
2281:emulator/z80emu/z80emu.c ****                                 F = f;
2282:emulator/z80emu/z80emu.c **** 
2283:emulator/z80emu/z80emu.c ****                                 elapsed_cycles += 5;
2284:emulator/z80emu/z80emu.c **** 
2285:emulator/z80emu/z80emu.c ****                                 break;
2286:emulator/z80emu/z80emu.c **** 
2287:emulator/z80emu/z80emu.c ****                         }
2288:emulator/z80emu/z80emu.c **** 
2289:emulator/z80emu/z80emu.c ****                         case INIR_INDR: {
2290:emulator/z80emu/z80emu.c **** 
2291:emulator/z80emu/z80emu.c ****                                 int     d, b, hl, x, f;
2292:emulator/z80emu/z80emu.c **** 
2293:emulator/z80emu/z80emu.c **** #ifdef Z80_HANDLE_SELF_MODIFYING_CODE
2294:emulator/z80emu/z80emu.c **** 
2295:emulator/z80emu/z80emu.c ****                                 int     p, q;
2296:emulator/z80emu/z80emu.c **** 
2297:emulator/z80emu/z80emu.c ****                                 p = (pc - 2) & 0xffff;
2298:emulator/z80emu/z80emu.c ****                                 q = (pc - 1) & 0xffff;
2299:emulator/z80emu/z80emu.c **** 
2300:emulator/z80emu/z80emu.c **** #endif                          
2301:emulator/z80emu/z80emu.c **** 
2302:emulator/z80emu/z80emu.c ****                                 d = opcode == OPCODE_INIR ? +1 : -1;
2303:emulator/z80emu/z80emu.c **** 
2304:emulator/z80emu/z80emu.c ****                                 b = B;
ARM GAS  /tmp/ccoto6PB.s 			page 43


2305:emulator/z80emu/z80emu.c ****                                 hl = HL;
2306:emulator/z80emu/z80emu.c **** 
2307:emulator/z80emu/z80emu.c ****                                 r -= 2;
2308:emulator/z80emu/z80emu.c ****                                 elapsed_cycles -= 8;
2309:emulator/z80emu/z80emu.c ****                                 for ( ; ; ) {
2310:emulator/z80emu/z80emu.c **** 
2311:emulator/z80emu/z80emu.c ****                                         r += 2;
2312:emulator/z80emu/z80emu.c ****                 
2313:emulator/z80emu/z80emu.c ****                                         Z80_INPUT_BYTE(C, B, x);
2314:emulator/z80emu/z80emu.c ****                                         Z80_WRITE_BYTE(hl, x);
2315:emulator/z80emu/z80emu.c **** 
2316:emulator/z80emu/z80emu.c ****                                         hl += d;
2317:emulator/z80emu/z80emu.c **** 
2318:emulator/z80emu/z80emu.c ****                                         if (--b) 
2319:emulator/z80emu/z80emu.c **** 
2320:emulator/z80emu/z80emu.c ****                                                 elapsed_cycles += 21;
2321:emulator/z80emu/z80emu.c **** 
2322:emulator/z80emu/z80emu.c ****                                         else {
2323:emulator/z80emu/z80emu.c **** 
2324:emulator/z80emu/z80emu.c ****                                                 f = Z80_Z_FLAG;
2325:emulator/z80emu/z80emu.c ****                                                 elapsed_cycles += 16;
2326:emulator/z80emu/z80emu.c ****                                                 break;
2327:emulator/z80emu/z80emu.c **** 
2328:emulator/z80emu/z80emu.c ****                                         } 
2329:emulator/z80emu/z80emu.c **** 
2330:emulator/z80emu/z80emu.c **** #ifdef Z80_HANDLE_SELF_MODIFYING_CODE
2331:emulator/z80emu/z80emu.c **** 
2332:emulator/z80emu/z80emu.c ****                                         if (((hl - d) & 0xffff) == p 
2333:emulator/z80emu/z80emu.c ****                                         || ((hl - d) & 0xffff) == q) { 
2334:emulator/z80emu/z80emu.c **** 
2335:emulator/z80emu/z80emu.c ****                                                 f = SZYX_FLAGS_TABLE[b];
2336:emulator/z80emu/z80emu.c ****                                                 pc -= 2;
2337:emulator/z80emu/z80emu.c ****                                                 break;
2338:emulator/z80emu/z80emu.c **** 
2339:emulator/z80emu/z80emu.c ****                                         }
2340:emulator/z80emu/z80emu.c **** 
2341:emulator/z80emu/z80emu.c **** #endif                                  
2342:emulator/z80emu/z80emu.c **** 
2343:emulator/z80emu/z80emu.c ****                                         if (elapsed_cycles < number_cycles) 
2344:emulator/z80emu/z80emu.c **** 
2345:emulator/z80emu/z80emu.c ****                                                 continue;
2346:emulator/z80emu/z80emu.c **** 
2347:emulator/z80emu/z80emu.c ****                                         else {
2348:emulator/z80emu/z80emu.c **** 
2349:emulator/z80emu/z80emu.c ****                                                 f = SZYX_FLAGS_TABLE[b];
2350:emulator/z80emu/z80emu.c ****                                                 pc -= 2;
2351:emulator/z80emu/z80emu.c ****                                                 break;
2352:emulator/z80emu/z80emu.c **** 
2353:emulator/z80emu/z80emu.c ****                                         }
2354:emulator/z80emu/z80emu.c **** 
2355:emulator/z80emu/z80emu.c ****                                 } 
2356:emulator/z80emu/z80emu.c **** 
2357:emulator/z80emu/z80emu.c ****                                 HL = hl;
2358:emulator/z80emu/z80emu.c ****                                 B = b;
2359:emulator/z80emu/z80emu.c **** 
2360:emulator/z80emu/z80emu.c ****                                 f |= x >> (7 - Z80_N_FLAG_SHIFT);
2361:emulator/z80emu/z80emu.c ****                                 x += (C + d) & 0xff;
ARM GAS  /tmp/ccoto6PB.s 			page 44


2362:emulator/z80emu/z80emu.c ****                                 f |= x & 0x0100 ? HC_FLAGS : 0;
2363:emulator/z80emu/z80emu.c ****                                 f |= SZYXP_FLAGS_TABLE[(x & 0x07) ^ b]
2364:emulator/z80emu/z80emu.c ****                                         & Z80_P_FLAG;
2365:emulator/z80emu/z80emu.c ****                                 F = f;
2366:emulator/z80emu/z80emu.c **** 
2367:emulator/z80emu/z80emu.c ****                                 break;
2368:emulator/z80emu/z80emu.c **** 
2369:emulator/z80emu/z80emu.c ****                         }
2370:emulator/z80emu/z80emu.c **** 
2371:emulator/z80emu/z80emu.c ****                         case OUT_N_A: {
2372:emulator/z80emu/z80emu.c **** 
2373:emulator/z80emu/z80emu.c ****                                 int     n;
2374:emulator/z80emu/z80emu.c **** 
2375:emulator/z80emu/z80emu.c ****                                 READ_N(n);
2376:emulator/z80emu/z80emu.c ****                                 Z80_OUTPUT_BYTE(n, A, A);
2377:emulator/z80emu/z80emu.c **** 
2378:emulator/z80emu/z80emu.c ****                                 elapsed_cycles += 4;
2379:emulator/z80emu/z80emu.c **** 
2380:emulator/z80emu/z80emu.c ****                                 break;
2381:emulator/z80emu/z80emu.c **** 
2382:emulator/z80emu/z80emu.c ****                         }       
2383:emulator/z80emu/z80emu.c **** 
2384:emulator/z80emu/z80emu.c ****                         case OUT_C_R: {
2385:emulator/z80emu/z80emu.c **** 
2386:emulator/z80emu/z80emu.c ****                                 int     x;
2387:emulator/z80emu/z80emu.c **** 
2388:emulator/z80emu/z80emu.c ****                                 x = Y(opcode) != INDIRECT_HL
2389:emulator/z80emu/z80emu.c ****                                         ? R(Y(opcode))
2390:emulator/z80emu/z80emu.c ****                                         : 0;
2391:emulator/z80emu/z80emu.c ****                                 Z80_OUTPUT_BYTE(C, B, x);
2392:emulator/z80emu/z80emu.c **** 
2393:emulator/z80emu/z80emu.c ****                                 elapsed_cycles += 4;
2394:emulator/z80emu/z80emu.c **** 
2395:emulator/z80emu/z80emu.c ****                                 break;
2396:emulator/z80emu/z80emu.c **** 
2397:emulator/z80emu/z80emu.c ****                         }
2398:emulator/z80emu/z80emu.c **** 
2399:emulator/z80emu/z80emu.c ****                         case OUTI_OUTD: {
2400:emulator/z80emu/z80emu.c **** 
2401:emulator/z80emu/z80emu.c ****                                 int     x, f;
2402:emulator/z80emu/z80emu.c **** 
2403:emulator/z80emu/z80emu.c ****                                 READ_BYTE(HL, x);
2404:emulator/z80emu/z80emu.c ****                                 Z80_OUTPUT_BYTE(C, B, x);
2405:emulator/z80emu/z80emu.c **** 
2406:emulator/z80emu/z80emu.c ****                                 HL += opcode == OPCODE_OUTI ? +1 : -1;
2407:emulator/z80emu/z80emu.c **** 
2408:emulator/z80emu/z80emu.c ****                                 f = SZYX_FLAGS_TABLE[--B & 0xff]
2409:emulator/z80emu/z80emu.c ****                                         | (x >> (7 - Z80_N_FLAG_SHIFT));
2410:emulator/z80emu/z80emu.c ****                                 x += HL & 0xff;
2411:emulator/z80emu/z80emu.c ****                                 f |= x & 0x0100 ? HC_FLAGS : 0;
2412:emulator/z80emu/z80emu.c ****                                 f |= SZYXP_FLAGS_TABLE[(x & 0x07) ^ B]
2413:emulator/z80emu/z80emu.c ****                                         & Z80_P_FLAG;
2414:emulator/z80emu/z80emu.c ****                                 F = f;
2415:emulator/z80emu/z80emu.c **** 
2416:emulator/z80emu/z80emu.c ****                                 break;
2417:emulator/z80emu/z80emu.c **** 
2418:emulator/z80emu/z80emu.c ****                         }
ARM GAS  /tmp/ccoto6PB.s 			page 45


2419:emulator/z80emu/z80emu.c **** 
2420:emulator/z80emu/z80emu.c ****                         case OTIR_OTDR: {
2421:emulator/z80emu/z80emu.c **** 
2422:emulator/z80emu/z80emu.c ****                                 int     d, b, hl, x, f;
2423:emulator/z80emu/z80emu.c **** 
2424:emulator/z80emu/z80emu.c ****                                 d = opcode == OPCODE_OTIR ? +1 : -1;
2425:emulator/z80emu/z80emu.c **** 
2426:emulator/z80emu/z80emu.c ****                                 b = B;
2427:emulator/z80emu/z80emu.c ****                                 hl = HL;
2428:emulator/z80emu/z80emu.c **** 
2429:emulator/z80emu/z80emu.c ****                                 r -= 2;
2430:emulator/z80emu/z80emu.c ****                                 elapsed_cycles -= 8;
2431:emulator/z80emu/z80emu.c ****                                 for ( ; ; ) {
2432:emulator/z80emu/z80emu.c **** 
2433:emulator/z80emu/z80emu.c ****                                         r += 2;
2434:emulator/z80emu/z80emu.c **** 
2435:emulator/z80emu/z80emu.c ****                                         Z80_READ_BYTE(hl, x);
2436:emulator/z80emu/z80emu.c ****                                         Z80_OUTPUT_BYTE(C, B, x);
2437:emulator/z80emu/z80emu.c **** 
2438:emulator/z80emu/z80emu.c ****                                         hl += d;
2439:emulator/z80emu/z80emu.c ****                                         if (--b) 
2440:emulator/z80emu/z80emu.c **** 
2441:emulator/z80emu/z80emu.c ****                                                 elapsed_cycles += 21;
2442:emulator/z80emu/z80emu.c **** 
2443:emulator/z80emu/z80emu.c ****                                         else {
2444:emulator/z80emu/z80emu.c **** 
2445:emulator/z80emu/z80emu.c ****                                                 f = Z80_Z_FLAG;
2446:emulator/z80emu/z80emu.c ****                                                 elapsed_cycles += 16;
2447:emulator/z80emu/z80emu.c ****                                                 break;
2448:emulator/z80emu/z80emu.c **** 
2449:emulator/z80emu/z80emu.c ****                                         } 
2450:emulator/z80emu/z80emu.c **** 
2451:emulator/z80emu/z80emu.c ****                                         if (elapsed_cycles < number_cycles) 
2452:emulator/z80emu/z80emu.c **** 
2453:emulator/z80emu/z80emu.c ****                                                 continue;
2454:emulator/z80emu/z80emu.c **** 
2455:emulator/z80emu/z80emu.c ****                                         else {
2456:emulator/z80emu/z80emu.c **** 
2457:emulator/z80emu/z80emu.c ****                                                 f = SZYX_FLAGS_TABLE[b];
2458:emulator/z80emu/z80emu.c ****                                                 pc -= 2;
2459:emulator/z80emu/z80emu.c ****                                                 break;
2460:emulator/z80emu/z80emu.c **** 
2461:emulator/z80emu/z80emu.c ****                                         }
2462:emulator/z80emu/z80emu.c **** 
2463:emulator/z80emu/z80emu.c ****                                 } 
2464:emulator/z80emu/z80emu.c **** 
2465:emulator/z80emu/z80emu.c ****                                 HL = hl;
2466:emulator/z80emu/z80emu.c ****                                 B = b;
2467:emulator/z80emu/z80emu.c **** 
2468:emulator/z80emu/z80emu.c ****                                 f |= x >> (7 - Z80_N_FLAG_SHIFT);
2469:emulator/z80emu/z80emu.c ****                                 x += hl & 0xff;
2470:emulator/z80emu/z80emu.c ****                                 f |= x & 0x0100 ? HC_FLAGS : 0;
2471:emulator/z80emu/z80emu.c ****                                 f |= SZYXP_FLAGS_TABLE[(x & 0x07) ^ b]
2472:emulator/z80emu/z80emu.c ****                                         & Z80_P_FLAG;
2473:emulator/z80emu/z80emu.c ****                                 F = f;
2474:emulator/z80emu/z80emu.c **** 
2475:emulator/z80emu/z80emu.c ****                                 break;
ARM GAS  /tmp/ccoto6PB.s 			page 46


2476:emulator/z80emu/z80emu.c **** 
2477:emulator/z80emu/z80emu.c ****                         }
2478:emulator/z80emu/z80emu.c **** 
2479:emulator/z80emu/z80emu.c ****                         /* Prefix group. */
2480:emulator/z80emu/z80emu.c **** 
2481:emulator/z80emu/z80emu.c ****                         case CB_PREFIX: {
2482:emulator/z80emu/z80emu.c **** 
2483:emulator/z80emu/z80emu.c ****                                 /* Special handling if the 0xcb prefix is 
2484:emulator/z80emu/z80emu.c ****                                  * prefixed by a 0xdd or 0xfd prefix.
2485:emulator/z80emu/z80emu.c ****                                  */
2486:emulator/z80emu/z80emu.c **** 
2487:emulator/z80emu/z80emu.c ****                                 if (registers != state->register_table) {
2488:emulator/z80emu/z80emu.c **** 
2489:emulator/z80emu/z80emu.c ****                                         r--;
2490:emulator/z80emu/z80emu.c **** 
2491:emulator/z80emu/z80emu.c ****                                         /* Indexed memory access routine will
2492:emulator/z80emu/z80emu.c ****                                          * correctly update pc.
2493:emulator/z80emu/z80emu.c ****                                          */
2494:emulator/z80emu/z80emu.c **** 
2495:emulator/z80emu/z80emu.c ****                                         Z80_FETCH_BYTE(pc + 1, opcode);
2496:emulator/z80emu/z80emu.c **** 
2497:emulator/z80emu/z80emu.c ****                                 } else {
2498:emulator/z80emu/z80emu.c **** 
2499:emulator/z80emu/z80emu.c ****                                         Z80_FETCH_BYTE(pc, opcode);
2500:emulator/z80emu/z80emu.c ****                                         pc++;
2501:emulator/z80emu/z80emu.c **** 
2502:emulator/z80emu/z80emu.c ****                                 }
2503:emulator/z80emu/z80emu.c ****                                 instruction = CB_INSTRUCTION_TABLE[opcode];
2504:emulator/z80emu/z80emu.c **** 
2505:emulator/z80emu/z80emu.c ****                                 goto emulate_next_instruction;
2506:emulator/z80emu/z80emu.c **** 
2507:emulator/z80emu/z80emu.c ****                         }
2508:emulator/z80emu/z80emu.c **** 
2509:emulator/z80emu/z80emu.c ****                         case DD_PREFIX: {
2510:emulator/z80emu/z80emu.c **** 
2511:emulator/z80emu/z80emu.c ****                                 registers = state->dd_register_table;
2512:emulator/z80emu/z80emu.c **** 
2513:emulator/z80emu/z80emu.c **** #ifdef Z80_PREFIX_FAILSAFE
2514:emulator/z80emu/z80emu.c **** 
2515:emulator/z80emu/z80emu.c ****                                 /* Ensure that at least number_cycles cycles 
2516:emulator/z80emu/z80emu.c ****                                  * are executed.
2517:emulator/z80emu/z80emu.c ****                                  */
2518:emulator/z80emu/z80emu.c **** 
2519:emulator/z80emu/z80emu.c ****                                 if (elapsed_cycles < number_cycles) {
2520:emulator/z80emu/z80emu.c **** 
2521:emulator/z80emu/z80emu.c ****                                         Z80_FETCH_BYTE(pc, opcode);
2522:emulator/z80emu/z80emu.c ****                                         pc++;
2523:emulator/z80emu/z80emu.c ****                                         goto emulate_next_opcode;
2524:emulator/z80emu/z80emu.c **** 
2525:emulator/z80emu/z80emu.c ****                                 } else {
2526:emulator/z80emu/z80emu.c **** 
2527:emulator/z80emu/z80emu.c **** 					state->status = Z80_STATUS_PREFIX;
2528:emulator/z80emu/z80emu.c ****                                         pc--;
2529:emulator/z80emu/z80emu.c ****                                         elapsed_cycles -= 4;
2530:emulator/z80emu/z80emu.c ****                                         goto stop_emulation;
2531:emulator/z80emu/z80emu.c **** 
2532:emulator/z80emu/z80emu.c ****                                 }
ARM GAS  /tmp/ccoto6PB.s 			page 47


2533:emulator/z80emu/z80emu.c **** 
2534:emulator/z80emu/z80emu.c **** #else
2535:emulator/z80emu/z80emu.c **** 
2536:emulator/z80emu/z80emu.c ****                                 Z80_FETCH_BYTE(pc, opcode);
2537:emulator/z80emu/z80emu.c ****                                 pc++;
2538:emulator/z80emu/z80emu.c ****                                 goto emulate_next_opcode;
2539:emulator/z80emu/z80emu.c **** 
2540:emulator/z80emu/z80emu.c **** #endif                          
2541:emulator/z80emu/z80emu.c **** 
2542:emulator/z80emu/z80emu.c ****                         }
2543:emulator/z80emu/z80emu.c **** 
2544:emulator/z80emu/z80emu.c ****                         case FD_PREFIX: {
2545:emulator/z80emu/z80emu.c **** 
2546:emulator/z80emu/z80emu.c ****                                 registers = state->fd_register_table;
2547:emulator/z80emu/z80emu.c **** 
2548:emulator/z80emu/z80emu.c **** #ifdef Z80_PREFIX_FAILSAFE
2549:emulator/z80emu/z80emu.c **** 
2550:emulator/z80emu/z80emu.c ****                                 if (elapsed_cycles < number_cycles) {
2551:emulator/z80emu/z80emu.c **** 
2552:emulator/z80emu/z80emu.c ****                                         Z80_FETCH_BYTE(pc, opcode);
2553:emulator/z80emu/z80emu.c ****                                         pc++;
2554:emulator/z80emu/z80emu.c ****                                         goto emulate_next_opcode;
2555:emulator/z80emu/z80emu.c **** 
2556:emulator/z80emu/z80emu.c ****                                 } else {
2557:emulator/z80emu/z80emu.c **** 
2558:emulator/z80emu/z80emu.c **** 					state->status = Z80_STATUS_PREFIX;
2559:emulator/z80emu/z80emu.c ****                                         pc--;
2560:emulator/z80emu/z80emu.c ****                                         elapsed_cycles -= 4;
2561:emulator/z80emu/z80emu.c ****                                         goto stop_emulation;
2562:emulator/z80emu/z80emu.c **** 
2563:emulator/z80emu/z80emu.c ****                                 }
2564:emulator/z80emu/z80emu.c **** 
2565:emulator/z80emu/z80emu.c **** #else
2566:emulator/z80emu/z80emu.c ****         
2567:emulator/z80emu/z80emu.c ****                                 Z80_FETCH_BYTE(pc, opcode);
2568:emulator/z80emu/z80emu.c ****                                 pc++;
2569:emulator/z80emu/z80emu.c ****                                 goto emulate_next_opcode;
2570:emulator/z80emu/z80emu.c **** 
2571:emulator/z80emu/z80emu.c **** #endif                          
2572:emulator/z80emu/z80emu.c **** 
2573:emulator/z80emu/z80emu.c ****                         }
2574:emulator/z80emu/z80emu.c **** 
2575:emulator/z80emu/z80emu.c ****                         case ED_PREFIX: {
2576:emulator/z80emu/z80emu.c **** 
2577:emulator/z80emu/z80emu.c ****                                 registers = state->register_table;
2578:emulator/z80emu/z80emu.c ****                                 Z80_FETCH_BYTE(pc, opcode);
2579:emulator/z80emu/z80emu.c ****                                 pc++;
2580:emulator/z80emu/z80emu.c ****                                 instruction = ED_INSTRUCTION_TABLE[opcode];
2581:emulator/z80emu/z80emu.c **** 
2582:emulator/z80emu/z80emu.c ****                                 goto emulate_next_instruction;
2583:emulator/z80emu/z80emu.c **** 
2584:emulator/z80emu/z80emu.c ****                         }
2585:emulator/z80emu/z80emu.c **** 
2586:emulator/z80emu/z80emu.c ****                         /* Special/pseudo instruction group. */
2587:emulator/z80emu/z80emu.c **** 
2588:emulator/z80emu/z80emu.c ****                         case ED_UNDEFINED: {
2589:emulator/z80emu/z80emu.c **** 
ARM GAS  /tmp/ccoto6PB.s 			page 48


2590:emulator/z80emu/z80emu.c **** #ifdef Z80_CATCH_ED_UNDEFINED
2591:emulator/z80emu/z80emu.c **** 
2592:emulator/z80emu/z80emu.c ****                                 state->status = Z80_STATUS_FLAG_ED_UNDEFINED;
2593:emulator/z80emu/z80emu.c ****                                 pc -= 2;
2594:emulator/z80emu/z80emu.c ****                                 goto stop_emulation;
2595:emulator/z80emu/z80emu.c **** 
2596:emulator/z80emu/z80emu.c **** #else
2597:emulator/z80emu/z80emu.c **** 
2598:emulator/z80emu/z80emu.c ****                                 break;
2599:emulator/z80emu/z80emu.c **** 
2600:emulator/z80emu/z80emu.c **** #endif
2601:emulator/z80emu/z80emu.c **** 
2602:emulator/z80emu/z80emu.c ****                         }
2603:emulator/z80emu/z80emu.c **** 
2604:emulator/z80emu/z80emu.c ****                 }
2605:emulator/z80emu/z80emu.c **** 
2606:emulator/z80emu/z80emu.c ****                 if (elapsed_cycles >= number_cycles)
  92              		.loc 1 2606 17 view .LVU18
  93              		.loc 1 2606 20 is_stmt 0 view .LVU19
  94 003a 029B     		ldr	r3, [sp, #8]
  95 003c 9E42     		cmp	r6, r3
  96 003e 82F21B80 		bge	.L258
  97              		.loc 1 2606 20 view .LVU20
  98              	.LBE2:
 262:emulator/z80emu/z80emu.c **** 
  99              		.loc 1 262 17 is_stmt 1 view .LVU21
 262:emulator/z80emu/z80emu.c **** 
 100              		.loc 1 262 9 view .LVU22
 101              	.LBB148:
 264:emulator/z80emu/z80emu.c ****                 int     instruction;
 102              		.loc 1 264 17 view .LVU23
 265:emulator/z80emu/z80emu.c **** 
 103              		.loc 1 265 17 view .LVU24
 267:emulator/z80emu/z80emu.c ****                 pc++;
 104              		.loc 1 267 17 view .LVU25
 105 0042 D9F80030 		ldr	r3, [r9]
 106 0046 1FFA8BF0 		uxth	r0, fp
 107 004a 9847     		blx	r3
 108              	.LVL8:
 109 004c 0446     		mov	r4, r0
 110              	.LVL9:
 267:emulator/z80emu/z80emu.c ****                 pc++;
 111              		.loc 1 267 43 view .LVU26
 268:emulator/z80emu/z80emu.c **** 
 112              		.loc 1 268 17 view .LVU27
 268:emulator/z80emu/z80emu.c **** 
 113              		.loc 1 268 19 is_stmt 0 view .LVU28
 114 004e 0BF1010B 		add	fp, fp, #1
 115              	.LVL10:
 268:emulator/z80emu/z80emu.c **** 
 116              		.loc 1 268 19 view .LVU29
 117 0052 5746     		mov	r7, r10
 118              	.LVL11:
 119              	.L2:
 272:emulator/z80emu/z80emu.c **** 
 120              		.loc 1 272 17 is_stmt 1 view .LVU30
 272:emulator/z80emu/z80emu.c **** 
ARM GAS  /tmp/ccoto6PB.s 			page 49


 121              		.loc 1 272 27 is_stmt 0 view .LVU31
 122 0054 05F13408 		add	r8, r5, #52
 123              	.LVL12:
 272:emulator/z80emu/z80emu.c **** 
 124              		.loc 1 272 27 view .LVU32
 125 0058 CDF80480 		str	r8, [sp, #4]
 126 005c 2046     		mov	r0, r4
 127              	.LVL13:
 128              	.L3:
 276:emulator/z80emu/z80emu.c **** 
 129              		.loc 1 276 17 is_stmt 1 view .LVU33
 276:emulator/z80emu/z80emu.c **** 
 130              		.loc 1 276 48 is_stmt 0 view .LVU34
 131 005e DB4B     		ldr	r3, .L294
 132 0060 1B5C     		ldrb	r3, [r3, r0]	@ zero_extendqisi2
 133              	.LVL14:
 134              	.L5:
 280:emulator/z80emu/z80emu.c ****                 r++;
 135              		.loc 1 280 17 is_stmt 1 view .LVU35
 280:emulator/z80emu/z80emu.c ****                 r++;
 136              		.loc 1 280 32 is_stmt 0 view .LVU36
 137 0062 06F1040A 		add	r10, r6, #4
 138              	.LVL15:
 281:emulator/z80emu/z80emu.c ****                 switch (instruction) {
 139              		.loc 1 281 17 is_stmt 1 view .LVU37
 281:emulator/z80emu/z80emu.c ****                 switch (instruction) {
 140              		.loc 1 281 18 is_stmt 0 view .LVU38
 141 0066 7C1C     		adds	r4, r7, #1
 142              	.LVL16:
 282:emulator/z80emu/z80emu.c **** 
 143              		.loc 1 282 17 is_stmt 1 view .LVU39
 144 0068 7A2B     		cmp	r3, #122
 145 006a 02F20180 		bhi	.L236
 146 006e 01A2     		adr	r2, .L9
 147 0070 52F823F0 		ldr	pc, [r2, r3, lsl #2]
 148              		.p2align 2
 149              	.L9:
 150 0074 21000000 		.word	.L130+1
 151 0078 61020000 		.word	.L129+1
 152 007c 81020000 		.word	.L128+1
 153 0080 D5020000 		.word	.L127+1
 154 0084 29030000 		.word	.L126+1
 155 0088 7F030000 		.word	.L125+1
 156 008c 8F030000 		.word	.L124+1
 157 0090 9F030000 		.word	.L123+1
 158 0094 BB030000 		.word	.L122+1
 159 0098 D1030000 		.word	.L121+1
 160 009c E1030000 		.word	.L120+1
 161 00a0 FD030000 		.word	.L119+1
 162 00a4 2F040000 		.word	.L118+1
 163 00a8 47040000 		.word	.L117+1
 164 00ac 69040000 		.word	.L116+1
 165 00b0 89040000 		.word	.L115+1
 166 00b4 B3040000 		.word	.L114+1
 167 00b8 D3040000 		.word	.L113+1
 168 00bc FD040000 		.word	.L112+1
 169 00c0 0B050000 		.word	.L111+1
ARM GAS  /tmp/ccoto6PB.s 			page 50


 170 00c4 2F050000 		.word	.L110+1
 171 00c8 51050000 		.word	.L109+1
 172 00cc 5F050000 		.word	.L108+1
 173 00d0 6D050000 		.word	.L107+1
 174 00d4 8B050000 		.word	.L106+1
 175 00d8 AD050000 		.word	.L105+1
 176 00dc 0F060000 		.word	.L104+1
 177 00e0 A5060000 		.word	.L103+1
 178 00e4 1B070000 		.word	.L102+1
 179 00e8 B3070000 		.word	.L101+1
 180 00ec EB070000 		.word	.L100+1
 181 00f0 27080000 		.word	.L99+1
 182 00f4 87080000 		.word	.L98+1
 183 00f8 C9080000 		.word	.L97+1
 184 00fc 11090000 		.word	.L96+1
 185 0100 7B090000 		.word	.L95+1
 186 0104 C5090000 		.word	.L94+1
 187 0108 0B0A0000 		.word	.L93+1
 188 010c 730A0000 		.word	.L92+1
 189 0110 BD0A0000 		.word	.L91+1
 190 0114 0D0B0000 		.word	.L90+1
 191 0118 7F0B0000 		.word	.L89+1
 192 011c A30B0000 		.word	.L88+1
 193 0120 C90B0000 		.word	.L87+1
 194 0124 9F0C0000 		.word	.L86+1
 195 0128 BF0C0000 		.word	.L85+1
 196 012c F10C0000 		.word	.L84+1
 197 0130 130C0000 		.word	.L83+1
 198 0134 330C0000 		.word	.L82+1
 199 0138 570C0000 		.word	.L81+1
 200 013c 390D0000 		.word	.L80+1
 201 0140 830D0000 		.word	.L79+1
 202 0144 D10D0000 		.word	.L78+1
 203 0148 410E0000 		.word	.L77+1
 204 014c 7D0E0000 		.word	.L76+1
 205 0150 1B0F0000 		.word	.L75+1
 206 0154 5F0F0000 		.word	.L74+1
 207 0158 7F110000 		.word	.L73+1
 208 015c BF110000 		.word	.L72+1
 209 0160 0D120000 		.word	.L71+1
 210 0164 63120000 		.word	.L70+1
 211 0168 7D120000 		.word	.L69+1
 212 016c 03100000 		.word	.L68+1
 213 0170 79100000 		.word	.L67+1
 214 0174 9D100000 		.word	.L66+1
 215 0178 D1100000 		.word	.L65+1
 216 017c FB100000 		.word	.L64+1
 217 0180 71200000 		.word	.L236+1
 218 0184 1B110000 		.word	.L63+1
 219 0188 2F110000 		.word	.L62+1
 220 018c 43110000 		.word	.L61+1
 221 0190 57110000 		.word	.L60+1
 222 0194 97120000 		.word	.L59+1
 223 0198 B9120000 		.word	.L58+1
 224 019c DF120000 		.word	.L57+1
 225 01a0 09130000 		.word	.L56+1
 226 01a4 33130000 		.word	.L55+1
ARM GAS  /tmp/ccoto6PB.s 			page 51


 227 01a8 69130000 		.word	.L54+1
 228 01ac F5130000 		.word	.L53+1
 229 01b0 27140000 		.word	.L52+1
 230 01b4 BB140000 		.word	.L51+1
 231 01b8 E9140000 		.word	.L50+1
 232 01bc 79150000 		.word	.L49+1
 233 01c0 A9150000 		.word	.L48+1
 234 01c4 41160000 		.word	.L47+1
 235 01c8 6D160000 		.word	.L46+1
 236 01cc F1160000 		.word	.L45+1
 237 01d0 1D170000 		.word	.L44+1
 238 01d4 B5170000 		.word	.L43+1
 239 01d8 E3170000 		.word	.L42+1
 240 01dc 6F180000 		.word	.L41+1
 241 01e0 99180000 		.word	.L40+1
 242 01e4 21190000 		.word	.L39+1
 243 01e8 7B190000 		.word	.L38+1
 244 01ec C5190000 		.word	.L37+1
 245 01f0 2D1A0000 		.word	.L36+1
 246 01f4 4F1A0000 		.word	.L35+1
 247 01f8 CF1A0000 		.word	.L34+1
 248 01fc F31A0000 		.word	.L33+1
 249 0200 7B1B0000 		.word	.L32+1
 250 0204 8F1B0000 		.word	.L31+1
 251 0208 C11B0000 		.word	.L30+1
 252 020c D91B0000 		.word	.L29+1
 253 0210 131C0000 		.word	.L28+1
 254 0214 231C0000 		.word	.L27+1
 255 0218 4F1C0000 		.word	.L26+1
 256 021c 791C0000 		.word	.L25+1
 257 0220 C51C0000 		.word	.L24+1
 258 0224 DD1C0000 		.word	.L23+1
 259 0228 171D0000 		.word	.L22+1
 260 022c 331D0000 		.word	.L21+1
 261 0230 591D0000 		.word	.L20+1
 262 0234 791D0000 		.word	.L19+1
 263 0238 B31D0000 		.word	.L18+1
 264 023c 211E0000 		.word	.L17+1
 265 0240 C11E0000 		.word	.L16+1
 266 0244 E11E0000 		.word	.L15+1
 267 0248 0D1F0000 		.word	.L14+1
 268 024c 711F0000 		.word	.L13+1
 269 0250 F71F0000 		.word	.L12+1
 270 0254 25200000 		.word	.L11+1
 271 0258 41200000 		.word	.L10+1
 272 025c 57200000 		.word	.L8+1
 273              		.p2align 1
 274              	.L129:
 282:emulator/z80emu/z80emu.c **** 
 275              		.loc 1 282 17 is_stmt 0 view .LVU40
 276 0260 A246     		mov	r10, r4
 277              	.LVL17:
 295:emulator/z80emu/z80emu.c ****                                 break;
 278              		.loc 1 295 33 is_stmt 1 view .LVU41
 279 0262 D9F80030 		ldr	r3, [r9]
 280              	.LVL18:
 295:emulator/z80emu/z80emu.c ****                                 break;
ARM GAS  /tmp/ccoto6PB.s 			page 52


 281              		.loc 1 295 33 is_stmt 0 view .LVU42
 282 0266 C0F3C204 		ubfx	r4, r0, #3, #3
 283              	.LVL19:
 295:emulator/z80emu/z80emu.c ****                                 break;
 284              		.loc 1 295 33 view .LVU43
 285 026a 019A     		ldr	r2, [sp, #4]
 286 026c 52F82440 		ldr	r4, [r2, r4, lsl #2]
 287 0270 1FFA8BF0 		uxth	r0, fp
 288              	.LVL20:
 295:emulator/z80emu/z80emu.c ****                                 break;
 289              		.loc 1 295 33 view .LVU44
 290 0274 9847     		blx	r3
 291              	.LVL21:
 292 0276 2070     		strb	r0, [r4]
 295:emulator/z80emu/z80emu.c ****                                 break;
 293              		.loc 1 295 33 is_stmt 1 view .LVU45
 295:emulator/z80emu/z80emu.c ****                                 break;
 294              		.loc 1 295 33 view .LVU46
 295 0278 0BF1010B 		add	fp, fp, #1
 296              	.LVL22:
 295:emulator/z80emu/z80emu.c ****                                 break;
 297              		.loc 1 295 33 view .LVU47
 298 027c 0736     		adds	r6, r6, #7
 299              	.LVL23:
 295:emulator/z80emu/z80emu.c ****                                 break;
 300              		.loc 1 295 53 view .LVU48
 296:emulator/z80emu/z80emu.c **** 
 301              		.loc 1 296 33 view .LVU49
 302 027e DCE6     		b	.L7
 303              	.LVL24:
 304              	.L128:
 296:emulator/z80emu/z80emu.c **** 
 305              		.loc 1 296 33 is_stmt 0 view .LVU50
 306 0280 A246     		mov	r10, r4
 307              	.LVL25:
 296:emulator/z80emu/z80emu.c **** 
 308              		.loc 1 296 33 view .LVU51
 309 0282 0446     		mov	r4, r0
 310              	.LVL26:
 302:emulator/z80emu/z80emu.c **** 
 311              		.loc 1 302 33 is_stmt 1 view .LVU52
 302:emulator/z80emu/z80emu.c **** 
 312              		.loc 1 302 36 is_stmt 0 view .LVU53
 313 0284 019B     		ldr	r3, [sp, #4]
 314              	.LVL27:
 302:emulator/z80emu/z80emu.c **** 
 315              		.loc 1 302 36 view .LVU54
 316 0286 4345     		cmp	r3, r8
 317 0288 18D0     		beq	.L259
 318              	.LBB3:
 308:emulator/z80emu/z80emu.c **** 
 319              		.loc 1 308 41 is_stmt 1 view .LVU55
 310:emulator/z80emu/z80emu.c ****                                         d += HL_IX_IY;
 320              		.loc 1 310 41 view .LVU56
 321 028a D9F80030 		ldr	r3, [r9]
 322 028e 1FFA8BF0 		uxth	r0, fp
 323              	.LVL28:
ARM GAS  /tmp/ccoto6PB.s 			page 53


 310:emulator/z80emu/z80emu.c ****                                         d += HL_IX_IY;
 324              		.loc 1 310 41 is_stmt 0 view .LVU57
 325 0292 9847     		blx	r3
 326              	.LVL29:
 310:emulator/z80emu/z80emu.c ****                                         d += HL_IX_IY;
 327              		.loc 1 310 41 is_stmt 1 view .LVU58
 310:emulator/z80emu/z80emu.c ****                                         d += HL_IX_IY;
 328              		.loc 1 310 41 view .LVU59
 329 0294 43B2     		sxtb	r3, r0
 330              	.LVL30:
 310:emulator/z80emu/z80emu.c ****                                         d += HL_IX_IY;
 331              		.loc 1 310 41 view .LVU60
 332 0296 0BF1010B 		add	fp, fp, #1
 333              	.LVL31:
 310:emulator/z80emu/z80emu.c ****                                         d += HL_IX_IY;
 334              		.loc 1 310 41 view .LVU61
 310:emulator/z80emu/z80emu.c ****                                         d += HL_IX_IY;
 335              		.loc 1 310 50 view .LVU62
 311:emulator/z80emu/z80emu.c ****                                         READ_BYTE(d, S(Y(opcode)));
 336              		.loc 1 311 41 view .LVU63
 311:emulator/z80emu/z80emu.c ****                                         READ_BYTE(d, S(Y(opcode)));
 337              		.loc 1 311 46 is_stmt 0 view .LVU64
 338 029a 019A     		ldr	r2, [sp, #4]
 339 029c 9269     		ldr	r2, [r2, #24]
 340 029e 1088     		ldrh	r0, [r2]
 311:emulator/z80emu/z80emu.c ****                                         READ_BYTE(d, S(Y(opcode)));
 341              		.loc 1 311 43 view .LVU65
 342 02a0 1844     		add	r0, r0, r3
 343              	.LVL32:
 312:emulator/z80emu/z80emu.c **** 
 344              		.loc 1 312 41 is_stmt 1 view .LVU66
 345 02a2 D9F80020 		ldr	r2, [r9]
 346 02a6 C4F3C203 		ubfx	r3, r4, #3, #3
 347 02aa 0C33     		adds	r3, r3, #12
 348 02ac 05EB8303 		add	r3, r5, r3, lsl #2
 349 02b0 5C68     		ldr	r4, [r3, #4]
 350              	.LVL33:
 312:emulator/z80emu/z80emu.c **** 
 351              		.loc 1 312 41 is_stmt 0 view .LVU67
 352 02b2 80B2     		uxth	r0, r0
 353              	.LVL34:
 312:emulator/z80emu/z80emu.c **** 
 354              		.loc 1 312 41 view .LVU68
 355 02b4 9047     		blx	r2
 356              	.LVL35:
 312:emulator/z80emu/z80emu.c **** 
 357              		.loc 1 312 41 view .LVU69
 358 02b6 2070     		strb	r0, [r4]
 312:emulator/z80emu/z80emu.c **** 
 359              		.loc 1 312 41 is_stmt 1 view .LVU70
 312:emulator/z80emu/z80emu.c **** 
 360              		.loc 1 312 41 view .LVU71
 361              	.LVL36:
 312:emulator/z80emu/z80emu.c **** 
 362              		.loc 1 312 67 view .LVU72
 314:emulator/z80emu/z80emu.c **** 
 363              		.loc 1 314 41 view .LVU73
ARM GAS  /tmp/ccoto6PB.s 			page 54


 314:emulator/z80emu/z80emu.c **** 
 364              		.loc 1 314 56 is_stmt 0 view .LVU74
 365 02b8 0F36     		adds	r6, r6, #15
 366              	.LVL37:
 314:emulator/z80emu/z80emu.c **** 
 367              		.loc 1 314 56 view .LVU75
 368 02ba BEE6     		b	.L7
 369              	.LVL38:
 370              	.L259:
 314:emulator/z80emu/z80emu.c **** 
 371              		.loc 1 314 56 view .LVU76
 372              	.LBE3:
 304:emulator/z80emu/z80emu.c **** 
 373              		.loc 1 304 41 is_stmt 1 view .LVU77
 374 02bc D9F80030 		ldr	r3, [r9]
 375 02c0 C0F3C204 		ubfx	r4, r0, #3, #3
 376 02c4 019A     		ldr	r2, [sp, #4]
 377 02c6 52F82440 		ldr	r4, [r2, r4, lsl #2]
 378 02ca 2889     		ldrh	r0, [r5, #8]
 379              	.LVL39:
 304:emulator/z80emu/z80emu.c **** 
 380              		.loc 1 304 41 is_stmt 0 view .LVU78
 381 02cc 9847     		blx	r3
 382              	.LVL40:
 383 02ce 2070     		strb	r0, [r4]
 304:emulator/z80emu/z80emu.c **** 
 384              		.loc 1 304 41 is_stmt 1 view .LVU79
 304:emulator/z80emu/z80emu.c **** 
 385              		.loc 1 304 41 view .LVU80
 386 02d0 0736     		adds	r6, r6, #7
 387              	.LVL41:
 304:emulator/z80emu/z80emu.c **** 
 388              		.loc 1 304 68 view .LVU81
 389 02d2 B2E6     		b	.L7
 390              	.LVL42:
 391              	.L127:
 304:emulator/z80emu/z80emu.c **** 
 392              		.loc 1 304 68 is_stmt 0 view .LVU82
 393 02d4 A246     		mov	r10, r4
 394              	.LVL43:
 304:emulator/z80emu/z80emu.c **** 
 395              		.loc 1 304 68 view .LVU83
 396 02d6 0446     		mov	r4, r0
 397              	.LVL44:
 323:emulator/z80emu/z80emu.c **** 
 398              		.loc 1 323 33 is_stmt 1 view .LVU84
 323:emulator/z80emu/z80emu.c **** 
 399              		.loc 1 323 36 is_stmt 0 view .LVU85
 400 02d8 019B     		ldr	r3, [sp, #4]
 401              	.LVL45:
 323:emulator/z80emu/z80emu.c **** 
 402              		.loc 1 323 36 view .LVU86
 403 02da 4345     		cmp	r3, r8
 404 02dc 18D0     		beq	.L260
 405              	.LBB4:
 329:emulator/z80emu/z80emu.c **** 
 406              		.loc 1 329 41 is_stmt 1 view .LVU87
ARM GAS  /tmp/ccoto6PB.s 			page 55


 331:emulator/z80emu/z80emu.c ****                                         d += HL_IX_IY;
 407              		.loc 1 331 41 view .LVU88
 408 02de D9F80030 		ldr	r3, [r9]
 409 02e2 1FFA8BF0 		uxth	r0, fp
 410              	.LVL46:
 331:emulator/z80emu/z80emu.c ****                                         d += HL_IX_IY;
 411              		.loc 1 331 41 is_stmt 0 view .LVU89
 412 02e6 9847     		blx	r3
 413              	.LVL47:
 331:emulator/z80emu/z80emu.c ****                                         d += HL_IX_IY;
 414              		.loc 1 331 41 is_stmt 1 view .LVU90
 331:emulator/z80emu/z80emu.c ****                                         d += HL_IX_IY;
 415              		.loc 1 331 41 view .LVU91
 416 02e8 43B2     		sxtb	r3, r0
 417              	.LVL48:
 331:emulator/z80emu/z80emu.c ****                                         d += HL_IX_IY;
 418              		.loc 1 331 41 view .LVU92
 419 02ea 0BF1010B 		add	fp, fp, #1
 420              	.LVL49:
 331:emulator/z80emu/z80emu.c ****                                         d += HL_IX_IY;
 421              		.loc 1 331 41 view .LVU93
 331:emulator/z80emu/z80emu.c ****                                         d += HL_IX_IY;
 422              		.loc 1 331 50 view .LVU94
 332:emulator/z80emu/z80emu.c ****                                         WRITE_BYTE(d, S(Z(opcode)));
 423              		.loc 1 332 41 view .LVU95
 332:emulator/z80emu/z80emu.c ****                                         WRITE_BYTE(d, S(Z(opcode)));
 424              		.loc 1 332 46 is_stmt 0 view .LVU96
 425 02ee 019A     		ldr	r2, [sp, #4]
 426 02f0 9269     		ldr	r2, [r2, #24]
 427 02f2 1088     		ldrh	r0, [r2]
 332:emulator/z80emu/z80emu.c ****                                         WRITE_BYTE(d, S(Z(opcode)));
 428              		.loc 1 332 43 view .LVU97
 429 02f4 1844     		add	r0, r0, r3
 430              	.LVL50:
 333:emulator/z80emu/z80emu.c **** 
 431              		.loc 1 333 41 is_stmt 1 view .LVU98
 432 02f6 D9F80820 		ldr	r2, [r9, #8]
 433 02fa 04F00703 		and	r3, r4, #7
 434 02fe 0C33     		adds	r3, r3, #12
 435 0300 05EB8303 		add	r3, r5, r3, lsl #2
 436 0304 5B68     		ldr	r3, [r3, #4]
 437 0306 1978     		ldrb	r1, [r3]	@ zero_extendqisi2
 438 0308 80B2     		uxth	r0, r0
 439              	.LVL51:
 333:emulator/z80emu/z80emu.c **** 
 440              		.loc 1 333 41 is_stmt 0 view .LVU99
 441 030a 9047     		blx	r2
 442              	.LVL52:
 333:emulator/z80emu/z80emu.c **** 
 443              		.loc 1 333 41 is_stmt 1 view .LVU100
 333:emulator/z80emu/z80emu.c **** 
 444              		.loc 1 333 41 view .LVU101
 333:emulator/z80emu/z80emu.c **** 
 445              		.loc 1 333 68 view .LVU102
 335:emulator/z80emu/z80emu.c **** 
 446              		.loc 1 335 41 view .LVU103
 335:emulator/z80emu/z80emu.c **** 
ARM GAS  /tmp/ccoto6PB.s 			page 56


 447              		.loc 1 335 56 is_stmt 0 view .LVU104
 448 030c 0F36     		adds	r6, r6, #15
 449              	.LVL53:
 335:emulator/z80emu/z80emu.c **** 
 450              		.loc 1 335 56 view .LVU105
 451 030e 94E6     		b	.L7
 452              	.LVL54:
 453              	.L260:
 335:emulator/z80emu/z80emu.c **** 
 454              		.loc 1 335 56 view .LVU106
 455              	.LBE4:
 325:emulator/z80emu/z80emu.c **** 
 456              		.loc 1 325 41 is_stmt 1 view .LVU107
 457 0310 D9F80830 		ldr	r3, [r9, #8]
 458 0314 00F00704 		and	r4, r0, #7
 459 0318 019A     		ldr	r2, [sp, #4]
 460 031a 52F82420 		ldr	r2, [r2, r4, lsl #2]
 461 031e 1178     		ldrb	r1, [r2]	@ zero_extendqisi2
 462 0320 2889     		ldrh	r0, [r5, #8]
 463              	.LVL55:
 325:emulator/z80emu/z80emu.c **** 
 464              		.loc 1 325 41 is_stmt 0 view .LVU108
 465 0322 9847     		blx	r3
 466              	.LVL56:
 325:emulator/z80emu/z80emu.c **** 
 467              		.loc 1 325 41 is_stmt 1 view .LVU109
 325:emulator/z80emu/z80emu.c **** 
 468              		.loc 1 325 41 view .LVU110
 469 0324 0736     		adds	r6, r6, #7
 470              	.LVL57:
 325:emulator/z80emu/z80emu.c **** 
 471              		.loc 1 325 69 view .LVU111
 472 0326 88E6     		b	.L7
 473              	.LVL58:
 474              	.L126:
 325:emulator/z80emu/z80emu.c **** 
 475              		.loc 1 325 69 is_stmt 0 view .LVU112
 476 0328 A246     		mov	r10, r4
 477              	.LVL59:
 478              	.LBB5:
 344:emulator/z80emu/z80emu.c **** 
 479              		.loc 1 344 33 is_stmt 1 view .LVU113
 346:emulator/z80emu/z80emu.c **** 
 480              		.loc 1 346 33 view .LVU114
 346:emulator/z80emu/z80emu.c **** 
 481              		.loc 1 346 36 is_stmt 0 view .LVU115
 482 032a 019B     		ldr	r3, [sp, #4]
 483              	.LVL60:
 346:emulator/z80emu/z80emu.c **** 
 484              		.loc 1 346 36 view .LVU116
 485 032c 4345     		cmp	r3, r8
 486 032e 18D0     		beq	.L261
 487              	.LBB6:
 353:emulator/z80emu/z80emu.c **** 
 488              		.loc 1 353 41 is_stmt 1 view .LVU117
 355:emulator/z80emu/z80emu.c ****                                         d += HL_IX_IY;
 489              		.loc 1 355 41 view .LVU118
ARM GAS  /tmp/ccoto6PB.s 			page 57


 490 0330 D9F80030 		ldr	r3, [r9]
 491 0334 1FFA8BF0 		uxth	r0, fp
 492              	.LVL61:
 355:emulator/z80emu/z80emu.c ****                                         d += HL_IX_IY;
 493              		.loc 1 355 41 is_stmt 0 view .LVU119
 494 0338 9847     		blx	r3
 495              	.LVL62:
 355:emulator/z80emu/z80emu.c ****                                         d += HL_IX_IY;
 496              		.loc 1 355 41 is_stmt 1 view .LVU120
 355:emulator/z80emu/z80emu.c ****                                         d += HL_IX_IY;
 497              		.loc 1 355 41 view .LVU121
 498 033a 43B2     		sxtb	r3, r0
 499              	.LVL63:
 355:emulator/z80emu/z80emu.c ****                                         d += HL_IX_IY;
 500              		.loc 1 355 41 view .LVU122
 501 033c 0BF10100 		add	r0, fp, #1
 502              	.LVL64:
 355:emulator/z80emu/z80emu.c ****                                         d += HL_IX_IY;
 503              		.loc 1 355 41 view .LVU123
 355:emulator/z80emu/z80emu.c ****                                         d += HL_IX_IY;
 504              		.loc 1 355 50 view .LVU124
 356:emulator/z80emu/z80emu.c ****                                         READ_N(n);
 505              		.loc 1 356 41 view .LVU125
 356:emulator/z80emu/z80emu.c ****                                         READ_N(n);
 506              		.loc 1 356 46 is_stmt 0 view .LVU126
 507 0340 019A     		ldr	r2, [sp, #4]
 508 0342 9269     		ldr	r2, [r2, #24]
 509 0344 1488     		ldrh	r4, [r2]
 510              	.LVL65:
 356:emulator/z80emu/z80emu.c ****                                         READ_N(n);
 511              		.loc 1 356 43 view .LVU127
 512 0346 1C44     		add	r4, r4, r3
 513              	.LVL66:
 357:emulator/z80emu/z80emu.c ****                                         WRITE_BYTE(d, n);
 514              		.loc 1 357 41 is_stmt 1 view .LVU128
 515 0348 D9F80030 		ldr	r3, [r9]
 516 034c 80B2     		uxth	r0, r0
 517              	.LVL67:
 357:emulator/z80emu/z80emu.c ****                                         WRITE_BYTE(d, n);
 518              		.loc 1 357 41 is_stmt 0 view .LVU129
 519 034e 9847     		blx	r3
 520              	.LVL68:
 521 0350 0146     		mov	r1, r0
 522              	.LVL69:
 357:emulator/z80emu/z80emu.c ****                                         WRITE_BYTE(d, n);
 523              		.loc 1 357 41 is_stmt 1 view .LVU130
 357:emulator/z80emu/z80emu.c ****                                         WRITE_BYTE(d, n);
 524              		.loc 1 357 41 view .LVU131
 525 0352 0BF1020B 		add	fp, fp, #2
 526              	.LVL70:
 357:emulator/z80emu/z80emu.c ****                                         WRITE_BYTE(d, n);
 527              		.loc 1 357 41 view .LVU132
 357:emulator/z80emu/z80emu.c ****                                         WRITE_BYTE(d, n);
 528              		.loc 1 357 50 view .LVU133
 358:emulator/z80emu/z80emu.c **** 
 529              		.loc 1 358 41 view .LVU134
 530 0356 D9F80830 		ldr	r3, [r9, #8]
ARM GAS  /tmp/ccoto6PB.s 			page 58


 531 035a A0B2     		uxth	r0, r4
 532 035c 9847     		blx	r3
 533              	.LVL71:
 358:emulator/z80emu/z80emu.c **** 
 534              		.loc 1 358 41 view .LVU135
 358:emulator/z80emu/z80emu.c **** 
 535              		.loc 1 358 41 view .LVU136
 358:emulator/z80emu/z80emu.c **** 
 536              		.loc 1 358 57 view .LVU137
 360:emulator/z80emu/z80emu.c **** 
 537              		.loc 1 360 41 view .LVU138
 360:emulator/z80emu/z80emu.c **** 
 538              		.loc 1 360 56 is_stmt 0 view .LVU139
 539 035e 0F36     		adds	r6, r6, #15
 540              	.LVL72:
 360:emulator/z80emu/z80emu.c **** 
 541              		.loc 1 360 56 view .LVU140
 542 0360 6BE6     		b	.L7
 543              	.LVL73:
 544              	.L261:
 360:emulator/z80emu/z80emu.c **** 
 545              		.loc 1 360 56 view .LVU141
 546              	.LBE6:
 348:emulator/z80emu/z80emu.c ****                                         WRITE_BYTE(HL, n);
 547              		.loc 1 348 41 is_stmt 1 view .LVU142
 548 0362 D9F80030 		ldr	r3, [r9]
 549 0366 1FFA8BF0 		uxth	r0, fp
 550              	.LVL74:
 348:emulator/z80emu/z80emu.c ****                                         WRITE_BYTE(HL, n);
 551              		.loc 1 348 41 is_stmt 0 view .LVU143
 552 036a 9847     		blx	r3
 553              	.LVL75:
 554 036c 0146     		mov	r1, r0
 555              	.LVL76:
 348:emulator/z80emu/z80emu.c ****                                         WRITE_BYTE(HL, n);
 556              		.loc 1 348 41 is_stmt 1 view .LVU144
 348:emulator/z80emu/z80emu.c ****                                         WRITE_BYTE(HL, n);
 557              		.loc 1 348 41 view .LVU145
 558 036e 0BF1010B 		add	fp, fp, #1
 559              	.LVL77:
 348:emulator/z80emu/z80emu.c ****                                         WRITE_BYTE(HL, n);
 560              		.loc 1 348 41 view .LVU146
 348:emulator/z80emu/z80emu.c ****                                         WRITE_BYTE(HL, n);
 561              		.loc 1 348 50 view .LVU147
 349:emulator/z80emu/z80emu.c **** 
 562              		.loc 1 349 41 view .LVU148
 563 0372 D9F80830 		ldr	r3, [r9, #8]
 564 0376 2889     		ldrh	r0, [r5, #8]
 565 0378 9847     		blx	r3
 566              	.LVL78:
 349:emulator/z80emu/z80emu.c **** 
 567              		.loc 1 349 41 view .LVU149
 349:emulator/z80emu/z80emu.c **** 
 568              		.loc 1 349 41 view .LVU150
 569 037a 0A36     		adds	r6, r6, #10
 570              	.LVL79:
 349:emulator/z80emu/z80emu.c **** 
ARM GAS  /tmp/ccoto6PB.s 			page 59


 571              		.loc 1 349 58 view .LVU151
 572 037c 5DE6     		b	.L7
 573              	.LVL80:
 574              	.L125:
 349:emulator/z80emu/z80emu.c **** 
 575              		.loc 1 349 58 is_stmt 0 view .LVU152
 576 037e A246     		mov	r10, r4
 577              	.LVL81:
 349:emulator/z80emu/z80emu.c **** 
 578              		.loc 1 349 58 view .LVU153
 579              	.LBE5:
 370:emulator/z80emu/z80emu.c ****                                 break;
 580              		.loc 1 370 33 is_stmt 1 view .LVU154
 581 0380 D9F80030 		ldr	r3, [r9]
 582              	.LVL82:
 370:emulator/z80emu/z80emu.c ****                                 break;
 583              		.loc 1 370 33 is_stmt 0 view .LVU155
 584 0384 A888     		ldrh	r0, [r5, #4]
 585              	.LVL83:
 370:emulator/z80emu/z80emu.c ****                                 break;
 586              		.loc 1 370 33 view .LVU156
 587 0386 9847     		blx	r3
 588              	.LVL84:
 589 0388 E872     		strb	r0, [r5, #11]
 370:emulator/z80emu/z80emu.c ****                                 break;
 590              		.loc 1 370 33 is_stmt 1 view .LVU157
 370:emulator/z80emu/z80emu.c ****                                 break;
 591              		.loc 1 370 33 view .LVU158
 592 038a 0736     		adds	r6, r6, #7
 593              	.LVL85:
 370:emulator/z80emu/z80emu.c ****                                 break;
 594              		.loc 1 370 49 view .LVU159
 371:emulator/z80emu/z80emu.c **** 
 595              		.loc 1 371 33 view .LVU160
 596 038c 55E6     		b	.L7
 597              	.LVL86:
 598              	.L124:
 371:emulator/z80emu/z80emu.c **** 
 599              		.loc 1 371 33 is_stmt 0 view .LVU161
 600 038e A246     		mov	r10, r4
 601              	.LVL87:
 377:emulator/z80emu/z80emu.c ****                                 break;
 602              		.loc 1 377 33 is_stmt 1 view .LVU162
 603 0390 D9F80030 		ldr	r3, [r9]
 604              	.LVL88:
 377:emulator/z80emu/z80emu.c ****                                 break;
 605              		.loc 1 377 33 is_stmt 0 view .LVU163
 606 0394 E888     		ldrh	r0, [r5, #6]
 607              	.LVL89:
 377:emulator/z80emu/z80emu.c ****                                 break;
 608              		.loc 1 377 33 view .LVU164
 609 0396 9847     		blx	r3
 610              	.LVL90:
 611 0398 E872     		strb	r0, [r5, #11]
 377:emulator/z80emu/z80emu.c ****                                 break;
 612              		.loc 1 377 33 is_stmt 1 view .LVU165
 377:emulator/z80emu/z80emu.c ****                                 break;
ARM GAS  /tmp/ccoto6PB.s 			page 60


 613              		.loc 1 377 33 view .LVU166
 614 039a 0736     		adds	r6, r6, #7
 615              	.LVL91:
 377:emulator/z80emu/z80emu.c ****                                 break;
 616              		.loc 1 377 49 view .LVU167
 378:emulator/z80emu/z80emu.c **** 
 617              		.loc 1 378 33 view .LVU168
 618 039c 4DE6     		b	.L7
 619              	.LVL92:
 620              	.L123:
 378:emulator/z80emu/z80emu.c **** 
 621              		.loc 1 378 33 is_stmt 0 view .LVU169
 622 039e A246     		mov	r10, r4
 623              	.LVL93:
 624              	.LBB7:
 384:emulator/z80emu/z80emu.c **** 
 625              		.loc 1 384 33 is_stmt 1 view .LVU170
 386:emulator/z80emu/z80emu.c ****                                 READ_BYTE(nn, A);
 626              		.loc 1 386 33 view .LVU171
 627 03a0 D9F80430 		ldr	r3, [r9, #4]
 628              	.LVL94:
 386:emulator/z80emu/z80emu.c ****                                 READ_BYTE(nn, A);
 629              		.loc 1 386 33 is_stmt 0 view .LVU172
 630 03a4 1FFA8BF0 		uxth	r0, fp
 631              	.LVL95:
 386:emulator/z80emu/z80emu.c ****                                 READ_BYTE(nn, A);
 632              		.loc 1 386 33 view .LVU173
 633 03a8 9847     		blx	r3
 634              	.LVL96:
 386:emulator/z80emu/z80emu.c ****                                 READ_BYTE(nn, A);
 635              		.loc 1 386 33 is_stmt 1 view .LVU174
 386:emulator/z80emu/z80emu.c ****                                 READ_BYTE(nn, A);
 636              		.loc 1 386 33 view .LVU175
 637 03aa 0BF1020B 		add	fp, fp, #2
 638              	.LVL97:
 386:emulator/z80emu/z80emu.c ****                                 READ_BYTE(nn, A);
 639              		.loc 1 386 33 view .LVU176
 386:emulator/z80emu/z80emu.c ****                                 READ_BYTE(nn, A);
 640              		.loc 1 386 44 view .LVU177
 387:emulator/z80emu/z80emu.c ****                                 break;
 641              		.loc 1 387 33 view .LVU178
 642 03ae D9F80030 		ldr	r3, [r9]
 643 03b2 9847     		blx	r3
 644              	.LVL98:
 387:emulator/z80emu/z80emu.c ****                                 break;
 645              		.loc 1 387 33 is_stmt 0 view .LVU179
 646 03b4 E872     		strb	r0, [r5, #11]
 387:emulator/z80emu/z80emu.c ****                                 break;
 647              		.loc 1 387 33 is_stmt 1 view .LVU180
 387:emulator/z80emu/z80emu.c ****                                 break;
 648              		.loc 1 387 33 view .LVU181
 649 03b6 0D36     		adds	r6, r6, #13
 650              	.LVL99:
 387:emulator/z80emu/z80emu.c ****                                 break;
 651              		.loc 1 387 49 view .LVU182
 388:emulator/z80emu/z80emu.c **** 
 652              		.loc 1 388 33 view .LVU183
ARM GAS  /tmp/ccoto6PB.s 			page 61


 653 03b8 3FE6     		b	.L7
 654              	.LVL100:
 655              	.L122:
 388:emulator/z80emu/z80emu.c **** 
 656              		.loc 1 388 33 is_stmt 0 view .LVU184
 657 03ba A246     		mov	r10, r4
 658              	.LVL101:
 388:emulator/z80emu/z80emu.c **** 
 659              		.loc 1 388 33 view .LVU185
 660              	.LBE7:
 394:emulator/z80emu/z80emu.c ****                                 break;
 661              		.loc 1 394 33 is_stmt 1 view .LVU186
 662 03bc D9F80830 		ldr	r3, [r9, #8]
 663              	.LVL102:
 394:emulator/z80emu/z80emu.c ****                                 break;
 664              		.loc 1 394 33 is_stmt 0 view .LVU187
 665 03c0 E97A     		ldrb	r1, [r5, #11]	@ zero_extendqisi2
 666 03c2 A888     		ldrh	r0, [r5, #4]
 667              	.LVL103:
 394:emulator/z80emu/z80emu.c ****                                 break;
 668              		.loc 1 394 33 view .LVU188
 669 03c4 9847     		blx	r3
 670              	.LVL104:
 394:emulator/z80emu/z80emu.c ****                                 break;
 671              		.loc 1 394 33 is_stmt 1 view .LVU189
 394:emulator/z80emu/z80emu.c ****                                 break;
 672              		.loc 1 394 33 view .LVU190
 673 03c6 0736     		adds	r6, r6, #7
 674              	.LVL105:
 394:emulator/z80emu/z80emu.c ****                                 break;
 675              		.loc 1 394 50 view .LVU191
 395:emulator/z80emu/z80emu.c **** 
 676              		.loc 1 395 33 view .LVU192
 677 03c8 37E6     		b	.L7
 678              	.L295:
 679 03ca 00BF     		.align	2
 680              	.L294:
 681 03cc 00000000 		.word	.LANCHOR0
 682              	.LVL106:
 683              	.L121:
 395:emulator/z80emu/z80emu.c **** 
 684              		.loc 1 395 33 is_stmt 0 view .LVU193
 685 03d0 A246     		mov	r10, r4
 686              	.LVL107:
 401:emulator/z80emu/z80emu.c ****                                 break;
 687              		.loc 1 401 33 is_stmt 1 view .LVU194
 688 03d2 D9F80830 		ldr	r3, [r9, #8]
 689              	.LVL108:
 401:emulator/z80emu/z80emu.c ****                                 break;
 690              		.loc 1 401 33 is_stmt 0 view .LVU195
 691 03d6 E97A     		ldrb	r1, [r5, #11]	@ zero_extendqisi2
 692 03d8 E888     		ldrh	r0, [r5, #6]
 693              	.LVL109:
 401:emulator/z80emu/z80emu.c ****                                 break;
 694              		.loc 1 401 33 view .LVU196
 695 03da 9847     		blx	r3
 696              	.LVL110:
ARM GAS  /tmp/ccoto6PB.s 			page 62


 401:emulator/z80emu/z80emu.c ****                                 break;
 697              		.loc 1 401 33 is_stmt 1 view .LVU197
 401:emulator/z80emu/z80emu.c ****                                 break;
 698              		.loc 1 401 33 view .LVU198
 699 03dc 0736     		adds	r6, r6, #7
 700              	.LVL111:
 401:emulator/z80emu/z80emu.c ****                                 break;
 701              		.loc 1 401 50 view .LVU199
 402:emulator/z80emu/z80emu.c **** 
 702              		.loc 1 402 33 view .LVU200
 703 03de 2CE6     		b	.L7
 704              	.LVL112:
 705              	.L120:
 402:emulator/z80emu/z80emu.c **** 
 706              		.loc 1 402 33 is_stmt 0 view .LVU201
 707 03e0 A246     		mov	r10, r4
 708              	.LVL113:
 709              	.LBB8:
 408:emulator/z80emu/z80emu.c **** 
 710              		.loc 1 408 33 is_stmt 1 view .LVU202
 410:emulator/z80emu/z80emu.c ****                                 WRITE_BYTE(nn, A);
 711              		.loc 1 410 33 view .LVU203
 712 03e2 D9F80430 		ldr	r3, [r9, #4]
 713              	.LVL114:
 410:emulator/z80emu/z80emu.c ****                                 WRITE_BYTE(nn, A);
 714              		.loc 1 410 33 is_stmt 0 view .LVU204
 715 03e6 1FFA8BF0 		uxth	r0, fp
 716              	.LVL115:
 410:emulator/z80emu/z80emu.c ****                                 WRITE_BYTE(nn, A);
 717              		.loc 1 410 33 view .LVU205
 718 03ea 9847     		blx	r3
 719              	.LVL116:
 410:emulator/z80emu/z80emu.c ****                                 WRITE_BYTE(nn, A);
 720              		.loc 1 410 33 is_stmt 1 view .LVU206
 410:emulator/z80emu/z80emu.c ****                                 WRITE_BYTE(nn, A);
 721              		.loc 1 410 33 view .LVU207
 722 03ec 0BF1020B 		add	fp, fp, #2
 723              	.LVL117:
 410:emulator/z80emu/z80emu.c ****                                 WRITE_BYTE(nn, A);
 724              		.loc 1 410 33 view .LVU208
 410:emulator/z80emu/z80emu.c ****                                 WRITE_BYTE(nn, A);
 725              		.loc 1 410 44 view .LVU209
 411:emulator/z80emu/z80emu.c ****                                 break;
 726              		.loc 1 411 33 view .LVU210
 727 03f0 D9F80830 		ldr	r3, [r9, #8]
 728 03f4 E97A     		ldrb	r1, [r5, #11]	@ zero_extendqisi2
 729 03f6 9847     		blx	r3
 730              	.LVL118:
 411:emulator/z80emu/z80emu.c ****                                 break;
 731              		.loc 1 411 33 view .LVU211
 411:emulator/z80emu/z80emu.c ****                                 break;
 732              		.loc 1 411 33 view .LVU212
 733 03f8 0D36     		adds	r6, r6, #13
 734              	.LVL119:
 411:emulator/z80emu/z80emu.c ****                                 break;
 735              		.loc 1 411 50 view .LVU213
 412:emulator/z80emu/z80emu.c **** 
ARM GAS  /tmp/ccoto6PB.s 			page 63


 736              		.loc 1 412 33 view .LVU214
 737 03fa 1EE6     		b	.L7
 738              	.LVL120:
 739              	.L119:
 412:emulator/z80emu/z80emu.c **** 
 740              		.loc 1 412 33 is_stmt 0 view .LVU215
 741 03fc A246     		mov	r10, r4
 742              	.LVL121:
 412:emulator/z80emu/z80emu.c **** 
 743              		.loc 1 412 33 view .LVU216
 744              	.LBE8:
 745              	.LBB9:
 418:emulator/z80emu/z80emu.c **** 
 746              		.loc 1 418 33 is_stmt 1 view .LVU217
 420:emulator/z80emu/z80emu.c ****                                         ? state->i 
 747              		.loc 1 420 33 view .LVU218
 422:emulator/z80emu/z80emu.c ****                                 f = SZYX_FLAGS_TABLE[a];
 748              		.loc 1 422 41 is_stmt 0 view .LVU219
 749 03fe 5728     		cmp	r0, #87
 750 0400 13D0     		beq	.L262
 422:emulator/z80emu/z80emu.c ****                                 f = SZYX_FLAGS_TABLE[a];
 751              		.loc 1 422 49 discriminator 2 view .LVU220
 752 0402 2B6A     		ldr	r3, [r5, #32]
 753              	.LVL122:
 422:emulator/z80emu/z80emu.c ****                                 f = SZYX_FLAGS_TABLE[a];
 754              		.loc 1 422 53 discriminator 2 view .LVU221
 755 0404 03F08003 		and	r3, r3, #128
 422:emulator/z80emu/z80emu.c ****                                 f = SZYX_FLAGS_TABLE[a];
 756              		.loc 1 422 66 discriminator 2 view .LVU222
 757 0408 0AF07F02 		and	r2, r10, #127
 422:emulator/z80emu/z80emu.c ****                                 f = SZYX_FLAGS_TABLE[a];
 758              		.loc 1 422 41 discriminator 2 view .LVU223
 759 040c 1A43     		orrs	r2, r2, r3
 760              	.L135:
 761              	.LVL123:
 423:emulator/z80emu/z80emu.c **** 
 762              		.loc 1 423 33 is_stmt 1 view .LVU224
 423:emulator/z80emu/z80emu.c **** 
 763              		.loc 1 423 53 is_stmt 0 view .LVU225
 764 040e A44B     		ldr	r3, .L296
 765 0410 9B5C     		ldrb	r3, [r3, r2]	@ zero_extendqisi2
 766              	.LVL124:
 431:emulator/z80emu/z80emu.c ****                                 f |= F & Z80_C_FLAG;
 767              		.loc 1 431 33 is_stmt 1 view .LVU226
 431:emulator/z80emu/z80emu.c ****                                 f |= F & Z80_C_FLAG;
 768              		.loc 1 431 43 is_stmt 0 view .LVU227
 769 0412 E96A     		ldr	r1, [r5, #44]
 431:emulator/z80emu/z80emu.c ****                                 f |= F & Z80_C_FLAG;
 770              		.loc 1 431 35 view .LVU228
 771 0414 43EA8101 		orr	r1, r3, r1, lsl #2
 772              	.LVL125:
 432:emulator/z80emu/z80emu.c **** 
 773              		.loc 1 432 33 is_stmt 1 view .LVU229
 432:emulator/z80emu/z80emu.c **** 
 774              		.loc 1 432 38 is_stmt 0 view .LVU230
 775 0418 AB7A     		ldrb	r3, [r5, #10]	@ zero_extendqisi2
 432:emulator/z80emu/z80emu.c **** 
ARM GAS  /tmp/ccoto6PB.s 			page 64


 776              		.loc 1 432 40 view .LVU231
 777 041a 03F00103 		and	r3, r3, #1
 432:emulator/z80emu/z80emu.c **** 
 778              		.loc 1 432 35 view .LVU232
 779 041e 0B43     		orrs	r3, r3, r1
 780              	.LVL126:
 434:emulator/z80emu/z80emu.c **** 
 781              		.loc 1 434 33 is_stmt 1 view .LVU233
 434:emulator/z80emu/z80emu.c **** 
 782              		.loc 1 434 47 is_stmt 0 view .LVU234
 783 0420 43EA0223 		orr	r3, r3, r2, lsl #8
 784              	.LVL127:
 434:emulator/z80emu/z80emu.c **** 
 785              		.loc 1 434 36 view .LVU235
 786 0424 6B81     		strh	r3, [r5, #10]	@ movhi
 787              	.LVL128:
 436:emulator/z80emu/z80emu.c **** 
 788              		.loc 1 436 33 is_stmt 1 view .LVU236
 436:emulator/z80emu/z80emu.c **** 
 789              		.loc 1 436 47 is_stmt 0 view .LVU237
 790 0426 0536     		adds	r6, r6, #5
 791              	.LVL129:
 438:emulator/z80emu/z80emu.c **** 
 792              		.loc 1 438 33 is_stmt 1 view .LVU238
 793 0428 07E6     		b	.L7
 794              	.LVL130:
 795              	.L262:
 422:emulator/z80emu/z80emu.c ****                                 f = SZYX_FLAGS_TABLE[a];
 796              		.loc 1 422 41 is_stmt 0 discriminator 1 view .LVU239
 797 042a EA69     		ldr	r2, [r5, #28]
 798 042c EFE7     		b	.L135
 799              	.LVL131:
 800              	.L118:
 422:emulator/z80emu/z80emu.c ****                                 f = SZYX_FLAGS_TABLE[a];
 801              		.loc 1 422 41 discriminator 1 view .LVU240
 802 042e A246     		mov	r10, r4
 803              	.LVL132:
 422:emulator/z80emu/z80emu.c ****                                 f = SZYX_FLAGS_TABLE[a];
 804              		.loc 1 422 41 discriminator 1 view .LVU241
 805              	.LBE9:
 444:emulator/z80emu/z80emu.c **** 
 806              		.loc 1 444 33 is_stmt 1 view .LVU242
 444:emulator/z80emu/z80emu.c **** 
 807              		.loc 1 444 36 is_stmt 0 view .LVU243
 808 0430 4728     		cmp	r0, #71
 809 0432 05D0     		beq	.L263
 450:emulator/z80emu/z80emu.c ****                                         r = A & 0x7f;
 810              		.loc 1 450 41 is_stmt 1 view .LVU244
 450:emulator/z80emu/z80emu.c ****                                         r = A & 0x7f;
 811              		.loc 1 450 52 is_stmt 0 view .LVU245
 812 0434 EB7A     		ldrb	r3, [r5, #11]	@ zero_extendqisi2
 813              	.LVL133:
 450:emulator/z80emu/z80emu.c ****                                         r = A & 0x7f;
 814              		.loc 1 450 50 view .LVU246
 815 0436 2B62     		str	r3, [r5, #32]
 451:emulator/z80emu/z80emu.c **** 
 816              		.loc 1 451 41 is_stmt 1 view .LVU247
ARM GAS  /tmp/ccoto6PB.s 			page 65


 451:emulator/z80emu/z80emu.c **** 
 817              		.loc 1 451 43 is_stmt 0 view .LVU248
 818 0438 03F07F0A 		and	r10, r3, #127
 819              	.LVL134:
 820              	.L137:
 455:emulator/z80emu/z80emu.c **** 
 821              		.loc 1 455 33 is_stmt 1 view .LVU249
 455:emulator/z80emu/z80emu.c **** 
 822              		.loc 1 455 47 is_stmt 0 view .LVU250
 823 043c 0536     		adds	r6, r6, #5
 824              	.LVL135:
 457:emulator/z80emu/z80emu.c **** 
 825              		.loc 1 457 33 is_stmt 1 view .LVU251
 826 043e FCE5     		b	.L7
 827              	.LVL136:
 828              	.L263:
 446:emulator/z80emu/z80emu.c **** 
 829              		.loc 1 446 41 view .LVU252
 446:emulator/z80emu/z80emu.c **** 
 830              		.loc 1 446 52 is_stmt 0 view .LVU253
 831 0440 EB7A     		ldrb	r3, [r5, #11]	@ zero_extendqisi2
 832              	.LVL137:
 446:emulator/z80emu/z80emu.c **** 
 833              		.loc 1 446 50 view .LVU254
 834 0442 EB61     		str	r3, [r5, #28]
 835 0444 FAE7     		b	.L137
 836              	.LVL138:
 837              	.L117:
 446:emulator/z80emu/z80emu.c **** 
 838              		.loc 1 446 50 view .LVU255
 839 0446 A246     		mov	r10, r4
 840              	.LVL139:
 465:emulator/z80emu/z80emu.c ****                                 break;
 841              		.loc 1 465 33 is_stmt 1 view .LVU256
 842 0448 D9F80420 		ldr	r2, [r9, #4]
 843 044c C0F30113 		ubfx	r3, r0, #4, #2
 844              	.LVL140:
 465:emulator/z80emu/z80emu.c ****                                 break;
 845              		.loc 1 465 33 is_stmt 0 view .LVU257
 846 0450 0833     		adds	r3, r3, #8
 847 0452 0199     		ldr	r1, [sp, #4]
 848 0454 51F82340 		ldr	r4, [r1, r3, lsl #2]
 849              	.LVL141:
 465:emulator/z80emu/z80emu.c ****                                 break;
 850              		.loc 1 465 33 view .LVU258
 851 0458 1FFA8BF0 		uxth	r0, fp
 852              	.LVL142:
 465:emulator/z80emu/z80emu.c ****                                 break;
 853              		.loc 1 465 33 view .LVU259
 854 045c 9047     		blx	r2
 855              	.LVL143:
 856 045e 2080     		strh	r0, [r4]	@ movhi
 465:emulator/z80emu/z80emu.c ****                                 break;
 857              		.loc 1 465 33 is_stmt 1 view .LVU260
 465:emulator/z80emu/z80emu.c ****                                 break;
 858              		.loc 1 465 33 view .LVU261
 859 0460 0BF1020B 		add	fp, fp, #2
ARM GAS  /tmp/ccoto6PB.s 			page 66


 860              	.LVL144:
 465:emulator/z80emu/z80emu.c ****                                 break;
 861              		.loc 1 465 33 view .LVU262
 862 0464 0A36     		adds	r6, r6, #10
 863              	.LVL145:
 465:emulator/z80emu/z80emu.c ****                                 break;
 864              		.loc 1 465 55 view .LVU263
 466:emulator/z80emu/z80emu.c **** 
 865              		.loc 1 466 33 view .LVU264
 866 0466 E8E5     		b	.L7
 867              	.LVL146:
 868              	.L116:
 466:emulator/z80emu/z80emu.c **** 
 869              		.loc 1 466 33 is_stmt 0 view .LVU265
 870 0468 A246     		mov	r10, r4
 871              	.LVL147:
 872              	.LBB10:
 472:emulator/z80emu/z80emu.c **** 
 873              		.loc 1 472 33 is_stmt 1 view .LVU266
 474:emulator/z80emu/z80emu.c ****                                 READ_WORD(nn, HL_IX_IY);
 874              		.loc 1 474 33 view .LVU267
 875 046a D9F80430 		ldr	r3, [r9, #4]
 876              	.LVL148:
 474:emulator/z80emu/z80emu.c ****                                 READ_WORD(nn, HL_IX_IY);
 877              		.loc 1 474 33 is_stmt 0 view .LVU268
 878 046e 1FFA8BF0 		uxth	r0, fp
 879              	.LVL149:
 474:emulator/z80emu/z80emu.c ****                                 READ_WORD(nn, HL_IX_IY);
 880              		.loc 1 474 33 view .LVU269
 881 0472 9847     		blx	r3
 882              	.LVL150:
 474:emulator/z80emu/z80emu.c ****                                 READ_WORD(nn, HL_IX_IY);
 883              		.loc 1 474 33 is_stmt 1 view .LVU270
 474:emulator/z80emu/z80emu.c ****                                 READ_WORD(nn, HL_IX_IY);
 884              		.loc 1 474 33 view .LVU271
 885 0474 0BF1020B 		add	fp, fp, #2
 886              	.LVL151:
 474:emulator/z80emu/z80emu.c ****                                 READ_WORD(nn, HL_IX_IY);
 887              		.loc 1 474 33 view .LVU272
 474:emulator/z80emu/z80emu.c ****                                 READ_WORD(nn, HL_IX_IY);
 888              		.loc 1 474 44 view .LVU273
 475:emulator/z80emu/z80emu.c ****                                 break;
 889              		.loc 1 475 33 view .LVU274
 890 0478 D9F80430 		ldr	r3, [r9, #4]
 891 047c 019A     		ldr	r2, [sp, #4]
 892 047e 9469     		ldr	r4, [r2, #24]
 893              	.LVL152:
 475:emulator/z80emu/z80emu.c ****                                 break;
 894              		.loc 1 475 33 is_stmt 0 view .LVU275
 895 0480 9847     		blx	r3
 896              	.LVL153:
 475:emulator/z80emu/z80emu.c ****                                 break;
 897              		.loc 1 475 33 view .LVU276
 898 0482 2080     		strh	r0, [r4]	@ movhi
 475:emulator/z80emu/z80emu.c ****                                 break;
 899              		.loc 1 475 33 is_stmt 1 view .LVU277
 475:emulator/z80emu/z80emu.c ****                                 break;
ARM GAS  /tmp/ccoto6PB.s 			page 67


 900              		.loc 1 475 33 view .LVU278
 901 0484 1036     		adds	r6, r6, #16
 902              	.LVL154:
 475:emulator/z80emu/z80emu.c ****                                 break;
 903              		.loc 1 475 56 view .LVU279
 476:emulator/z80emu/z80emu.c **** 
 904              		.loc 1 476 33 view .LVU280
 905 0486 D8E5     		b	.L7
 906              	.LVL155:
 907              	.L115:
 476:emulator/z80emu/z80emu.c **** 
 908              		.loc 1 476 33 is_stmt 0 view .LVU281
 909 0488 A246     		mov	r10, r4
 910              	.LVL156:
 476:emulator/z80emu/z80emu.c **** 
 911              		.loc 1 476 33 view .LVU282
 912 048a 0446     		mov	r4, r0
 913              	.LVL157:
 476:emulator/z80emu/z80emu.c **** 
 914              		.loc 1 476 33 view .LVU283
 915              	.LBE10:
 916              	.LBB11:
 482:emulator/z80emu/z80emu.c **** 
 917              		.loc 1 482 33 is_stmt 1 view .LVU284
 484:emulator/z80emu/z80emu.c ****                                 READ_WORD(nn, RR(P(opcode)));
 918              		.loc 1 484 33 view .LVU285
 919 048c D9F80430 		ldr	r3, [r9, #4]
 920              	.LVL158:
 484:emulator/z80emu/z80emu.c ****                                 READ_WORD(nn, RR(P(opcode)));
 921              		.loc 1 484 33 is_stmt 0 view .LVU286
 922 0490 1FFA8BF0 		uxth	r0, fp
 923              	.LVL159:
 484:emulator/z80emu/z80emu.c ****                                 READ_WORD(nn, RR(P(opcode)));
 924              		.loc 1 484 33 view .LVU287
 925 0494 9847     		blx	r3
 926              	.LVL160:
 484:emulator/z80emu/z80emu.c ****                                 READ_WORD(nn, RR(P(opcode)));
 927              		.loc 1 484 33 is_stmt 1 view .LVU288
 484:emulator/z80emu/z80emu.c ****                                 READ_WORD(nn, RR(P(opcode)));
 928              		.loc 1 484 33 view .LVU289
 929 0496 0BF1020B 		add	fp, fp, #2
 930              	.LVL161:
 484:emulator/z80emu/z80emu.c ****                                 READ_WORD(nn, RR(P(opcode)));
 931              		.loc 1 484 33 view .LVU290
 484:emulator/z80emu/z80emu.c ****                                 READ_WORD(nn, RR(P(opcode)));
 932              		.loc 1 484 44 view .LVU291
 485:emulator/z80emu/z80emu.c ****                                 break;
 933              		.loc 1 485 33 view .LVU292
 934 049a D9F80420 		ldr	r2, [r9, #4]
 935 049e C4F30113 		ubfx	r3, r4, #4, #2
 936 04a2 0833     		adds	r3, r3, #8
 937 04a4 0199     		ldr	r1, [sp, #4]
 938 04a6 51F82340 		ldr	r4, [r1, r3, lsl #2]
 939              	.LVL162:
 485:emulator/z80emu/z80emu.c ****                                 break;
 940              		.loc 1 485 33 is_stmt 0 view .LVU293
 941 04aa 9047     		blx	r2
ARM GAS  /tmp/ccoto6PB.s 			page 68


 942              	.LVL163:
 485:emulator/z80emu/z80emu.c ****                                 break;
 943              		.loc 1 485 33 view .LVU294
 944 04ac 2080     		strh	r0, [r4]	@ movhi
 485:emulator/z80emu/z80emu.c ****                                 break;
 945              		.loc 1 485 33 is_stmt 1 view .LVU295
 485:emulator/z80emu/z80emu.c ****                                 break;
 946              		.loc 1 485 33 view .LVU296
 947 04ae 1036     		adds	r6, r6, #16
 948              	.LVL164:
 485:emulator/z80emu/z80emu.c ****                                 break;
 949              		.loc 1 485 61 view .LVU297
 486:emulator/z80emu/z80emu.c **** 
 950              		.loc 1 486 33 view .LVU298
 951 04b0 C3E5     		b	.L7
 952              	.LVL165:
 953              	.L114:
 486:emulator/z80emu/z80emu.c **** 
 954              		.loc 1 486 33 is_stmt 0 view .LVU299
 955 04b2 A246     		mov	r10, r4
 956              	.LVL166:
 486:emulator/z80emu/z80emu.c **** 
 957              		.loc 1 486 33 view .LVU300
 958              	.LBE11:
 959              	.LBB12:
 492:emulator/z80emu/z80emu.c **** 
 960              		.loc 1 492 33 is_stmt 1 view .LVU301
 494:emulator/z80emu/z80emu.c ****                                 WRITE_WORD(nn, HL_IX_IY);
 961              		.loc 1 494 33 view .LVU302
 962 04b4 D9F80430 		ldr	r3, [r9, #4]
 963              	.LVL167:
 494:emulator/z80emu/z80emu.c ****                                 WRITE_WORD(nn, HL_IX_IY);
 964              		.loc 1 494 33 is_stmt 0 view .LVU303
 965 04b8 1FFA8BF0 		uxth	r0, fp
 966              	.LVL168:
 494:emulator/z80emu/z80emu.c ****                                 WRITE_WORD(nn, HL_IX_IY);
 967              		.loc 1 494 33 view .LVU304
 968 04bc 9847     		blx	r3
 969              	.LVL169:
 494:emulator/z80emu/z80emu.c ****                                 WRITE_WORD(nn, HL_IX_IY);
 970              		.loc 1 494 33 is_stmt 1 view .LVU305
 494:emulator/z80emu/z80emu.c ****                                 WRITE_WORD(nn, HL_IX_IY);
 971              		.loc 1 494 33 view .LVU306
 972 04be 0BF1020B 		add	fp, fp, #2
 973              	.LVL170:
 494:emulator/z80emu/z80emu.c ****                                 WRITE_WORD(nn, HL_IX_IY);
 974              		.loc 1 494 33 view .LVU307
 494:emulator/z80emu/z80emu.c ****                                 WRITE_WORD(nn, HL_IX_IY);
 975              		.loc 1 494 44 view .LVU308
 495:emulator/z80emu/z80emu.c ****                                 break;
 976              		.loc 1 495 33 view .LVU309
 977 04c2 D9F80C30 		ldr	r3, [r9, #12]
 978 04c6 019A     		ldr	r2, [sp, #4]
 979 04c8 9269     		ldr	r2, [r2, #24]
 980 04ca 1188     		ldrh	r1, [r2]
 981 04cc 9847     		blx	r3
 982              	.LVL171:
ARM GAS  /tmp/ccoto6PB.s 			page 69


 495:emulator/z80emu/z80emu.c ****                                 break;
 983              		.loc 1 495 33 view .LVU310
 495:emulator/z80emu/z80emu.c ****                                 break;
 984              		.loc 1 495 33 view .LVU311
 985 04ce 1036     		adds	r6, r6, #16
 986              	.LVL172:
 495:emulator/z80emu/z80emu.c ****                                 break;
 987              		.loc 1 495 57 view .LVU312
 496:emulator/z80emu/z80emu.c **** 
 988              		.loc 1 496 33 view .LVU313
 989 04d0 B3E5     		b	.L7
 990              	.LVL173:
 991              	.L113:
 496:emulator/z80emu/z80emu.c **** 
 992              		.loc 1 496 33 is_stmt 0 view .LVU314
 993 04d2 A246     		mov	r10, r4
 994              	.LVL174:
 496:emulator/z80emu/z80emu.c **** 
 995              		.loc 1 496 33 view .LVU315
 996 04d4 0446     		mov	r4, r0
 997              	.LVL175:
 496:emulator/z80emu/z80emu.c **** 
 998              		.loc 1 496 33 view .LVU316
 999              	.LBE12:
 1000              	.LBB13:
 502:emulator/z80emu/z80emu.c **** 
 1001              		.loc 1 502 33 is_stmt 1 view .LVU317
 504:emulator/z80emu/z80emu.c ****                                 WRITE_WORD(nn, RR(P(opcode)));
 1002              		.loc 1 504 33 view .LVU318
 1003 04d6 D9F80430 		ldr	r3, [r9, #4]
 1004              	.LVL176:
 504:emulator/z80emu/z80emu.c ****                                 WRITE_WORD(nn, RR(P(opcode)));
 1005              		.loc 1 504 33 is_stmt 0 view .LVU319
 1006 04da 1FFA8BF0 		uxth	r0, fp
 1007              	.LVL177:
 504:emulator/z80emu/z80emu.c ****                                 WRITE_WORD(nn, RR(P(opcode)));
 1008              		.loc 1 504 33 view .LVU320
 1009 04de 9847     		blx	r3
 1010              	.LVL178:
 504:emulator/z80emu/z80emu.c ****                                 WRITE_WORD(nn, RR(P(opcode)));
 1011              		.loc 1 504 33 is_stmt 1 view .LVU321
 504:emulator/z80emu/z80emu.c ****                                 WRITE_WORD(nn, RR(P(opcode)));
 1012              		.loc 1 504 33 view .LVU322
 1013 04e0 0BF1020B 		add	fp, fp, #2
 1014              	.LVL179:
 504:emulator/z80emu/z80emu.c ****                                 WRITE_WORD(nn, RR(P(opcode)));
 1015              		.loc 1 504 33 view .LVU323
 504:emulator/z80emu/z80emu.c ****                                 WRITE_WORD(nn, RR(P(opcode)));
 1016              		.loc 1 504 44 view .LVU324
 505:emulator/z80emu/z80emu.c ****                                 break;
 1017              		.loc 1 505 33 view .LVU325
 1018 04e4 D9F80C20 		ldr	r2, [r9, #12]
 1019 04e8 C4F30113 		ubfx	r3, r4, #4, #2
 1020 04ec 0833     		adds	r3, r3, #8
 1021 04ee 0199     		ldr	r1, [sp, #4]
 1022 04f0 51F82330 		ldr	r3, [r1, r3, lsl #2]
 1023 04f4 1988     		ldrh	r1, [r3]
ARM GAS  /tmp/ccoto6PB.s 			page 70


 1024 04f6 9047     		blx	r2
 1025              	.LVL180:
 505:emulator/z80emu/z80emu.c ****                                 break;
 1026              		.loc 1 505 33 view .LVU326
 505:emulator/z80emu/z80emu.c ****                                 break;
 1027              		.loc 1 505 33 view .LVU327
 1028 04f8 1036     		adds	r6, r6, #16
 1029              	.LVL181:
 505:emulator/z80emu/z80emu.c ****                                 break;
 1030              		.loc 1 505 62 view .LVU328
 506:emulator/z80emu/z80emu.c **** 
 1031              		.loc 1 506 33 view .LVU329
 1032 04fa 9EE5     		b	.L7
 1033              	.LVL182:
 1034              	.L112:
 506:emulator/z80emu/z80emu.c **** 
 1035              		.loc 1 506 33 is_stmt 0 view .LVU330
 1036 04fc A246     		mov	r10, r4
 1037              	.LVL183:
 506:emulator/z80emu/z80emu.c **** 
 1038              		.loc 1 506 33 view .LVU331
 1039              	.LBE13:
 512:emulator/z80emu/z80emu.c ****                                 elapsed_cycles += 2;
 1040              		.loc 1 512 33 is_stmt 1 view .LVU332
 512:emulator/z80emu/z80emu.c ****                                 elapsed_cycles += 2;
 1041              		.loc 1 512 38 is_stmt 0 view .LVU333
 1042 04fe 019B     		ldr	r3, [sp, #4]
 1043              	.LVL184:
 512:emulator/z80emu/z80emu.c ****                                 elapsed_cycles += 2;
 1044              		.loc 1 512 38 view .LVU334
 1045 0500 9B69     		ldr	r3, [r3, #24]
 1046 0502 1B88     		ldrh	r3, [r3]
 512:emulator/z80emu/z80emu.c ****                                 elapsed_cycles += 2;
 1047              		.loc 1 512 36 view .LVU335
 1048 0504 2B82     		strh	r3, [r5, #16]	@ movhi
 513:emulator/z80emu/z80emu.c ****                                 break;
 1049              		.loc 1 513 33 is_stmt 1 view .LVU336
 513:emulator/z80emu/z80emu.c ****                                 break;
 1050              		.loc 1 513 48 is_stmt 0 view .LVU337
 1051 0506 0636     		adds	r6, r6, #6
 1052              	.LVL185:
 514:emulator/z80emu/z80emu.c **** 
 1053              		.loc 1 514 33 is_stmt 1 view .LVU338
 1054 0508 97E5     		b	.L7
 1055              	.LVL186:
 1056              	.L111:
 514:emulator/z80emu/z80emu.c **** 
 1057              		.loc 1 514 33 is_stmt 0 view .LVU339
 1058 050a A246     		mov	r10, r4
 1059              	.LVL187:
 514:emulator/z80emu/z80emu.c **** 
 1060              		.loc 1 514 33 view .LVU340
 1061 050c 0446     		mov	r4, r0
 1062              	.LVL188:
 520:emulator/z80emu/z80emu.c ****                                 elapsed_cycles++;
 1063              		.loc 1 520 33 is_stmt 1 view .LVU341
 1064 050e 288A     		ldrh	r0, [r5, #16]
ARM GAS  /tmp/ccoto6PB.s 			page 71


 1065              	.LVL189:
 520:emulator/z80emu/z80emu.c ****                                 elapsed_cycles++;
 1066              		.loc 1 520 33 is_stmt 0 view .LVU342
 1067 0510 0238     		subs	r0, r0, #2
 1068 0512 80B2     		uxth	r0, r0
 1069 0514 2882     		strh	r0, [r5, #16]	@ movhi
 520:emulator/z80emu/z80emu.c ****                                 elapsed_cycles++;
 1070              		.loc 1 520 33 is_stmt 1 view .LVU343
 1071 0516 D9F80C30 		ldr	r3, [r9, #12]
 1072              	.LVL190:
 520:emulator/z80emu/z80emu.c ****                                 elapsed_cycles++;
 1073              		.loc 1 520 33 is_stmt 0 view .LVU344
 1074 051a C4F30112 		ubfx	r2, r4, #4, #2
 1075 051e 0C32     		adds	r2, r2, #12
 1076 0520 0199     		ldr	r1, [sp, #4]
 1077 0522 51F82220 		ldr	r2, [r1, r2, lsl #2]
 1078 0526 1188     		ldrh	r1, [r2]
 1079 0528 9847     		blx	r3
 1080              	.LVL191:
 520:emulator/z80emu/z80emu.c ****                                 elapsed_cycles++;
 1081              		.loc 1 520 33 is_stmt 1 view .LVU345
 520:emulator/z80emu/z80emu.c ****                                 elapsed_cycles++;
 1082              		.loc 1 520 33 view .LVU346
 520:emulator/z80emu/z80emu.c ****                                 elapsed_cycles++;
 1083              		.loc 1 520 33 view .LVU347
 520:emulator/z80emu/z80emu.c ****                                 elapsed_cycles++;
 1084              		.loc 1 520 52 view .LVU348
 521:emulator/z80emu/z80emu.c ****                                 break;
 1085              		.loc 1 521 33 view .LVU349
 521:emulator/z80emu/z80emu.c ****                                 break;
 1086              		.loc 1 521 47 is_stmt 0 view .LVU350
 1087 052a 0B36     		adds	r6, r6, #11
 1088              	.LVL192:
 522:emulator/z80emu/z80emu.c **** 
 1089              		.loc 1 522 33 is_stmt 1 view .LVU351
 1090 052c 85E5     		b	.L7
 1091              	.LVL193:
 1092              	.L110:
 522:emulator/z80emu/z80emu.c **** 
 1093              		.loc 1 522 33 is_stmt 0 view .LVU352
 1094 052e A246     		mov	r10, r4
 1095              	.LVL194:
 528:emulator/z80emu/z80emu.c ****                                 break;
 1096              		.loc 1 528 33 is_stmt 1 view .LVU353
 1097 0530 D9F80420 		ldr	r2, [r9, #4]
 1098 0534 C0F30113 		ubfx	r3, r0, #4, #2
 1099              	.LVL195:
 528:emulator/z80emu/z80emu.c ****                                 break;
 1100              		.loc 1 528 33 is_stmt 0 view .LVU354
 1101 0538 0C33     		adds	r3, r3, #12
 1102 053a 0199     		ldr	r1, [sp, #4]
 1103 053c 51F82340 		ldr	r4, [r1, r3, lsl #2]
 1104              	.LVL196:
 528:emulator/z80emu/z80emu.c ****                                 break;
 1105              		.loc 1 528 33 view .LVU355
 1106 0540 288A     		ldrh	r0, [r5, #16]
 1107              	.LVL197:
ARM GAS  /tmp/ccoto6PB.s 			page 72


 528:emulator/z80emu/z80emu.c ****                                 break;
 1108              		.loc 1 528 33 view .LVU356
 1109 0542 9047     		blx	r2
 1110              	.LVL198:
 1111 0544 2080     		strh	r0, [r4]	@ movhi
 528:emulator/z80emu/z80emu.c ****                                 break;
 1112              		.loc 1 528 33 is_stmt 1 view .LVU357
 528:emulator/z80emu/z80emu.c ****                                 break;
 1113              		.loc 1 528 33 view .LVU358
 1114 0546 0A36     		adds	r6, r6, #10
 1115              	.LVL199:
 528:emulator/z80emu/z80emu.c ****                                 break;
 1116              		.loc 1 528 33 view .LVU359
 528:emulator/z80emu/z80emu.c ****                                 break;
 1117              		.loc 1 528 33 view .LVU360
 1118 0548 2B8A     		ldrh	r3, [r5, #16]
 1119 054a 0233     		adds	r3, r3, #2
 1120 054c 2B82     		strh	r3, [r5, #16]	@ movhi
 528:emulator/z80emu/z80emu.c ****                                 break;
 1121              		.loc 1 528 51 view .LVU361
 529:emulator/z80emu/z80emu.c **** 
 1122              		.loc 1 529 33 view .LVU362
 1123 054e 74E5     		b	.L7
 1124              	.LVL200:
 1125              	.L109:
 529:emulator/z80emu/z80emu.c **** 
 1126              		.loc 1 529 33 is_stmt 0 view .LVU363
 1127 0550 5646     		mov	r6, r10
 1128 0552 A246     		mov	r10, r4
 1129              	.LVL201:
 1130              	.LBB14:
 537:emulator/z80emu/z80emu.c ****                                 break;                          
 1131              		.loc 1 537 33 is_stmt 1 view .LVU364
 537:emulator/z80emu/z80emu.c ****                                 break;                          
 1132              		.loc 1 537 33 view .LVU365
 1133 0554 EB88     		ldrh	r3, [r5, #6]
 1134              	.LVL202:
 537:emulator/z80emu/z80emu.c ****                                 break;                          
 1135              		.loc 1 537 33 view .LVU366
 1136 0556 2A89     		ldrh	r2, [r5, #8]
 1137 0558 EA80     		strh	r2, [r5, #6]	@ movhi
 537:emulator/z80emu/z80emu.c ****                                 break;                          
 1138              		.loc 1 537 33 view .LVU367
 1139 055a 2B81     		strh	r3, [r5, #8]	@ movhi
 1140              	.LBE14:
 537:emulator/z80emu/z80emu.c ****                                 break;                          
 1141              		.loc 1 537 49 view .LVU368
 538:emulator/z80emu/z80emu.c **** 
 1142              		.loc 1 538 33 view .LVU369
 1143 055c 6DE5     		b	.L7
 1144              	.LVL203:
 1145              	.L108:
 538:emulator/z80emu/z80emu.c **** 
 1146              		.loc 1 538 33 is_stmt 0 view .LVU370
 1147 055e 5646     		mov	r6, r10
 1148 0560 A246     		mov	r10, r4
 1149              	.LVL204:
ARM GAS  /tmp/ccoto6PB.s 			page 73


 1150              	.LBB15:
 544:emulator/z80emu/z80emu.c ****                                 break;
 1151              		.loc 1 544 33 is_stmt 1 view .LVU371
 544:emulator/z80emu/z80emu.c ****                                 break;
 1152              		.loc 1 544 33 view .LVU372
 1153 0562 6B89     		ldrh	r3, [r5, #10]
 1154              	.LVL205:
 544:emulator/z80emu/z80emu.c ****                                 break;
 1155              		.loc 1 544 33 view .LVU373
 1156 0564 2A8B     		ldrh	r2, [r5, #24]
 1157 0566 6A81     		strh	r2, [r5, #10]	@ movhi
 544:emulator/z80emu/z80emu.c ****                                 break;
 1158              		.loc 1 544 33 view .LVU374
 1159 0568 2B83     		strh	r3, [r5, #24]	@ movhi
 1160              	.LBE15:
 544:emulator/z80emu/z80emu.c ****                                 break;
 1161              		.loc 1 544 72 view .LVU375
 545:emulator/z80emu/z80emu.c **** 
 1162              		.loc 1 545 33 view .LVU376
 1163 056a 66E5     		b	.L7
 1164              	.LVL206:
 1165              	.L107:
 545:emulator/z80emu/z80emu.c **** 
 1166              		.loc 1 545 33 is_stmt 0 view .LVU377
 1167 056c 5646     		mov	r6, r10
 1168 056e A246     		mov	r10, r4
 1169              	.LVL207:
 1170              	.LBB16:
 551:emulator/z80emu/z80emu.c ****                                 EXCHANGE(DE, state->alternates[Z80_DE]);
 1171              		.loc 1 551 33 is_stmt 1 view .LVU378
 551:emulator/z80emu/z80emu.c ****                                 EXCHANGE(DE, state->alternates[Z80_DE]);
 1172              		.loc 1 551 33 view .LVU379
 1173 0570 AB88     		ldrh	r3, [r5, #4]
 1174              	.LVL208:
 551:emulator/z80emu/z80emu.c ****                                 EXCHANGE(DE, state->alternates[Z80_DE]);
 1175              		.loc 1 551 33 view .LVU380
 1176 0572 6A8A     		ldrh	r2, [r5, #18]
 1177 0574 AA80     		strh	r2, [r5, #4]	@ movhi
 551:emulator/z80emu/z80emu.c ****                                 EXCHANGE(DE, state->alternates[Z80_DE]);
 1178              		.loc 1 551 33 view .LVU381
 1179 0576 6B82     		strh	r3, [r5, #18]	@ movhi
 1180              	.LBE16:
 551:emulator/z80emu/z80emu.c ****                                 EXCHANGE(DE, state->alternates[Z80_DE]);
 1181              		.loc 1 551 72 view .LVU382
 1182              	.LBB17:
 552:emulator/z80emu/z80emu.c ****                                 EXCHANGE(HL, state->alternates[Z80_HL]);
 1183              		.loc 1 552 33 view .LVU383
 552:emulator/z80emu/z80emu.c ****                                 EXCHANGE(HL, state->alternates[Z80_HL]);
 1184              		.loc 1 552 33 view .LVU384
 1185 0578 EB88     		ldrh	r3, [r5, #6]
 1186              	.LVL209:
 552:emulator/z80emu/z80emu.c ****                                 EXCHANGE(HL, state->alternates[Z80_HL]);
 1187              		.loc 1 552 33 view .LVU385
 1188 057a AA8A     		ldrh	r2, [r5, #20]
 1189 057c EA80     		strh	r2, [r5, #6]	@ movhi
 552:emulator/z80emu/z80emu.c ****                                 EXCHANGE(HL, state->alternates[Z80_HL]);
 1190              		.loc 1 552 33 view .LVU386
ARM GAS  /tmp/ccoto6PB.s 			page 74


 1191 057e AB82     		strh	r3, [r5, #20]	@ movhi
 1192              	.LBE17:
 552:emulator/z80emu/z80emu.c ****                                 EXCHANGE(HL, state->alternates[Z80_HL]);
 1193              		.loc 1 552 72 view .LVU387
 1194              	.LBB18:
 553:emulator/z80emu/z80emu.c ****                                 break;
 1195              		.loc 1 553 33 view .LVU388
 553:emulator/z80emu/z80emu.c ****                                 break;
 1196              		.loc 1 553 33 view .LVU389
 1197 0580 2B89     		ldrh	r3, [r5, #8]
 1198              	.LVL210:
 553:emulator/z80emu/z80emu.c ****                                 break;
 1199              		.loc 1 553 33 view .LVU390
 1200 0582 EA8A     		ldrh	r2, [r5, #22]
 1201 0584 2A81     		strh	r2, [r5, #8]	@ movhi
 553:emulator/z80emu/z80emu.c ****                                 break;
 1202              		.loc 1 553 33 view .LVU391
 1203 0586 EB82     		strh	r3, [r5, #22]	@ movhi
 1204              	.LBE18:
 553:emulator/z80emu/z80emu.c ****                                 break;
 1205              		.loc 1 553 72 view .LVU392
 554:emulator/z80emu/z80emu.c **** 
 1206              		.loc 1 554 33 view .LVU393
 1207 0588 57E5     		b	.L7
 1208              	.LVL211:
 1209              	.L106:
 554:emulator/z80emu/z80emu.c **** 
 1210              		.loc 1 554 33 is_stmt 0 view .LVU394
 1211 058a A246     		mov	r10, r4
 1212              	.LVL212:
 1213              	.LBB19:
 560:emulator/z80emu/z80emu.c **** 
 1214              		.loc 1 560 33 is_stmt 1 view .LVU395
 562:emulator/z80emu/z80emu.c ****                                 WRITE_WORD(SP, HL_IX_IY);
 1215              		.loc 1 562 33 view .LVU396
 1216 058c D9F80430 		ldr	r3, [r9, #4]
 1217              	.LVL213:
 562:emulator/z80emu/z80emu.c ****                                 WRITE_WORD(SP, HL_IX_IY);
 1218              		.loc 1 562 33 is_stmt 0 view .LVU397
 1219 0590 288A     		ldrh	r0, [r5, #16]
 1220              	.LVL214:
 562:emulator/z80emu/z80emu.c ****                                 WRITE_WORD(SP, HL_IX_IY);
 1221              		.loc 1 562 33 view .LVU398
 1222 0592 9847     		blx	r3
 1223              	.LVL215:
 1224 0594 0446     		mov	r4, r0
 1225              	.LVL216:
 562:emulator/z80emu/z80emu.c ****                                 WRITE_WORD(SP, HL_IX_IY);
 1226              		.loc 1 562 33 is_stmt 1 view .LVU399
 562:emulator/z80emu/z80emu.c ****                                 WRITE_WORD(SP, HL_IX_IY);
 1227              		.loc 1 562 33 view .LVU400
 562:emulator/z80emu/z80emu.c ****                                 WRITE_WORD(SP, HL_IX_IY);
 1228              		.loc 1 562 49 view .LVU401
 563:emulator/z80emu/z80emu.c ****                                 HL_IX_IY = t;
 1229              		.loc 1 563 33 view .LVU402
 1230 0596 D9F80C30 		ldr	r3, [r9, #12]
 1231 059a 019F     		ldr	r7, [sp, #4]
ARM GAS  /tmp/ccoto6PB.s 			page 75


 1232 059c BA69     		ldr	r2, [r7, #24]
 1233 059e 1188     		ldrh	r1, [r2]
 1234 05a0 288A     		ldrh	r0, [r5, #16]
 1235 05a2 9847     		blx	r3
 1236              	.LVL217:
 563:emulator/z80emu/z80emu.c ****                                 HL_IX_IY = t;
 1237              		.loc 1 563 33 view .LVU403
 563:emulator/z80emu/z80emu.c ****                                 HL_IX_IY = t;
 1238              		.loc 1 563 33 view .LVU404
 563:emulator/z80emu/z80emu.c ****                                 HL_IX_IY = t;
 1239              		.loc 1 563 57 view .LVU405
 564:emulator/z80emu/z80emu.c **** 
 1240              		.loc 1 564 33 view .LVU406
 1241 05a4 BB69     		ldr	r3, [r7, #24]
 564:emulator/z80emu/z80emu.c **** 
 1242              		.loc 1 564 42 is_stmt 0 view .LVU407
 1243 05a6 1C80     		strh	r4, [r3]	@ movhi
 566:emulator/z80emu/z80emu.c **** 
 1244              		.loc 1 566 33 is_stmt 1 view .LVU408
 566:emulator/z80emu/z80emu.c **** 
 1245              		.loc 1 566 48 is_stmt 0 view .LVU409
 1246 05a8 1336     		adds	r6, r6, #19
 1247              	.LVL218:
 568:emulator/z80emu/z80emu.c ****                         }
 1248              		.loc 1 568 33 is_stmt 1 view .LVU410
 1249 05aa 46E5     		b	.L7
 1250              	.LVL219:
 1251              	.L105:
 568:emulator/z80emu/z80emu.c ****                         }
 1252              		.loc 1 568 33 is_stmt 0 view .LVU411
 1253 05ac A246     		mov	r10, r4
 1254              	.LVL220:
 568:emulator/z80emu/z80emu.c ****                         }
 1255              		.loc 1 568 33 view .LVU412
 1256 05ae 0446     		mov	r4, r0
 1257              	.LVL221:
 568:emulator/z80emu/z80emu.c ****                         }
 1258              		.loc 1 568 33 view .LVU413
 1259              	.LBE19:
 1260              	.LBB20:
 573:emulator/z80emu/z80emu.c **** 
 1261              		.loc 1 573 33 is_stmt 1 view .LVU414
 575:emulator/z80emu/z80emu.c ****                                 WRITE_BYTE(DE, n);
 1262              		.loc 1 575 33 view .LVU415
 1263 05b0 D9F80030 		ldr	r3, [r9]
 1264              	.LVL222:
 575:emulator/z80emu/z80emu.c ****                                 WRITE_BYTE(DE, n);
 1265              		.loc 1 575 33 is_stmt 0 view .LVU416
 1266 05b4 2889     		ldrh	r0, [r5, #8]
 1267              	.LVL223:
 575:emulator/z80emu/z80emu.c ****                                 WRITE_BYTE(DE, n);
 1268              		.loc 1 575 33 view .LVU417
 1269 05b6 9847     		blx	r3
 1270              	.LVL224:
 1271 05b8 0746     		mov	r7, r0
 1272              	.LVL225:
 575:emulator/z80emu/z80emu.c ****                                 WRITE_BYTE(DE, n);
ARM GAS  /tmp/ccoto6PB.s 			page 76


 1273              		.loc 1 575 33 is_stmt 1 view .LVU418
 575:emulator/z80emu/z80emu.c ****                                 WRITE_BYTE(DE, n);
 1274              		.loc 1 575 33 view .LVU419
 575:emulator/z80emu/z80emu.c ****                                 WRITE_BYTE(DE, n);
 1275              		.loc 1 575 49 view .LVU420
 576:emulator/z80emu/z80emu.c **** 
 1276              		.loc 1 576 33 view .LVU421
 1277 05ba D9F80830 		ldr	r3, [r9, #8]
 1278 05be 0146     		mov	r1, r0
 1279 05c0 E888     		ldrh	r0, [r5, #6]
 1280              	.LVL226:
 576:emulator/z80emu/z80emu.c **** 
 1281              		.loc 1 576 33 is_stmt 0 view .LVU422
 1282 05c2 9847     		blx	r3
 1283              	.LVL227:
 576:emulator/z80emu/z80emu.c **** 
 1284              		.loc 1 576 33 is_stmt 1 view .LVU423
 576:emulator/z80emu/z80emu.c **** 
 1285              		.loc 1 576 33 view .LVU424
 576:emulator/z80emu/z80emu.c **** 
 1286              		.loc 1 576 50 view .LVU425
 578:emulator/z80emu/z80emu.c ****                                 f |= --BC ? Z80_P_FLAG : 0;
 1287              		.loc 1 578 33 view .LVU426
 578:emulator/z80emu/z80emu.c ****                                 f |= --BC ? Z80_P_FLAG : 0;
 1288              		.loc 1 578 37 is_stmt 0 view .LVU427
 1289 05c4 A97A     		ldrb	r1, [r5, #10]	@ zero_extendqisi2
 578:emulator/z80emu/z80emu.c ****                                 f |= --BC ? Z80_P_FLAG : 0;
 1290              		.loc 1 578 35 view .LVU428
 1291 05c6 01F0C101 		and	r1, r1, #193
 1292              	.LVL228:
 579:emulator/z80emu/z80emu.c **** 
 1293              		.loc 1 579 33 is_stmt 1 view .LVU429
 579:emulator/z80emu/z80emu.c **** 
 1294              		.loc 1 579 40 is_stmt 0 view .LVU430
 1295 05ca AB88     		ldrh	r3, [r5, #4]
 579:emulator/z80emu/z80emu.c **** 
 1296              		.loc 1 579 38 view .LVU431
 1297 05cc 013B     		subs	r3, r3, #1
 1298 05ce 9BB2     		uxth	r3, r3
 579:emulator/z80emu/z80emu.c **** 
 1299              		.loc 1 579 56 view .LVU432
 1300 05d0 AB80     		strh	r3, [r5, #4]	@ movhi
 1301 05d2 C3B1     		cbz	r3, .L237
 579:emulator/z80emu/z80emu.c **** 
 1302              		.loc 1 579 56 view .LVU433
 1303 05d4 0422     		movs	r2, #4
 1304              	.L138:
 579:emulator/z80emu/z80emu.c **** 
 1305              		.loc 1 579 35 discriminator 4 view .LVU434
 1306 05d6 1143     		orrs	r1, r1, r2
 1307              	.LVL229:
 583:emulator/z80emu/z80emu.c ****                                 f |= n & Z80_X_FLAG;
 1308              		.loc 1 583 33 is_stmt 1 discriminator 4 view .LVU435
 583:emulator/z80emu/z80emu.c ****                                 f |= n & Z80_X_FLAG;
 1309              		.loc 1 583 38 is_stmt 0 discriminator 4 view .LVU436
 1310 05d8 EB7A     		ldrb	r3, [r5, #11]	@ zero_extendqisi2
 583:emulator/z80emu/z80emu.c ****                                 f |= n & Z80_X_FLAG;
ARM GAS  /tmp/ccoto6PB.s 			page 77


 1311              		.loc 1 583 35 discriminator 4 view .LVU437
 1312 05da 3B44     		add	r3, r3, r7
 1313              	.LVL230:
 584:emulator/z80emu/z80emu.c ****                                 f |= (n << (Z80_Y_FLAG_SHIFT - 1)) 
 1314              		.loc 1 584 33 is_stmt 1 discriminator 4 view .LVU438
 584:emulator/z80emu/z80emu.c ****                                 f |= (n << (Z80_Y_FLAG_SHIFT - 1)) 
 1315              		.loc 1 584 40 is_stmt 0 discriminator 4 view .LVU439
 1316 05dc 03F00802 		and	r2, r3, #8
 584:emulator/z80emu/z80emu.c ****                                 f |= (n << (Z80_Y_FLAG_SHIFT - 1)) 
 1317              		.loc 1 584 35 discriminator 4 view .LVU440
 1318 05e0 0A43     		orrs	r2, r2, r1
 1319              	.LVL231:
 585:emulator/z80emu/z80emu.c ****                                         & Z80_Y_FLAG;
 1320              		.loc 1 585 33 is_stmt 1 discriminator 4 view .LVU441
 585:emulator/z80emu/z80emu.c ****                                         & Z80_Y_FLAG;
 1321              		.loc 1 585 41 is_stmt 0 discriminator 4 view .LVU442
 1322 05e2 1B01     		lsls	r3, r3, #4
 1323              	.LVL232:
 586:emulator/z80emu/z80emu.c **** 
 1324              		.loc 1 586 41 discriminator 4 view .LVU443
 1325 05e4 03F02003 		and	r3, r3, #32
 585:emulator/z80emu/z80emu.c ****                                         & Z80_Y_FLAG;
 1326              		.loc 1 585 35 discriminator 4 view .LVU444
 1327 05e8 1343     		orrs	r3, r3, r2
 1328              	.LVL233:
 590:emulator/z80emu/z80emu.c **** 
 1329              		.loc 1 590 33 is_stmt 1 discriminator 4 view .LVU445
 590:emulator/z80emu/z80emu.c **** 
 1330              		.loc 1 590 35 is_stmt 0 discriminator 4 view .LVU446
 1331 05ea AB72     		strb	r3, [r5, #10]
 592:emulator/z80emu/z80emu.c ****                                 DE += d;
 1332              		.loc 1 592 33 is_stmt 1 discriminator 4 view .LVU447
 592:emulator/z80emu/z80emu.c ****                                 DE += d;
 1333              		.loc 1 592 63 is_stmt 0 discriminator 4 view .LVU448
 1334 05ec A02C     		cmp	r4, #160
 1335 05ee 0CD0     		beq	.L264
 592:emulator/z80emu/z80emu.c ****                                 DE += d;
 1336              		.loc 1 592 63 view .LVU449
 1337 05f0 4FF0FF33 		mov	r3, #-1
 1338              	.LVL234:
 1339              	.L139:
